---
triple:          'arm64-apple-darwin'
binary-path:     '/Users/bytedance/IdeaProjects/actor-for-agents/rust_core/target/debug/deps/librust_core.dylib'
relocations:
  - { offset: 0x1E, size: 0x8, addend: 0x0, symName: '__ZN4pyo311conversions3std6string125_$LT$impl$u20$pyo3..conversion..IntoPy$LT$pyo3..instance..Py$LT$pyo3..types..string..PyString$GT$$GT$$u20$for$u20$$RF$str$GT$7into_py17heff705788fa8ad2fE', symObjAddr: 0x0, symBinAddr: 0x1DC0, symSize: 0x34 }
  - { offset: 0x1160, size: 0x8, addend: 0x0, symName: '__ZN4pyo311conversions3std6string125_$LT$impl$u20$pyo3..conversion..IntoPy$LT$pyo3..instance..Py$LT$pyo3..types..string..PyString$GT$$GT$$u20$for$u20$$RF$str$GT$7into_py17heff705788fa8ad2fE', symObjAddr: 0x0, symBinAddr: 0x1DC0, symSize: 0x34 }
  - { offset: 0x1781, size: 0x8, addend: 0x0, symName: '__ZN15crossbeam_utils12cache_padded20CachePadded$LT$T$GT$3new17hddff68bd515c5db0E', symObjAddr: 0x0, symBinAddr: 0x1DF4, symSize: 0x24 }
  - { offset: 0x2E9F, size: 0x8, addend: 0x0, symName: '__ZN95_$LT$crossbeam_utils..cache_padded..CachePadded$LT$T$GT$$u20$as$u20$core..ops..deref..Deref$GT$5deref17h2449bfd27153fcf0E', symObjAddr: 0x24, symBinAddr: 0x1E18, symSize: 0x14 }
  - { offset: 0x2ED4, size: 0x8, addend: 0x0, symName: '__ZN95_$LT$crossbeam_utils..cache_padded..CachePadded$LT$T$GT$$u20$as$u20$core..ops..deref..Deref$GT$5deref17h528f6d88cd2f763eE', symObjAddr: 0x38, symBinAddr: 0x1E2C, symSize: 0x14 }
  - { offset: 0x2F09, size: 0x8, addend: 0x0, symName: '__ZN95_$LT$crossbeam_utils..cache_padded..CachePadded$LT$T$GT$$u20$as$u20$core..ops..deref..Deref$GT$5deref17h77ac072771c7845bE', symObjAddr: 0x4C, symBinAddr: 0x1E40, symSize: 0x14 }
  - { offset: 0x2F3E, size: 0x8, addend: 0x0, symName: '__ZN95_$LT$crossbeam_utils..cache_padded..CachePadded$LT$T$GT$$u20$as$u20$core..ops..deref..Deref$GT$5deref17h8f82584929151959E', symObjAddr: 0x60, symBinAddr: 0x1E54, symSize: 0x14 }
  - { offset: 0x2F73, size: 0x8, addend: 0x0, symName: '__ZN95_$LT$crossbeam_utils..cache_padded..CachePadded$LT$T$GT$$u20$as$u20$core..ops..deref..Deref$GT$5deref17h91ffc5d66cba7a49E', symObjAddr: 0x74, symBinAddr: 0x1E68, symSize: 0x14 }
  - { offset: 0x2FAE, size: 0x8, addend: 0x0, symName: '__ZN98_$LT$crossbeam_utils..cache_padded..CachePadded$LT$T$GT$$u20$as$u20$core..ops..deref..DerefMut$GT$9deref_mut17h007b313eb315b5bbE', symObjAddr: 0x88, symBinAddr: 0x1E7C, symSize: 0x14 }
  - { offset: 0x2FE3, size: 0x8, addend: 0x0, symName: '__ZN98_$LT$crossbeam_utils..cache_padded..CachePadded$LT$T$GT$$u20$as$u20$core..ops..deref..DerefMut$GT$9deref_mut17ha57e2b465124e0b0E', symObjAddr: 0x9C, symBinAddr: 0x1E90, symSize: 0x14 }
  - { offset: 0x3018, size: 0x8, addend: 0x0, symName: '__ZN98_$LT$crossbeam_utils..cache_padded..CachePadded$LT$T$GT$$u20$as$u20$core..ops..deref..DerefMut$GT$9deref_mut17he3328070804d05eeE', symObjAddr: 0xB0, symBinAddr: 0x1EA4, symSize: 0x14 }
  - { offset: 0x304D, size: 0x8, addend: 0x0, symName: '__ZN98_$LT$crossbeam_utils..cache_padded..CachePadded$LT$T$GT$$u20$as$u20$core..ops..deref..DerefMut$GT$9deref_mut17hf154cac14c242b27E', symObjAddr: 0xC4, symBinAddr: 0x1EB8, symSize: 0x14 }
  - { offset: 0x3129, size: 0x8, addend: 0x0, symName: '__ZN15crossbeam_utils12cache_padded20CachePadded$LT$T$GT$3new17hddff68bd515c5db0E', symObjAddr: 0x0, symBinAddr: 0x1DF4, symSize: 0x24 }
  - { offset: 0x4270, size: 0x8, addend: 0x0, symName: '__ZN88_$LT$crossbeam_channel..flavors..array..ArrayToken$u20$as$u20$core..default..Default$GT$7default17h5285c108f10636f4E', symObjAddr: 0x0, symBinAddr: 0x1ECC, symSize: 0xC }
  - { offset: 0x4291, size: 0x8, addend: 0x0, symName: '__ZN88_$LT$crossbeam_channel..flavors..array..ArrayToken$u20$as$u20$core..default..Default$GT$7default17h5285c108f10636f4E', symObjAddr: 0x0, symBinAddr: 0x1ECC, symSize: 0xC }
  - { offset: 0x430C, size: 0x8, addend: 0x0, symName: __ZN4core4iter6traits8iterator8Iterator6copied17h29ba6e4a2a85782fE, symObjAddr: 0x0, symBinAddr: 0x1ED8, symSize: 0x1C }
  - { offset: 0x4AF3, size: 0x8, addend: 0x0, symName: __ZN4core4iter6traits8iterator8Iterator6copied17h29ba6e4a2a85782fE, symObjAddr: 0x0, symBinAddr: 0x1ED8, symSize: 0x1C }
  - { offset: 0x4B33, size: 0x8, addend: 0x0, symName: __ZN4core4iter6traits8iterator8Iterator8try_fold17h147ef771f0e85263E, symObjAddr: 0x1C, symBinAddr: 0x1EF4, symSize: 0x178 }
  - { offset: 0x4BE6, size: 0x8, addend: 0x0, symName: __ZN4core4iter6traits8iterator8Iterator9enumerate17h5924d8ad8e3bbb42E, symObjAddr: 0x194, symBinAddr: 0x206C, symSize: 0x28 }
  - { offset: 0x4C5D, size: 0x8, addend: 0x0, symName: '__ZN63_$LT$I$u20$as$u20$core..iter..traits..collect..IntoIterator$GT$9into_iter17h1bb5e2c3ad5a48e7E', symObjAddr: 0x264, symBinAddr: 0x213C, symSize: 0x1C }
  - { offset: 0x4DF7, size: 0x8, addend: 0x0, symName: '__ZN91_$LT$core..slice..iter..Iter$LT$T$GT$$u20$as$u20$core..iter..traits..iterator..Iterator$GT$4next17h2f1ab671c633699bE', symObjAddr: 0x280, symBinAddr: 0x2158, symSize: 0xA8 }
  - { offset: 0x4F31, size: 0x8, addend: 0x0, symName: '__ZN91_$LT$core..slice..iter..Iter$LT$T$GT$$u20$as$u20$core..iter..traits..iterator..Iterator$GT$4next17hd212ddbda679b725E', symObjAddr: 0x328, symBinAddr: 0x2200, symSize: 0xA8 }
  - { offset: 0x506B, size: 0x8, addend: 0x0, symName: '__ZN91_$LT$core..slice..iter..Iter$LT$T$GT$$u20$as$u20$core..iter..traits..iterator..Iterator$GT$4next17he531a6d2f64e84e6E', symObjAddr: 0x3D0, symBinAddr: 0x22A8, symSize: 0xA8 }
  - { offset: 0x51A5, size: 0x8, addend: 0x0, symName: '__ZN91_$LT$core..slice..iter..Iter$LT$T$GT$$u20$as$u20$core..iter..traits..iterator..Iterator$GT$8position17h27e0fa3421aa32f5E', symObjAddr: 0x478, symBinAddr: 0x2350, symSize: 0x188 }
  - { offset: 0x5263, size: 0x8, addend: 0x0, symName: '__ZN91_$LT$core..slice..iter..Iter$LT$T$GT$$u20$as$u20$core..iter..traits..iterator..Iterator$GT$8position17h7bba02576b3a3473E', symObjAddr: 0x600, symBinAddr: 0x24D8, symSize: 0x188 }
  - { offset: 0x5321, size: 0x8, addend: 0x0, symName: '__ZN91_$LT$core..slice..iter..Iter$LT$T$GT$$u20$as$u20$core..iter..traits..iterator..Iterator$GT$8position17h7f2cd0349746c641E', symObjAddr: 0x788, symBinAddr: 0x2660, symSize: 0x188 }
  - { offset: 0x6B11, size: 0x8, addend: 0x0, symName: '__ZN4core5slice4iter13Iter$LT$T$GT$3new17h28d9cd1626338bbfE', symObjAddr: 0x1BC, symBinAddr: 0x2094, symSize: 0x58 }
  - { offset: 0x72D8, size: 0x8, addend: 0x0, symName: '__ZN4core5slice4iter13Iter$LT$T$GT$3new17h4ddb59e39786b2a7E', symObjAddr: 0x214, symBinAddr: 0x20EC, symSize: 0x50 }
  - { offset: 0x75FC, size: 0x8, addend: 0x0, symName: __ZN4core5slice3raw14from_raw_parts17hacba899522b01e93E, symObjAddr: 0x0, symBinAddr: 0x27E8, symSize: 0x58 }
  - { offset: 0x7DD9, size: 0x8, addend: 0x0, symName: __ZN4core5slice3raw14from_raw_parts17hacba899522b01e93E, symObjAddr: 0x0, symBinAddr: 0x27E8, symSize: 0x58 }
  - { offset: 0x7E1C, size: 0x8, addend: 0x0, symName: __ZN4core5slice3raw14from_raw_parts17hb34d0e4a3da98a45E, symObjAddr: 0x58, symBinAddr: 0x2840, symSize: 0x58 }
  - { offset: 0x8E70, size: 0x8, addend: 0x0, symName: '__ZN4core3ptr8non_null16NonNull$LT$T$GT$13new_unchecked18precondition_check17h69bbae8fdc58d947E', symObjAddr: 0x0, symBinAddr: 0x2898, symSize: 0xA4 }
  - { offset: 0x90F2, size: 0x8, addend: 0x0, symName: '__ZN4core3ptr8non_null16NonNull$LT$T$GT$13new_unchecked18precondition_check17h69bbae8fdc58d947E', symObjAddr: 0x0, symBinAddr: 0x2898, symSize: 0xA4 }
  - { offset: 0x939F, size: 0x8, addend: 0x0, symName: __ZN4pyo35impl_4wrap19map_result_into_ptr17h4f3c0651fa3ece3aE, symObjAddr: 0x0, symBinAddr: 0x293C, symSize: 0x20 }
  - { offset: 0xA966, size: 0x8, addend: 0x0, symName: __ZN4pyo35impl_4wrap19map_result_into_ptr17h4f3c0651fa3ece3aE, symObjAddr: 0x0, symBinAddr: 0x293C, symSize: 0x20 }
  - { offset: 0xA9B5, size: 0x8, addend: 0x0, symName: __ZN4pyo35impl_4wrap19map_result_into_ptr17h5cf4440b8a9d38e8E, symObjAddr: 0x20, symBinAddr: 0x295C, symSize: 0x20 }
  - { offset: 0xAA04, size: 0x8, addend: 0x0, symName: __ZN4pyo35impl_4wrap19map_result_into_ptr17h6e01a6adad17709eE, symObjAddr: 0x40, symBinAddr: 0x297C, symSize: 0x20 }
  - { offset: 0xAA53, size: 0x8, addend: 0x0, symName: __ZN4pyo35impl_4wrap19map_result_into_ptr17hdc68eeece28c0969E, symObjAddr: 0x60, symBinAddr: 0x299C, symSize: 0x20 }
  - { offset: 0xAAA7, size: 0x8, addend: 0x0, symName: '__ZN4pyo35impl_4wrap19map_result_into_ptr28_$u7b$$u7b$closure$u7d$$u7d$17h61b2f46330ce887aE', symObjAddr: 0x80, symBinAddr: 0x29BC, symSize: 0x2C }
  - { offset: 0xAAF6, size: 0x8, addend: 0x0, symName: '__ZN4pyo35impl_4wrap19map_result_into_ptr28_$u7b$$u7b$closure$u7d$$u7d$17h6426a959c2c43e74E', symObjAddr: 0xAC, symBinAddr: 0x29E8, symSize: 0x28 }
  - { offset: 0xAB44, size: 0x8, addend: 0x0, symName: '__ZN4pyo35impl_4wrap19map_result_into_ptr28_$u7b$$u7b$closure$u7d$$u7d$17h71027096e548bd83E', symObjAddr: 0xD4, symBinAddr: 0x2A10, symSize: 0x34 }
  - { offset: 0xAB92, size: 0x8, addend: 0x0, symName: '__ZN4pyo35impl_4wrap19map_result_into_ptr28_$u7b$$u7b$closure$u7d$$u7d$17hc14435de76c51f5aE', symObjAddr: 0x108, symBinAddr: 0x2A44, symSize: 0x30 }
  - { offset: 0xAC32, size: 0x8, addend: 0x0, symName: '__ZN56_$LT$T$u20$as$u20$pyo3..impl_..wrap..OkWrap$LT$T$GT$$GT$4wrap17h83ea4b2dbb85650aE', symObjAddr: 0x138, symBinAddr: 0x2A74, symSize: 0x10 }
  - { offset: 0xAC67, size: 0x8, addend: 0x0, symName: '__ZN56_$LT$T$u20$as$u20$pyo3..impl_..wrap..OkWrap$LT$T$GT$$GT$4wrap17h99fb7592af563ad8E', symObjAddr: 0x148, symBinAddr: 0x2A84, symSize: 0x10 }
  - { offset: 0xB44C, size: 0x8, addend: 0x0, symName: __ZN4core4hint16assert_unchecked18precondition_check17hcaa10c5ecb34f45fE, symObjAddr: 0x0, symBinAddr: 0x2A94, symSize: 0xA4 }
  - { offset: 0xB76E, size: 0x8, addend: 0x0, symName: __ZN4core4hint16assert_unchecked18precondition_check17hcaa10c5ecb34f45fE, symObjAddr: 0x0, symBinAddr: 0x2A94, symSize: 0xA4 }
  - { offset: 0xB7CE, size: 0x8, addend: 0x0, symName: __ZN4core4hint21unreachable_unchecked18precondition_check17h3ba7a44dbfd44d84E, symObjAddr: 0xA4, symBinAddr: 0x2B38, symSize: 0x84 }
  - { offset: 0xB9E1, size: 0x8, addend: 0x0, symName: '__ZN4core4cell13Cell$LT$T$GT$3new17h54ccc0b899883f8aE', symObjAddr: 0x0, symBinAddr: 0x2BBC, symSize: 0x10 }
  - { offset: 0xBA83, size: 0x8, addend: 0x0, symName: '__ZN4core4cell13Cell$LT$T$GT$3new17h54ccc0b899883f8aE', symObjAddr: 0x0, symBinAddr: 0x2BBC, symSize: 0x10 }
  - { offset: 0xBACD, size: 0x8, addend: 0x0, symName: '__ZN9rust_core9rust_core11__pyo3_init28_$u7b$$u7b$closure$u7d$$u7d$17hb0356a7cfdfbba3cE', symObjAddr: 0x0, symBinAddr: 0x2BCC, symSize: 0x28 }
  - { offset: 0xCD1D, size: 0x8, addend: 0x0, symName: '__ZN9rust_core9rust_core11__pyo3_init28_$u7b$$u7b$closure$u7d$$u7d$17hb0356a7cfdfbba3cE', symObjAddr: 0x0, symBinAddr: 0x2BCC, symSize: 0x28 }
  - { offset: 0xD44D, size: 0x8, addend: 0x0, symName: __ZN17crossbeam_channel7context7Context4with17h091bb16471f8c9daE, symObjAddr: 0x0, symBinAddr: 0x2BF4, symSize: 0xA0 }
  - { offset: 0xF956, size: 0x8, addend: 0x0, symName: '__ZN17crossbeam_channel7context7Context4with28_$u7b$$u7b$closure$u7d$$u7d$17h0669cb1f3eae812dE', symObjAddr: 0x6E8, symBinAddr: 0x32DC, symSize: 0x128 }
  - { offset: 0xF9D2, size: 0x8, addend: 0x0, symName: '__ZN17crossbeam_channel7context7Context4with28_$u7b$$u7b$closure$u7d$$u7d$17h0bd0ae3411866587E', symObjAddr: 0x810, symBinAddr: 0x3404, symSize: 0x70 }
  - { offset: 0xFA57, size: 0x8, addend: 0x0, symName: '__ZN17crossbeam_channel7context7Context4with28_$u7b$$u7b$closure$u7d$$u7d$17h0ec4b8fc62454976E', symObjAddr: 0x880, symBinAddr: 0x3474, symSize: 0x150 }
  - { offset: 0xFACF, size: 0x8, addend: 0x0, symName: '__ZN17crossbeam_channel7context7Context4with28_$u7b$$u7b$closure$u7d$$u7d$17h237989025a83b355E', symObjAddr: 0x9D0, symBinAddr: 0x35C4, symSize: 0x148 }
  - { offset: 0xFB47, size: 0x8, addend: 0x0, symName: '__ZN17crossbeam_channel7context7Context4with28_$u7b$$u7b$closure$u7d$$u7d$17h2576c20448ce0e6bE', symObjAddr: 0xB18, symBinAddr: 0x370C, symSize: 0x128 }
  - { offset: 0xFBC3, size: 0x8, addend: 0x0, symName: '__ZN17crossbeam_channel7context7Context4with28_$u7b$$u7b$closure$u7d$$u7d$17h2d28924db0bb9f37E', symObjAddr: 0xC40, symBinAddr: 0x3834, symSize: 0x74 }
  - { offset: 0xFC0D, size: 0x8, addend: 0x0, symName: '__ZN17crossbeam_channel7context7Context4with28_$u7b$$u7b$closure$u7d$$u7d$17h35abd50d757f9289E', symObjAddr: 0xCB4, symBinAddr: 0x38A8, symSize: 0x84 }
  - { offset: 0xFC97, size: 0x8, addend: 0x0, symName: '__ZN17crossbeam_channel7context7Context4with28_$u7b$$u7b$closure$u7d$$u7d$17h39e1a72bac01a6b0E', symObjAddr: 0xD38, symBinAddr: 0x392C, symSize: 0x6C }
  - { offset: 0xFCDD, size: 0x8, addend: 0x0, symName: '__ZN17crossbeam_channel7context7Context4with28_$u7b$$u7b$closure$u7d$$u7d$17h45f60bda9f882c9aE', symObjAddr: 0xDA4, symBinAddr: 0x3998, symSize: 0x128 }
  - { offset: 0xFD59, size: 0x8, addend: 0x0, symName: '__ZN17crossbeam_channel7context7Context4with28_$u7b$$u7b$closure$u7d$$u7d$17h49a2cc56fdd5c38cE', symObjAddr: 0xECC, symBinAddr: 0x3AC0, symSize: 0x150 }
  - { offset: 0xFDD1, size: 0x8, addend: 0x0, symName: '__ZN17crossbeam_channel7context7Context4with28_$u7b$$u7b$closure$u7d$$u7d$17h4b5c020165c268a3E', symObjAddr: 0x101C, symBinAddr: 0x3C10, symSize: 0x80 }
  - { offset: 0xFE5A, size: 0x8, addend: 0x0, symName: '__ZN17crossbeam_channel7context7Context4with28_$u7b$$u7b$closure$u7d$$u7d$17h4d650648b3314664E', symObjAddr: 0x109C, symBinAddr: 0x3C90, symSize: 0x6C }
  - { offset: 0xFEA0, size: 0x8, addend: 0x0, symName: '__ZN17crossbeam_channel7context7Context4with28_$u7b$$u7b$closure$u7d$$u7d$17h5691259e3a222399E', symObjAddr: 0x1108, symBinAddr: 0x3CFC, symSize: 0x6C }
  - { offset: 0xFEE6, size: 0x8, addend: 0x0, symName: '__ZN17crossbeam_channel7context7Context4with28_$u7b$$u7b$closure$u7d$$u7d$17h5a9bc571c4be5347E', symObjAddr: 0x1174, symBinAddr: 0x3D68, symSize: 0x74 }
  - { offset: 0xFF30, size: 0x8, addend: 0x0, symName: '__ZN17crossbeam_channel7context7Context4with28_$u7b$$u7b$closure$u7d$$u7d$17h69c89eec21ddf9e5E', symObjAddr: 0x11E8, symBinAddr: 0x3DDC, symSize: 0x128 }
  - { offset: 0xFFAC, size: 0x8, addend: 0x0, symName: '__ZN17crossbeam_channel7context7Context4with28_$u7b$$u7b$closure$u7d$$u7d$17h71a9f22bc9ac9bf1E', symObjAddr: 0x1310, symBinAddr: 0x3F04, symSize: 0x128 }
  - { offset: 0x10028, size: 0x8, addend: 0x0, symName: '__ZN17crossbeam_channel7context7Context4with28_$u7b$$u7b$closure$u7d$$u7d$17h7bbca13f795d91f8E', symObjAddr: 0x1438, symBinAddr: 0x402C, symSize: 0x70 }
  - { offset: 0x100AD, size: 0x8, addend: 0x0, symName: '__ZN17crossbeam_channel7context7Context4with28_$u7b$$u7b$closure$u7d$$u7d$17h7f1e8cc4072bad44E', symObjAddr: 0x14A8, symBinAddr: 0x409C, symSize: 0x150 }
  - { offset: 0x10125, size: 0x8, addend: 0x0, symName: '__ZN17crossbeam_channel7context7Context4with28_$u7b$$u7b$closure$u7d$$u7d$17h7fc5a751f81b7615E', symObjAddr: 0x15F8, symBinAddr: 0x41EC, symSize: 0x128 }
  - { offset: 0x101A1, size: 0x8, addend: 0x0, symName: '__ZN17crossbeam_channel7context7Context4with28_$u7b$$u7b$closure$u7d$$u7d$17h87075810965b4af0E', symObjAddr: 0x1720, symBinAddr: 0x4314, symSize: 0x74 }
  - { offset: 0x101EB, size: 0x8, addend: 0x0, symName: '__ZN17crossbeam_channel7context7Context4with28_$u7b$$u7b$closure$u7d$$u7d$17h97895717bdabbe4dE', symObjAddr: 0x1794, symBinAddr: 0x4388, symSize: 0x74 }
  - { offset: 0x10235, size: 0x8, addend: 0x0, symName: '__ZN17crossbeam_channel7context7Context4with28_$u7b$$u7b$closure$u7d$$u7d$17h9824e86e6c7ef76bE', symObjAddr: 0x1808, symBinAddr: 0x43FC, symSize: 0x70 }
  - { offset: 0x102BA, size: 0x8, addend: 0x0, symName: '__ZN17crossbeam_channel7context7Context4with28_$u7b$$u7b$closure$u7d$$u7d$17h9fe3408053f1f3e8E', symObjAddr: 0x1878, symBinAddr: 0x446C, symSize: 0x128 }
  - { offset: 0x10336, size: 0x8, addend: 0x0, symName: '__ZN17crossbeam_channel7context7Context4with28_$u7b$$u7b$closure$u7d$$u7d$17ha195a51b214b32b8E', symObjAddr: 0x19A0, symBinAddr: 0x4594, symSize: 0x70 }
  - { offset: 0x103BB, size: 0x8, addend: 0x0, symName: '__ZN17crossbeam_channel7context7Context4with28_$u7b$$u7b$closure$u7d$$u7d$17ha3897245b036363bE', symObjAddr: 0x1A10, symBinAddr: 0x4604, symSize: 0x6C }
  - { offset: 0x10401, size: 0x8, addend: 0x0, symName: '__ZN17crossbeam_channel7context7Context4with28_$u7b$$u7b$closure$u7d$$u7d$17haa724c88fc209256E', symObjAddr: 0x1A7C, symBinAddr: 0x4670, symSize: 0x6C }
  - { offset: 0x10447, size: 0x8, addend: 0x0, symName: '__ZN17crossbeam_channel7context7Context4with28_$u7b$$u7b$closure$u7d$$u7d$17hc09e916620a7025aE', symObjAddr: 0x1AE8, symBinAddr: 0x46DC, symSize: 0x70 }
  - { offset: 0x104CC, size: 0x8, addend: 0x0, symName: '__ZN17crossbeam_channel7context7Context4with28_$u7b$$u7b$closure$u7d$$u7d$17hcbb9de93db9a0431E', symObjAddr: 0x1B58, symBinAddr: 0x474C, symSize: 0x70 }
  - { offset: 0x10551, size: 0x8, addend: 0x0, symName: '__ZN17crossbeam_channel7context7Context4with28_$u7b$$u7b$closure$u7d$$u7d$17hccf55c9244e71b1aE', symObjAddr: 0x1BC8, symBinAddr: 0x47BC, symSize: 0x80 }
  - { offset: 0x105DA, size: 0x8, addend: 0x0, symName: '__ZN17crossbeam_channel7context7Context4with28_$u7b$$u7b$closure$u7d$$u7d$17hce73c40f74f0cf36E', symObjAddr: 0x1C48, symBinAddr: 0x483C, symSize: 0x6C }
  - { offset: 0x10620, size: 0x8, addend: 0x0, symName: '__ZN17crossbeam_channel7context7Context4with28_$u7b$$u7b$closure$u7d$$u7d$17hd0992d9dc0784799E', symObjAddr: 0x1CB4, symBinAddr: 0x48A8, symSize: 0x6C }
  - { offset: 0x10666, size: 0x8, addend: 0x0, symName: '__ZN17crossbeam_channel7context7Context4with28_$u7b$$u7b$closure$u7d$$u7d$17hd0bac4ae44101b40E', symObjAddr: 0x1D20, symBinAddr: 0x4914, symSize: 0x80 }
  - { offset: 0x106EF, size: 0x8, addend: 0x0, symName: '__ZN17crossbeam_channel7context7Context4with28_$u7b$$u7b$closure$u7d$$u7d$17hd489d6ca27347a65E', symObjAddr: 0x1DA0, symBinAddr: 0x4994, symSize: 0x6C }
  - { offset: 0x10735, size: 0x8, addend: 0x0, symName: '__ZN17crossbeam_channel7context7Context4with28_$u7b$$u7b$closure$u7d$$u7d$17he96a61bb3f51a306E', symObjAddr: 0x1E0C, symBinAddr: 0x4A00, symSize: 0x128 }
  - { offset: 0x107B1, size: 0x8, addend: 0x0, symName: '__ZN17crossbeam_channel7context7Context4with28_$u7b$$u7b$closure$u7d$$u7d$17he9d054f4a8a236beE', symObjAddr: 0x1F34, symBinAddr: 0x4B28, symSize: 0x88 }
  - { offset: 0x1083B, size: 0x8, addend: 0x0, symName: '__ZN17crossbeam_channel7context7Context4with28_$u7b$$u7b$closure$u7d$$u7d$17hee026fb2d2694822E', symObjAddr: 0x1FBC, symBinAddr: 0x4BB0, symSize: 0x70 }
  - { offset: 0x108C0, size: 0x8, addend: 0x0, symName: '__ZN17crossbeam_channel7context7Context4with28_$u7b$$u7b$closure$u7d$$u7d$17hee1267762a473ec2E', symObjAddr: 0x202C, symBinAddr: 0x4C20, symSize: 0x70 }
  - { offset: 0x10945, size: 0x8, addend: 0x0, symName: '__ZN17crossbeam_channel7context7Context4with28_$u7b$$u7b$closure$u7d$$u7d$17hf20c308d53a805bbE', symObjAddr: 0x209C, symBinAddr: 0x4C90, symSize: 0x74 }
  - { offset: 0x1098F, size: 0x8, addend: 0x0, symName: '__ZN17crossbeam_channel7context7Context4with28_$u7b$$u7b$closure$u7d$$u7d$17hf7ba9335f62c06aaE', symObjAddr: 0x2110, symBinAddr: 0x4D04, symSize: 0x150 }
  - { offset: 0x12159, size: 0x8, addend: 0x0, symName: __ZN17crossbeam_channel7context7Context4with17h091bb16471f8c9daE, symObjAddr: 0x0, symBinAddr: 0x2BF4, symSize: 0xA0 }
  - { offset: 0x121ED, size: 0x8, addend: 0x0, symName: __ZN17crossbeam_channel7context7Context4with17h14e8ff44731c8af7E, symObjAddr: 0xA0, symBinAddr: 0x2C94, symSize: 0x78 }
  - { offset: 0x12280, size: 0x8, addend: 0x0, symName: __ZN17crossbeam_channel7context7Context4with17h452158b042047633E, symObjAddr: 0x118, symBinAddr: 0x2D0C, symSize: 0x78 }
  - { offset: 0x122EC, size: 0x8, addend: 0x0, symName: __ZN17crossbeam_channel7context7Context4with17h55b4f1507a2361e6E, symObjAddr: 0x190, symBinAddr: 0x2D84, symSize: 0x78 }
  - { offset: 0x1234B, size: 0x8, addend: 0x0, symName: __ZN17crossbeam_channel7context7Context4with17h6aaeedccd10b39dbE, symObjAddr: 0x208, symBinAddr: 0x2DFC, symSize: 0x78 }
  - { offset: 0x123B7, size: 0x8, addend: 0x0, symName: __ZN17crossbeam_channel7context7Context4with17h8432790b830b448dE, symObjAddr: 0x280, symBinAddr: 0x2E74, symSize: 0xA0 }
  - { offset: 0x12416, size: 0x8, addend: 0x0, symName: __ZN17crossbeam_channel7context7Context4with17h8bdeb08c734f2369E, symObjAddr: 0x320, symBinAddr: 0x2F14, symSize: 0x78 }
  - { offset: 0x12482, size: 0x8, addend: 0x0, symName: __ZN17crossbeam_channel7context7Context4with17h9ec4d0448d635f28E, symObjAddr: 0x398, symBinAddr: 0x2F8C, symSize: 0xA0 }
  - { offset: 0x124E1, size: 0x8, addend: 0x0, symName: __ZN17crossbeam_channel7context7Context4with17hb5eed5963e08329eE, symObjAddr: 0x438, symBinAddr: 0x302C, symSize: 0xA8 }
  - { offset: 0x12568, size: 0x8, addend: 0x0, symName: __ZN17crossbeam_channel7context7Context4with17hc86c1e6f25a00ab1E, symObjAddr: 0x4E0, symBinAddr: 0x30D4, symSize: 0x78 }
  - { offset: 0x125C7, size: 0x8, addend: 0x0, symName: __ZN17crossbeam_channel7context7Context4with17hcfdcd5edbefbc56eE, symObjAddr: 0x558, symBinAddr: 0x314C, symSize: 0xA0 }
  - { offset: 0x1264D, size: 0x8, addend: 0x0, symName: __ZN17crossbeam_channel7context7Context4with17he2683f6425d1f086E, symObjAddr: 0x5F8, symBinAddr: 0x31EC, symSize: 0x78 }
  - { offset: 0x126B9, size: 0x8, addend: 0x0, symName: __ZN17crossbeam_channel7context7Context4with17hf031ffb3b7158e2eE, symObjAddr: 0x670, symBinAddr: 0x3264, symSize: 0x78 }
  - { offset: 0x12A71, size: 0x8, addend: 0x0, symName: '__ZN17crossbeam_channel7counter15Sender$LT$C$GT$7acquire17h50e24d973dc4ba9aE', symObjAddr: 0x0, symBinAddr: 0x4E54, symSize: 0x5C }
  - { offset: 0x14B49, size: 0x8, addend: 0x0, symName: __ZN17crossbeam_channel7counter3new17h0326104719b875e1E, symObjAddr: 0x212C, symBinAddr: 0x6F80, symSize: 0x1C8 }
  - { offset: 0x14BD9, size: 0x8, addend: 0x0, symName: __ZN17crossbeam_channel7counter3new17h28063d3d7b6cf4fcE, symObjAddr: 0x22F4, symBinAddr: 0x7148, symSize: 0x1C8 }
  - { offset: 0x14C69, size: 0x8, addend: 0x0, symName: __ZN17crossbeam_channel7counter3new17h6562c8475f0a5951E, symObjAddr: 0x24BC, symBinAddr: 0x7310, symSize: 0x1C4 }
  - { offset: 0x14CF7, size: 0x8, addend: 0x0, symName: __ZN17crossbeam_channel7counter3new17h74af1a823055051aE, symObjAddr: 0x2680, symBinAddr: 0x74D4, symSize: 0x1C4 }
  - { offset: 0x14D85, size: 0x8, addend: 0x0, symName: __ZN17crossbeam_channel7counter3new17h841324e455479de1E, symObjAddr: 0x2844, symBinAddr: 0x7698, symSize: 0x1C4 }
  - { offset: 0x14E13, size: 0x8, addend: 0x0, symName: __ZN17crossbeam_channel7counter3new17ha64def5ae2895c56E, symObjAddr: 0x2A08, symBinAddr: 0x785C, symSize: 0x1C8 }
  - { offset: 0x14EA8, size: 0x8, addend: 0x0, symName: '__ZN87_$LT$crossbeam_channel..counter..Sender$LT$C$GT$$u20$as$u20$core..ops..deref..Deref$GT$5deref17h0eea919a15ed1a0bE', symObjAddr: 0x2BD0, symBinAddr: 0x7A24, symSize: 0x24 }
  - { offset: 0x14EDD, size: 0x8, addend: 0x0, symName: '__ZN87_$LT$crossbeam_channel..counter..Sender$LT$C$GT$$u20$as$u20$core..ops..deref..Deref$GT$5deref17h21b17ff49013719aE', symObjAddr: 0x2BF4, symBinAddr: 0x7A48, symSize: 0x28 }
  - { offset: 0x14F12, size: 0x8, addend: 0x0, symName: '__ZN87_$LT$crossbeam_channel..counter..Sender$LT$C$GT$$u20$as$u20$core..ops..deref..Deref$GT$5deref17h2390fe25ee48b069E', symObjAddr: 0x2C1C, symBinAddr: 0x7A70, symSize: 0x24 }
  - { offset: 0x14F47, size: 0x8, addend: 0x0, symName: '__ZN87_$LT$crossbeam_channel..counter..Sender$LT$C$GT$$u20$as$u20$core..ops..deref..Deref$GT$5deref17h6f169b64897c14bdE', symObjAddr: 0x2C40, symBinAddr: 0x7A94, symSize: 0x24 }
  - { offset: 0x14F7C, size: 0x8, addend: 0x0, symName: '__ZN87_$LT$crossbeam_channel..counter..Sender$LT$C$GT$$u20$as$u20$core..ops..deref..Deref$GT$5deref17h8caade91517b31ffE', symObjAddr: 0x2C64, symBinAddr: 0x7AB8, symSize: 0x28 }
  - { offset: 0x14FB1, size: 0x8, addend: 0x0, symName: '__ZN87_$LT$crossbeam_channel..counter..Sender$LT$C$GT$$u20$as$u20$core..ops..deref..Deref$GT$5deref17hc10da8e3c6e4942bE', symObjAddr: 0x2C8C, symBinAddr: 0x7AE0, symSize: 0x24 }
  - { offset: 0x14FEC, size: 0x8, addend: 0x0, symName: '__ZN89_$LT$crossbeam_channel..counter..Receiver$LT$C$GT$$u20$as$u20$core..ops..deref..Deref$GT$5deref17h04c1bfd6ab344245E', symObjAddr: 0x2CB0, symBinAddr: 0x7B04, symSize: 0x28 }
  - { offset: 0x15021, size: 0x8, addend: 0x0, symName: '__ZN89_$LT$crossbeam_channel..counter..Receiver$LT$C$GT$$u20$as$u20$core..ops..deref..Deref$GT$5deref17h27568f43eb30e90eE', symObjAddr: 0x2CD8, symBinAddr: 0x7B2C, symSize: 0x28 }
  - { offset: 0x15056, size: 0x8, addend: 0x0, symName: '__ZN89_$LT$crossbeam_channel..counter..Receiver$LT$C$GT$$u20$as$u20$core..ops..deref..Deref$GT$5deref17h5a846eaf56ebef00E', symObjAddr: 0x2D00, symBinAddr: 0x7B54, symSize: 0x24 }
  - { offset: 0x1508B, size: 0x8, addend: 0x0, symName: '__ZN89_$LT$crossbeam_channel..counter..Receiver$LT$C$GT$$u20$as$u20$core..ops..deref..Deref$GT$5deref17h5d52b46ea2c12777E', symObjAddr: 0x2D24, symBinAddr: 0x7B78, symSize: 0x24 }
  - { offset: 0x150C0, size: 0x8, addend: 0x0, symName: '__ZN89_$LT$crossbeam_channel..counter..Receiver$LT$C$GT$$u20$as$u20$core..ops..deref..Deref$GT$5deref17h7cd154a2e641d3adE', symObjAddr: 0x2D48, symBinAddr: 0x7B9C, symSize: 0x28 }
  - { offset: 0x150F5, size: 0x8, addend: 0x0, symName: '__ZN89_$LT$crossbeam_channel..counter..Receiver$LT$C$GT$$u20$as$u20$core..ops..deref..Deref$GT$5deref17hb3e28c6c9d65a2d9E', symObjAddr: 0x2D70, symBinAddr: 0x7BC4, symSize: 0x24 }
  - { offset: 0x1512A, size: 0x8, addend: 0x0, symName: '__ZN89_$LT$crossbeam_channel..counter..Receiver$LT$C$GT$$u20$as$u20$core..ops..deref..Deref$GT$5deref17hbf493475702143c5E', symObjAddr: 0x2D94, symBinAddr: 0x7BE8, symSize: 0x24 }
  - { offset: 0x1515F, size: 0x8, addend: 0x0, symName: '__ZN89_$LT$crossbeam_channel..counter..Receiver$LT$C$GT$$u20$as$u20$core..ops..deref..Deref$GT$5deref17hd1bc8dea4ecd7730E', symObjAddr: 0x2DB8, symBinAddr: 0x7C0C, symSize: 0x24 }
  - { offset: 0x15194, size: 0x8, addend: 0x0, symName: '__ZN89_$LT$crossbeam_channel..counter..Receiver$LT$C$GT$$u20$as$u20$core..ops..deref..Deref$GT$5deref17hd40935f4b1ce1409E', symObjAddr: 0x2DDC, symBinAddr: 0x7C30, symSize: 0x24 }
  - { offset: 0x16500, size: 0x8, addend: 0x0, symName: '__ZN17crossbeam_channel7counter15Sender$LT$C$GT$7acquire17h50e24d973dc4ba9aE', symObjAddr: 0x0, symBinAddr: 0x4E54, symSize: 0x5C }
  - { offset: 0x16574, size: 0x8, addend: 0x0, symName: '__ZN17crossbeam_channel7counter15Sender$LT$C$GT$7acquire17h6dfa2aaf1a50c2beE', symObjAddr: 0x5C, symBinAddr: 0x4EB0, symSize: 0x5C }
  - { offset: 0x165CE, size: 0x8, addend: 0x0, symName: '__ZN17crossbeam_channel7counter15Sender$LT$C$GT$7acquire17he316a7f68377efd6E', symObjAddr: 0xB8, symBinAddr: 0x4F0C, symSize: 0x58 }
  - { offset: 0x1661B, size: 0x8, addend: 0x0, symName: '__ZN17crossbeam_channel7counter15Sender$LT$C$GT$7counter17h6015d215998b875fE', symObjAddr: 0x110, symBinAddr: 0x4F64, symSize: 0x70 }
  - { offset: 0x16660, size: 0x8, addend: 0x0, symName: '__ZN17crossbeam_channel7counter15Sender$LT$C$GT$7counter17h6ad6f5c36381bce5E', symObjAddr: 0x180, symBinAddr: 0x4FD4, symSize: 0x70 }
  - { offset: 0x16698, size: 0x8, addend: 0x0, symName: '__ZN17crossbeam_channel7counter15Sender$LT$C$GT$7counter17h7376086e2bac978bE', symObjAddr: 0x1F0, symBinAddr: 0x5044, symSize: 0x70 }
  - { offset: 0x166DD, size: 0x8, addend: 0x0, symName: '__ZN17crossbeam_channel7counter15Sender$LT$C$GT$7counter17h7edc75853f360ed0E', symObjAddr: 0x260, symBinAddr: 0x50B4, symSize: 0x70 }
  - { offset: 0x16722, size: 0x8, addend: 0x0, symName: '__ZN17crossbeam_channel7counter15Sender$LT$C$GT$7counter17hb1e538a042e44a83E', symObjAddr: 0x2D0, symBinAddr: 0x5124, symSize: 0x70 }
  - { offset: 0x16774, size: 0x8, addend: 0x0, symName: '__ZN17crossbeam_channel7counter15Sender$LT$C$GT$7counter17hea3840624bbf3845E', symObjAddr: 0x340, symBinAddr: 0x5194, symSize: 0x70 }
  - { offset: 0x167ED, size: 0x8, addend: 0x0, symName: '__ZN17crossbeam_channel7counter15Sender$LT$C$GT$7counter17heefb87a298faf9e5E', symObjAddr: 0x3B0, symBinAddr: 0x5204, symSize: 0x70 }
  - { offset: 0x16825, size: 0x8, addend: 0x0, symName: '__ZN17crossbeam_channel7counter15Sender$LT$C$GT$7counter17hf6c46dd97ca86bf7E', symObjAddr: 0x420, symBinAddr: 0x5274, symSize: 0x70 }
  - { offset: 0x16891, size: 0x8, addend: 0x0, symName: '__ZN17crossbeam_channel7counter15Sender$LT$C$GT$7counter17hfa5a8bf18bc7e78eE', symObjAddr: 0x490, symBinAddr: 0x52E4, symSize: 0x70 }
  - { offset: 0x168BC, size: 0x8, addend: 0x0, symName: '__ZN17crossbeam_channel7counter15Sender$LT$C$GT$7release17h1f8bb2b8a92c7ea4E', symObjAddr: 0x500, symBinAddr: 0x5354, symSize: 0x158 }
  - { offset: 0x168FE, size: 0x8, addend: 0x0, symName: '__ZN17crossbeam_channel7counter15Sender$LT$C$GT$7release17h3ed33e2e68bd4f8dE', symObjAddr: 0x658, symBinAddr: 0x54AC, symSize: 0x158 }
  - { offset: 0x16940, size: 0x8, addend: 0x0, symName: '__ZN17crossbeam_channel7counter15Sender$LT$C$GT$7release17h4895c9a4e790ad5bE', symObjAddr: 0x7B0, symBinAddr: 0x5604, symSize: 0x158 }
  - { offset: 0x16982, size: 0x8, addend: 0x0, symName: '__ZN17crossbeam_channel7counter15Sender$LT$C$GT$7release17h5537e787e8a48d25E', symObjAddr: 0x908, symBinAddr: 0x575C, symSize: 0x158 }
  - { offset: 0x169C4, size: 0x8, addend: 0x0, symName: '__ZN17crossbeam_channel7counter15Sender$LT$C$GT$7release17ha50aaef3338036dcE', symObjAddr: 0xA60, symBinAddr: 0x58B4, symSize: 0x158 }
  - { offset: 0x16A06, size: 0x8, addend: 0x0, symName: '__ZN17crossbeam_channel7counter15Sender$LT$C$GT$7release17hb343275c6ea4a7deE', symObjAddr: 0xBB8, symBinAddr: 0x5A0C, symSize: 0x158 }
  - { offset: 0x16A48, size: 0x8, addend: 0x0, symName: '__ZN17crossbeam_channel7counter15Sender$LT$C$GT$7release17hc29d5316c8a186b8E', symObjAddr: 0xD10, symBinAddr: 0x5B64, symSize: 0x158 }
  - { offset: 0x16A8A, size: 0x8, addend: 0x0, symName: '__ZN17crossbeam_channel7counter15Sender$LT$C$GT$7release17hc43caf74aee83947E', symObjAddr: 0xE68, symBinAddr: 0x5CBC, symSize: 0x158 }
  - { offset: 0x16ACC, size: 0x8, addend: 0x0, symName: '__ZN17crossbeam_channel7counter15Sender$LT$C$GT$7release17hd2648cd767033785E', symObjAddr: 0xFC0, symBinAddr: 0x5E14, symSize: 0x158 }
  - { offset: 0x16B1B, size: 0x8, addend: 0x0, symName: '__ZN17crossbeam_channel7counter17Receiver$LT$C$GT$7counter17h00847d701d91837dE', symObjAddr: 0x1118, symBinAddr: 0x5F6C, symSize: 0x70 }
  - { offset: 0x16B53, size: 0x8, addend: 0x0, symName: '__ZN17crossbeam_channel7counter17Receiver$LT$C$GT$7counter17h0a2479388fa2404bE', symObjAddr: 0x1188, symBinAddr: 0x5FDC, symSize: 0x70 }
  - { offset: 0x16B8B, size: 0x8, addend: 0x0, symName: '__ZN17crossbeam_channel7counter17Receiver$LT$C$GT$7counter17h196e03f2877c4403E', symObjAddr: 0x11F8, symBinAddr: 0x604C, symSize: 0x70 }
  - { offset: 0x16BC3, size: 0x8, addend: 0x0, symName: '__ZN17crossbeam_channel7counter17Receiver$LT$C$GT$7counter17h6d44385da76cb82fE', symObjAddr: 0x1268, symBinAddr: 0x60BC, symSize: 0x70 }
  - { offset: 0x16BFB, size: 0x8, addend: 0x0, symName: '__ZN17crossbeam_channel7counter17Receiver$LT$C$GT$7counter17h79ce25ef8e71e26aE', symObjAddr: 0x12D8, symBinAddr: 0x612C, symSize: 0x70 }
  - { offset: 0x16C33, size: 0x8, addend: 0x0, symName: '__ZN17crossbeam_channel7counter17Receiver$LT$C$GT$7counter17h893aa05bbc5e6f1fE', symObjAddr: 0x1348, symBinAddr: 0x619C, symSize: 0x70 }
  - { offset: 0x16C6B, size: 0x8, addend: 0x0, symName: '__ZN17crossbeam_channel7counter17Receiver$LT$C$GT$7counter17hc04d234ee992e664E', symObjAddr: 0x13B8, symBinAddr: 0x620C, symSize: 0x70 }
  - { offset: 0x16CA3, size: 0x8, addend: 0x0, symName: '__ZN17crossbeam_channel7counter17Receiver$LT$C$GT$7counter17hc1cf400fecf87999E', symObjAddr: 0x1428, symBinAddr: 0x627C, symSize: 0x70 }
  - { offset: 0x16CDB, size: 0x8, addend: 0x0, symName: '__ZN17crossbeam_channel7counter17Receiver$LT$C$GT$7counter17he3442a029bee7578E', symObjAddr: 0x1498, symBinAddr: 0x62EC, symSize: 0x70 }
  - { offset: 0x16D06, size: 0x8, addend: 0x0, symName: '__ZN17crossbeam_channel7counter17Receiver$LT$C$GT$7release17h19d82cb2cfd7875cE', symObjAddr: 0x1508, symBinAddr: 0x635C, symSize: 0x158 }
  - { offset: 0x16D48, size: 0x8, addend: 0x0, symName: '__ZN17crossbeam_channel7counter17Receiver$LT$C$GT$7release17h251687eb684efb89E', symObjAddr: 0x1660, symBinAddr: 0x64B4, symSize: 0x158 }
  - { offset: 0x16D8A, size: 0x8, addend: 0x0, symName: '__ZN17crossbeam_channel7counter17Receiver$LT$C$GT$7release17h2bda0918eced6bfdE', symObjAddr: 0x17B8, symBinAddr: 0x660C, symSize: 0x15C }
  - { offset: 0x16DCC, size: 0x8, addend: 0x0, symName: '__ZN17crossbeam_channel7counter17Receiver$LT$C$GT$7release17h448642fc73a37317E', symObjAddr: 0x1914, symBinAddr: 0x6768, symSize: 0x158 }
  - { offset: 0x16E0E, size: 0x8, addend: 0x0, symName: '__ZN17crossbeam_channel7counter17Receiver$LT$C$GT$7release17h4d43c773197e1edbE', symObjAddr: 0x1A6C, symBinAddr: 0x68C0, symSize: 0x15C }
  - { offset: 0x16E50, size: 0x8, addend: 0x0, symName: '__ZN17crossbeam_channel7counter17Receiver$LT$C$GT$7release17h62221e9df1fc2342E', symObjAddr: 0x1BC8, symBinAddr: 0x6A1C, symSize: 0x158 }
  - { offset: 0x16E92, size: 0x8, addend: 0x0, symName: '__ZN17crossbeam_channel7counter17Receiver$LT$C$GT$7release17hc44ecc3994b4301dE', symObjAddr: 0x1D20, symBinAddr: 0x6B74, symSize: 0x158 }
  - { offset: 0x16ED4, size: 0x8, addend: 0x0, symName: '__ZN17crossbeam_channel7counter17Receiver$LT$C$GT$7release17he856c58060121fc7E', symObjAddr: 0x1E78, symBinAddr: 0x6CCC, symSize: 0x15C }
  - { offset: 0x16F16, size: 0x8, addend: 0x0, symName: '__ZN17crossbeam_channel7counter17Receiver$LT$C$GT$7release17hf9110232c61c9f7fE', symObjAddr: 0x1FD4, symBinAddr: 0x6E28, symSize: 0x158 }
  - { offset: 0x170ED, size: 0x8, addend: 0x0, symName: '__ZN4core3fmt2rt38_$LT$impl$u20$core..fmt..Arguments$GT$16new_v1_formatted17hf6aa265f66ef32e9E', symObjAddr: 0x0, symBinAddr: 0x7C54, symSize: 0x48 }
  - { offset: 0x17569, size: 0x8, addend: 0x0, symName: '__ZN4core3fmt2rt38_$LT$impl$u20$core..fmt..Arguments$GT$16new_v1_formatted17hf6aa265f66ef32e9E', symObjAddr: 0x0, symBinAddr: 0x7C54, symSize: 0x48 }
  - { offset: 0x175C5, size: 0x8, addend: 0x0, symName: '__ZN17crossbeam_channel5waker17current_thread_id28_$u7b$$u7b$closure$u7d$$u7d$17h754d01c089779c6eE', symObjAddr: 0x0, symBinAddr: 0x7C9C, symSize: 0x18 }
  - { offset: 0x175FF, size: 0x8, addend: 0x0, symName: '__ZN4core5slice29_$LT$impl$u20$$u5b$T$u5d$$GT$4iter17hd6102c3c5e49be83E', symObjAddr: 0x1D8, symBinAddr: 0x7E74, symSize: 0x28 }
  - { offset: 0x179FA, size: 0x8, addend: 0x0, symName: '__ZN17crossbeam_channel5waker17current_thread_id28_$u7b$$u7b$closure$u7d$$u7d$17h754d01c089779c6eE', symObjAddr: 0x0, symBinAddr: 0x7C9C, symSize: 0x18 }
  - { offset: 0x17A33, size: 0x8, addend: 0x0, symName: '__ZN17crossbeam_channel5waker17current_thread_id28_$u7b$$u7b$closure$u7d$$u7d$17hfb6f66aef7f32f02E', symObjAddr: 0x18, symBinAddr: 0x7CB4, symSize: 0x68 }
  - { offset: 0x17A72, size: 0x8, addend: 0x0, symName: '__ZN17crossbeam_channel5waker17current_thread_id9THREAD_ID29_$u7b$$u7b$constant$u7d$$u7d$28_$u7b$$u7b$closure$u7d$$u7d$17h01dff908f46c2abaE', symObjAddr: 0x80, symBinAddr: 0x7D1C, symSize: 0x34 }
  - { offset: 0x17ACA, size: 0x8, addend: 0x0, symName: '__ZN17crossbeam_channel5waker5Waker10try_select28_$u7b$$u7b$closure$u7d$$u7d$17h154db7d163fd9ad9E', symObjAddr: 0xB4, symBinAddr: 0x7D50, symSize: 0xB8 }
  - { offset: 0x17B07, size: 0x8, addend: 0x0, symName: '__ZN17crossbeam_channel5waker5Waker10try_select28_$u7b$$u7b$closure$u7d$$u7d$17ha5f0719bca5b3342E', symObjAddr: 0x16C, symBinAddr: 0x7E08, symSize: 0x30 }
  - { offset: 0x17B49, size: 0x8, addend: 0x0, symName: '__ZN17crossbeam_channel5waker5Waker10unregister28_$u7b$$u7b$closure$u7d$$u7d$17h4b36dc6738531851E', symObjAddr: 0x19C, symBinAddr: 0x7E38, symSize: 0x3C }
  - { offset: 0x1801A, size: 0x8, addend: 0x0, symName: '__ZN106_$LT$pyo3..impl_..extract_argument..NoVarargs$u20$as$u20$pyo3..impl_..extract_argument..VarargsHandler$GT$20handle_varargs_tuple17h40b7767269e54bf9E', symObjAddr: 0x0, symBinAddr: 0x7E9C, symSize: 0x94 }
  - { offset: 0x1971E, size: 0x8, addend: 0x0, symName: '__ZN106_$LT$pyo3..impl_..extract_argument..NoVarargs$u20$as$u20$pyo3..impl_..extract_argument..VarargsHandler$GT$20handle_varargs_tuple17h40b7767269e54bf9E', symObjAddr: 0x0, symBinAddr: 0x7E9C, symSize: 0x94 }
  - { offset: 0x19797, size: 0x8, addend: 0x0, symName: '__ZN106_$LT$pyo3..impl_..extract_argument..NoVarargs$u20$as$u20$pyo3..impl_..extract_argument..VarargsHandler$GT$23handle_varargs_fastcall17h7a224ab51d292ae3E', symObjAddr: 0x94, symBinAddr: 0x7F30, symSize: 0xA8 }
  - { offset: 0x1980B, size: 0x8, addend: 0x0, symName: '__ZN114_$LT$pyo3..impl_..extract_argument..NoVarkeywords$u20$as$u20$pyo3..impl_..extract_argument..VarkeywordsHandler$GT$17handle_varkeyword17h40431881575e13f9E', symObjAddr: 0x13C, symBinAddr: 0x7FD8, symSize: 0x60 }
  - { offset: 0x1994A, size: 0x8, addend: 0x0, symName: __ZN4pyo35impl_16extract_argument24unwrap_required_argument17h3ce04100ef7bf4b0E, symObjAddr: 0x538, symBinAddr: 0x83D4, symSize: 0x64 }
  - { offset: 0x19C90, size: 0x8, addend: 0x0, symName: __ZN4pyo35impl_16extract_argument19FunctionDescription36find_keyword_parameter_in_positional17hed8486be4095e65dE, symObjAddr: 0x19C, symBinAddr: 0x8038, symSize: 0x5C }
  - { offset: 0x19CC2, size: 0x8, addend: 0x0, symName: __ZN4pyo35impl_16extract_argument19FunctionDescription38find_keyword_parameter_in_keyword_only17h19f828b03dac18d2E, symObjAddr: 0x1F8, symBinAddr: 0x8094, symSize: 0x5C }
  - { offset: 0x1A1FF, size: 0x8, addend: 0x0, symName: __ZN4pyo35impl_16extract_argument19FunctionDescription44ensure_no_missing_required_keyword_arguments17hcde43fbcf4bcc325E, symObjAddr: 0x254, symBinAddr: 0x80F0, symSize: 0x154 }
  - { offset: 0x1A2CB, size: 0x8, addend: 0x0, symName: __ZN4pyo35impl_16extract_argument19FunctionDescription47ensure_no_missing_required_positional_arguments17h92bf27d9dbc935eaE, symObjAddr: 0x3A8, symBinAddr: 0x8244, symSize: 0x190 }
  - { offset: 0x1A460, size: 0x8, addend: 0x0, symName: __ZN8pyo3_ffi10boolobject7Py_True17hf707cda820142b37E, symObjAddr: 0x0, symBinAddr: 0x8438, symSize: 0xC }
  - { offset: 0x1A4FB, size: 0x8, addend: 0x0, symName: __ZN8pyo3_ffi10boolobject7Py_True17hf707cda820142b37E, symObjAddr: 0x0, symBinAddr: 0x8438, symSize: 0xC }
  - { offset: 0x1A518, size: 0x8, addend: 0x0, symName: __ZN8pyo3_ffi10boolobject8Py_False17h4770990f6a93acf0E, symObjAddr: 0xC, symBinAddr: 0x8444, symSize: 0xC }
  - { offset: 0x1B990, size: 0x8, addend: 0x0, symName: __ZN17crossbeam_channel6select9Operation4hook17h78642a0ad18a3ba7E, symObjAddr: 0x0, symBinAddr: 0x8450, symSize: 0x50 }
  - { offset: 0x1BBE6, size: 0x8, addend: 0x0, symName: __ZN17crossbeam_channel6select9Operation4hook17h78642a0ad18a3ba7E, symObjAddr: 0x0, symBinAddr: 0x8450, symSize: 0x50 }
  - { offset: 0x1BC4C, size: 0x8, addend: 0x0, symName: '__ZN153_$LT$core..result..Result$LT$T$C$F$GT$$u20$as$u20$core..ops..try_trait..FromResidual$LT$core..result..Result$LT$core..convert..Infallible$C$E$GT$$GT$$GT$13from_residual17h3dd1223a4d469b57E', symObjAddr: 0x0, symBinAddr: 0x84A0, symSize: 0x48 }
  - { offset: 0x1D9A1, size: 0x8, addend: 0x0, symName: '__ZN153_$LT$core..result..Result$LT$T$C$F$GT$$u20$as$u20$core..ops..try_trait..FromResidual$LT$core..result..Result$LT$core..convert..Infallible$C$E$GT$$GT$$GT$13from_residual17h3dd1223a4d469b57E', symObjAddr: 0x0, symBinAddr: 0x84A0, symSize: 0x48 }
  - { offset: 0x1DA26, size: 0x8, addend: 0x0, symName: '__ZN153_$LT$core..result..Result$LT$T$C$F$GT$$u20$as$u20$core..ops..try_trait..FromResidual$LT$core..result..Result$LT$core..convert..Infallible$C$E$GT$$GT$$GT$13from_residual17h3fe028b3f3b0cf23E', symObjAddr: 0x48, symBinAddr: 0x84E8, symSize: 0x48 }
  - { offset: 0x1DAAB, size: 0x8, addend: 0x0, symName: '__ZN153_$LT$core..result..Result$LT$T$C$F$GT$$u20$as$u20$core..ops..try_trait..FromResidual$LT$core..result..Result$LT$core..convert..Infallible$C$E$GT$$GT$$GT$13from_residual17h519494a3ebf2b7f0E', symObjAddr: 0x90, symBinAddr: 0x8530, symSize: 0x58 }
  - { offset: 0x1DB13, size: 0x8, addend: 0x0, symName: '__ZN153_$LT$core..result..Result$LT$T$C$F$GT$$u20$as$u20$core..ops..try_trait..FromResidual$LT$core..result..Result$LT$core..convert..Infallible$C$E$GT$$GT$$GT$13from_residual17h8e246a769388d049E', symObjAddr: 0xE8, symBinAddr: 0x8588, symSize: 0x48 }
  - { offset: 0x1DB98, size: 0x8, addend: 0x0, symName: '__ZN153_$LT$core..result..Result$LT$T$C$F$GT$$u20$as$u20$core..ops..try_trait..FromResidual$LT$core..result..Result$LT$core..convert..Infallible$C$E$GT$$GT$$GT$13from_residual17hd1d1cab3fdb40ae1E', symObjAddr: 0x130, symBinAddr: 0x85D0, symSize: 0x48 }
  - { offset: 0x1DC1D, size: 0x8, addend: 0x0, symName: '__ZN153_$LT$core..result..Result$LT$T$C$F$GT$$u20$as$u20$core..ops..try_trait..FromResidual$LT$core..result..Result$LT$core..convert..Infallible$C$E$GT$$GT$$GT$13from_residual17hfa30bb5efc1f255fE', symObjAddr: 0x178, symBinAddr: 0x8618, symSize: 0x48 }
  - { offset: 0x1F209, size: 0x8, addend: 0x0, symName: '__ZN4core6result23Result$LT$$RF$T$C$E$GT$6cloned28_$u7b$$u7b$closure$u7d$$u7d$17hfc23176cce107515E', symObjAddr: 0x1B40, symBinAddr: 0x9FE0, symSize: 0x24 }
  - { offset: 0x202B9, size: 0x8, addend: 0x0, symName: '__ZN79_$LT$core..result..Result$LT$T$C$E$GT$$u20$as$u20$core..ops..try_trait..Try$GT$6branch17h09d7659e3153b041E', symObjAddr: 0x1B64, symBinAddr: 0xA004, symSize: 0x70 }
  - { offset: 0x20337, size: 0x8, addend: 0x0, symName: '__ZN79_$LT$core..result..Result$LT$T$C$E$GT$$u20$as$u20$core..ops..try_trait..Try$GT$6branch17h28167ebe21299165E', symObjAddr: 0x1BD4, symBinAddr: 0xA074, symSize: 0x80 }
  - { offset: 0x203B5, size: 0x8, addend: 0x0, symName: '__ZN79_$LT$core..result..Result$LT$T$C$E$GT$$u20$as$u20$core..ops..try_trait..Try$GT$6branch17h4a7f515514634a7aE', symObjAddr: 0x1C54, symBinAddr: 0xA0F4, symSize: 0x8C }
  - { offset: 0x20433, size: 0x8, addend: 0x0, symName: '__ZN79_$LT$core..result..Result$LT$T$C$E$GT$$u20$as$u20$core..ops..try_trait..Try$GT$6branch17h5740e7f20423fe2bE', symObjAddr: 0x1CE0, symBinAddr: 0xA180, symSize: 0x80 }
  - { offset: 0x204B1, size: 0x8, addend: 0x0, symName: '__ZN79_$LT$core..result..Result$LT$T$C$E$GT$$u20$as$u20$core..ops..try_trait..Try$GT$6branch17h62fca829e1e34976E', symObjAddr: 0x1D60, symBinAddr: 0xA200, symSize: 0x94 }
  - { offset: 0x2052E, size: 0x8, addend: 0x0, symName: '__ZN79_$LT$core..result..Result$LT$T$C$E$GT$$u20$as$u20$core..ops..try_trait..Try$GT$6branch17h649b08fb5e686f25E', symObjAddr: 0x1DF4, symBinAddr: 0xA294, symSize: 0x80 }
  - { offset: 0x205AC, size: 0x8, addend: 0x0, symName: '__ZN79_$LT$core..result..Result$LT$T$C$E$GT$$u20$as$u20$core..ops..try_trait..Try$GT$6branch17h6770db8062cbf9fdE', symObjAddr: 0x1E74, symBinAddr: 0xA314, symSize: 0x88 }
  - { offset: 0x2062A, size: 0x8, addend: 0x0, symName: '__ZN79_$LT$core..result..Result$LT$T$C$E$GT$$u20$as$u20$core..ops..try_trait..Try$GT$6branch17h98277aceeaaaf671E', symObjAddr: 0x1EFC, symBinAddr: 0xA39C, symSize: 0x80 }
  - { offset: 0x206A8, size: 0x8, addend: 0x0, symName: '__ZN79_$LT$core..result..Result$LT$T$C$E$GT$$u20$as$u20$core..ops..try_trait..Try$GT$6branch17ha5fc2f02a5c95095E', symObjAddr: 0x1F7C, symBinAddr: 0xA41C, symSize: 0x8C }
  - { offset: 0x20726, size: 0x8, addend: 0x0, symName: '__ZN79_$LT$core..result..Result$LT$T$C$E$GT$$u20$as$u20$core..ops..try_trait..Try$GT$6branch17hebd28a0e8eb7cdfdE', symObjAddr: 0x2008, symBinAddr: 0xA4A8, symSize: 0x94 }
  - { offset: 0x22FFC, size: 0x8, addend: 0x0, symName: '__ZN88_$LT$core..result..Result$LT$T$C$E$GT$$u20$as$u20$pyo3..impl_..wrap..OkWrap$LT$T$GT$$GT$4wrap17h69807daee58add7bE', symObjAddr: 0x209C, symBinAddr: 0xA53C, symSize: 0x14 }
  - { offset: 0x2303A, size: 0x8, addend: 0x0, symName: '__ZN88_$LT$core..result..Result$LT$T$C$E$GT$$u20$as$u20$pyo3..impl_..wrap..OkWrap$LT$T$GT$$GT$4wrap17h9904a88df79c45bfE', symObjAddr: 0x20B0, symBinAddr: 0xA550, symSize: 0x14 }
  - { offset: 0x23078, size: 0x8, addend: 0x0, symName: '__ZN88_$LT$core..result..Result$LT$T$C$E$GT$$u20$as$u20$pyo3..impl_..wrap..OkWrap$LT$T$GT$$GT$4wrap17hdd165612ad217298E', symObjAddr: 0x20C4, symBinAddr: 0xA564, symSize: 0x14 }
  - { offset: 0x2372E, size: 0x8, addend: 0x0, symName: '__ZN4core6result19Result$LT$T$C$E$GT$14unwrap_or_else17h18d1c46c74a9ee39E', symObjAddr: 0x1C0, symBinAddr: 0x8660, symSize: 0x84 }
  - { offset: 0x23ED3, size: 0x8, addend: 0x0, symName: '__ZN4core6result19Result$LT$T$C$E$GT$14unwrap_or_else17h200b0d63a9896c66E', symObjAddr: 0x244, symBinAddr: 0x86E4, symSize: 0x40 }
  - { offset: 0x2407C, size: 0x8, addend: 0x0, symName: '__ZN4core6result19Result$LT$T$C$E$GT$14unwrap_or_else17h25561b60965d9d9bE', symObjAddr: 0x284, symBinAddr: 0x8724, symSize: 0x40 }
  - { offset: 0x24101, size: 0x8, addend: 0x0, symName: '__ZN4core6result19Result$LT$T$C$E$GT$14unwrap_or_else17h25b4c43841f35435E', symObjAddr: 0x2C4, symBinAddr: 0x8764, symSize: 0x40 }
  - { offset: 0x241A0, size: 0x8, addend: 0x0, symName: '__ZN4core6result19Result$LT$T$C$E$GT$14unwrap_or_else17h269d5d3cb2a557c7E', symObjAddr: 0x304, symBinAddr: 0x87A4, symSize: 0x80 }
  - { offset: 0x24244, size: 0x8, addend: 0x0, symName: '__ZN4core6result19Result$LT$T$C$E$GT$14unwrap_or_else17h377f448da024f54eE', symObjAddr: 0x384, symBinAddr: 0x8824, symSize: 0x40 }
  - { offset: 0x242F0, size: 0x8, addend: 0x0, symName: '__ZN4core6result19Result$LT$T$C$E$GT$14unwrap_or_else17h465166578edbe431E', symObjAddr: 0x3C4, symBinAddr: 0x8864, symSize: 0x40 }
  - { offset: 0x2439C, size: 0x8, addend: 0x0, symName: '__ZN4core6result19Result$LT$T$C$E$GT$14unwrap_or_else17h53c4cccb9072ceffE', symObjAddr: 0x404, symBinAddr: 0x88A4, symSize: 0x40 }
  - { offset: 0x24421, size: 0x8, addend: 0x0, symName: '__ZN4core6result19Result$LT$T$C$E$GT$14unwrap_or_else17h551830012372e5ceE', symObjAddr: 0x444, symBinAddr: 0x88E4, symSize: 0x80 }
  - { offset: 0x244D2, size: 0x8, addend: 0x0, symName: '__ZN4core6result19Result$LT$T$C$E$GT$14unwrap_or_else17h5da8277aef1d605aE', symObjAddr: 0x4C4, symBinAddr: 0x8964, symSize: 0x7C }
  - { offset: 0x24583, size: 0x8, addend: 0x0, symName: '__ZN4core6result19Result$LT$T$C$E$GT$14unwrap_or_else17h72c2acf3304d2f8fE', symObjAddr: 0x540, symBinAddr: 0x89E0, symSize: 0x40 }
  - { offset: 0x24615, size: 0x8, addend: 0x0, symName: '__ZN4core6result19Result$LT$T$C$E$GT$14unwrap_or_else17hd9087fa427b115c2E', symObjAddr: 0x580, symBinAddr: 0x8A20, symSize: 0x40 }
  - { offset: 0x246A7, size: 0x8, addend: 0x0, symName: '__ZN4core6result19Result$LT$T$C$E$GT$14unwrap_or_else17hdf74a660b1026f7dE', symObjAddr: 0x5C0, symBinAddr: 0x8A60, symSize: 0x6C }
  - { offset: 0x24731, size: 0x8, addend: 0x0, symName: '__ZN4core6result19Result$LT$T$C$E$GT$14unwrap_or_else17he323ad48146010dfE', symObjAddr: 0x62C, symBinAddr: 0x8ACC, symSize: 0x54 }
  - { offset: 0x247D4, size: 0x8, addend: 0x0, symName: '__ZN4core6result19Result$LT$T$C$E$GT$14unwrap_or_else17he5ca7e2c81968658E', symObjAddr: 0x680, symBinAddr: 0x8B20, symSize: 0x80 }
  - { offset: 0x248B0, size: 0x8, addend: 0x0, symName: '__ZN4core6result19Result$LT$T$C$E$GT$14unwrap_or_else17hf4ca0bcbc8a346a7E', symObjAddr: 0x700, symBinAddr: 0x8BA0, symSize: 0x80 }
  - { offset: 0x2493A, size: 0x8, addend: 0x0, symName: '__ZN4core6result19Result$LT$T$C$E$GT$2ok17h4bf3872b14f7c36dE', symObjAddr: 0x780, symBinAddr: 0x8C20, symSize: 0x70 }
  - { offset: 0x2498E, size: 0x8, addend: 0x0, symName: '__ZN4core6result19Result$LT$T$C$E$GT$2ok17hf71c489c97ec0f03E', symObjAddr: 0x7F0, symBinAddr: 0x8C90, symSize: 0x78 }
  - { offset: 0x249E2, size: 0x8, addend: 0x0, symName: '__ZN4core6result19Result$LT$T$C$E$GT$3map17h0827c238d0dbde64E', symObjAddr: 0x868, symBinAddr: 0x8D08, symSize: 0x8C }
  - { offset: 0x24C50, size: 0x8, addend: 0x0, symName: '__ZN4core6result19Result$LT$T$C$E$GT$3map17h266bad48cde4eb26E', symObjAddr: 0x8F4, symBinAddr: 0x8D94, symSize: 0x4C }
  - { offset: 0x24CE2, size: 0x8, addend: 0x0, symName: '__ZN4core6result19Result$LT$T$C$E$GT$3map17h2fc7c2d50258f858E', symObjAddr: 0x940, symBinAddr: 0x8DE0, symSize: 0xA8 }
  - { offset: 0x24D75, size: 0x8, addend: 0x0, symName: '__ZN4core6result19Result$LT$T$C$E$GT$3map17h3cfd7a174ed58621E', symObjAddr: 0x9E8, symBinAddr: 0x8E88, symSize: 0x80 }
  - { offset: 0x24E54, size: 0x8, addend: 0x0, symName: '__ZN4core6result19Result$LT$T$C$E$GT$3map17h3fb594537b7869c5E', symObjAddr: 0xA68, symBinAddr: 0x8F08, symSize: 0x84 }
  - { offset: 0x24F01, size: 0x8, addend: 0x0, symName: '__ZN4core6result19Result$LT$T$C$E$GT$3map17h5483326a407bc720E', symObjAddr: 0xAEC, symBinAddr: 0x8F8C, symSize: 0x88 }
  - { offset: 0x24F9B, size: 0x8, addend: 0x0, symName: '__ZN4core6result19Result$LT$T$C$E$GT$3map17h9f8a2db2d85adcdfE', symObjAddr: 0xB74, symBinAddr: 0x9014, symSize: 0x8C }
  - { offset: 0x25046, size: 0x8, addend: 0x0, symName: '__ZN4core6result19Result$LT$T$C$E$GT$3map17hc295ed436152fd1fE', symObjAddr: 0xC00, symBinAddr: 0x90A0, symSize: 0x80 }
  - { offset: 0x250D9, size: 0x8, addend: 0x0, symName: '__ZN4core6result19Result$LT$T$C$E$GT$3map17hc2e3a40d19a5b740E', symObjAddr: 0xC80, symBinAddr: 0x9120, symSize: 0x98 }
  - { offset: 0x25179, size: 0x8, addend: 0x0, symName: '__ZN4core6result19Result$LT$T$C$E$GT$5is_ok17h04ea8677d4f555b3E', symObjAddr: 0xD18, symBinAddr: 0x91B8, symSize: 0x28 }
  - { offset: 0x251BB, size: 0x8, addend: 0x0, symName: '__ZN4core6result19Result$LT$T$C$E$GT$5is_ok17h181d52eee944b2c3E', symObjAddr: 0xD40, symBinAddr: 0x91E0, symSize: 0x20 }
  - { offset: 0x251FD, size: 0x8, addend: 0x0, symName: '__ZN4core6result19Result$LT$T$C$E$GT$5is_ok17h7e565c44d742428fE', symObjAddr: 0xD60, symBinAddr: 0x9200, symSize: 0x20 }
  - { offset: 0x2523F, size: 0x8, addend: 0x0, symName: '__ZN4core6result19Result$LT$T$C$E$GT$5is_ok17hb75751a973aa31c7E', symObjAddr: 0xD80, symBinAddr: 0x9220, symSize: 0x30 }
  - { offset: 0x25281, size: 0x8, addend: 0x0, symName: '__ZN4core6result19Result$LT$T$C$E$GT$5is_ok17hf2a478af207ec551E', symObjAddr: 0xDB0, symBinAddr: 0x9250, symSize: 0x20 }
  - { offset: 0x252DD, size: 0x8, addend: 0x0, symName: '__ZN4core6result19Result$LT$T$C$E$GT$6expect17haf9ba22a3089a677E', symObjAddr: 0xDD0, symBinAddr: 0x9270, symSize: 0xBC }
  - { offset: 0x25372, size: 0x8, addend: 0x0, symName: '__ZN4core6result19Result$LT$T$C$E$GT$6is_err17h888160e96efe81fdE', symObjAddr: 0xE8C, symBinAddr: 0x932C, symSize: 0x20 }
  - { offset: 0x253C5, size: 0x8, addend: 0x0, symName: '__ZN4core6result19Result$LT$T$C$E$GT$7map_err17h16dc51a070da081aE', symObjAddr: 0xEAC, symBinAddr: 0x934C, symSize: 0x80 }
  - { offset: 0x25458, size: 0x8, addend: 0x0, symName: '__ZN4core6result19Result$LT$T$C$E$GT$7map_err17h170e6aef860091b7E', symObjAddr: 0xF2C, symBinAddr: 0x93CC, symSize: 0x94 }
  - { offset: 0x25503, size: 0x8, addend: 0x0, symName: '__ZN4core6result19Result$LT$T$C$E$GT$7map_err17h1e058e23e4ca12d7E', symObjAddr: 0xFC0, symBinAddr: 0x9460, symSize: 0x68 }
  - { offset: 0x255AD, size: 0x8, addend: 0x0, symName: '__ZN4core6result19Result$LT$T$C$E$GT$7map_err17h2542be78fb8fd82eE', symObjAddr: 0x1028, symBinAddr: 0x94C8, symSize: 0x98 }
  - { offset: 0x25640, size: 0x8, addend: 0x0, symName: '__ZN4core6result19Result$LT$T$C$E$GT$7map_err17h348c1d9de81b5574E', symObjAddr: 0x10C0, symBinAddr: 0x9560, symSize: 0x8C }
  - { offset: 0x256D3, size: 0x8, addend: 0x0, symName: '__ZN4core6result19Result$LT$T$C$E$GT$7map_err17h3ce6609d4660ae1dE', symObjAddr: 0x114C, symBinAddr: 0x95EC, symSize: 0x80 }
  - { offset: 0x25766, size: 0x8, addend: 0x0, symName: '__ZN4core6result19Result$LT$T$C$E$GT$7map_err17h46ef10285afe4e56E', symObjAddr: 0x11CC, symBinAddr: 0x966C, symSize: 0x80 }
  - { offset: 0x25811, size: 0x8, addend: 0x0, symName: '__ZN4core6result19Result$LT$T$C$E$GT$7map_err17h601c6f99bdb53d3fE', symObjAddr: 0x124C, symBinAddr: 0x96EC, symSize: 0xA4 }
  - { offset: 0x258BC, size: 0x8, addend: 0x0, symName: '__ZN4core6result19Result$LT$T$C$E$GT$7map_err17h7732c2cd870d13bcE', symObjAddr: 0x12F0, symBinAddr: 0x9790, symSize: 0x30 }
  - { offset: 0x25930, size: 0x8, addend: 0x0, symName: '__ZN4core6result19Result$LT$T$C$E$GT$7map_err17h852cfd770c1f727dE', symObjAddr: 0x1320, symBinAddr: 0x97C0, symSize: 0x80 }
  - { offset: 0x259C3, size: 0x8, addend: 0x0, symName: '__ZN4core6result19Result$LT$T$C$E$GT$7map_err17ha3beff257b7c1faeE', symObjAddr: 0x13A0, symBinAddr: 0x9840, symSize: 0x64 }
  - { offset: 0x25A56, size: 0x8, addend: 0x0, symName: '__ZN4core6result19Result$LT$T$C$E$GT$7map_err17hb76bc20b88106528E', symObjAddr: 0x1404, symBinAddr: 0x98A4, symSize: 0x3C }
  - { offset: 0x25ACA, size: 0x8, addend: 0x0, symName: '__ZN4core6result19Result$LT$T$C$E$GT$7map_err17hbd02742fb1d66262E', symObjAddr: 0x1440, symBinAddr: 0x98E0, symSize: 0x80 }
  - { offset: 0x25B5D, size: 0x8, addend: 0x0, symName: '__ZN4core6result19Result$LT$T$C$E$GT$7map_err17hc41c28aa33fea173E', symObjAddr: 0x14C0, symBinAddr: 0x9960, symSize: 0xA4 }
  - { offset: 0x25BF0, size: 0x8, addend: 0x0, symName: '__ZN4core6result19Result$LT$T$C$E$GT$7map_err17hc55393a8e1f2c423E', symObjAddr: 0x1564, symBinAddr: 0x9A04, symSize: 0x80 }
  - { offset: 0x25C9B, size: 0x8, addend: 0x0, symName: '__ZN4core6result19Result$LT$T$C$E$GT$7map_err17hc8be24f34df419b2E', symObjAddr: 0x15E4, symBinAddr: 0x9A84, symSize: 0xA4 }
  - { offset: 0x25D46, size: 0x8, addend: 0x0, symName: '__ZN4core6result19Result$LT$T$C$E$GT$7map_err17hd2a4f392b1a3bc38E', symObjAddr: 0x1688, symBinAddr: 0x9B28, symSize: 0x90 }
  - { offset: 0x25DD9, size: 0x8, addend: 0x0, symName: '__ZN4core6result19Result$LT$T$C$E$GT$7map_err17hda413e38d79e40f5E', symObjAddr: 0x1718, symBinAddr: 0x9BB8, symSize: 0xAC }
  - { offset: 0x25E84, size: 0x8, addend: 0x0, symName: '__ZN4core6result19Result$LT$T$C$E$GT$7map_err17hdb5492d71515f0a7E', symObjAddr: 0x17C4, symBinAddr: 0x9C64, symSize: 0x78 }
  - { offset: 0x25F16, size: 0x8, addend: 0x0, symName: '__ZN4core6result19Result$LT$T$C$E$GT$7map_err17hdeb6ce9085b041c5E', symObjAddr: 0x183C, symBinAddr: 0x9CDC, symSize: 0x68 }
  - { offset: 0x25FA8, size: 0x8, addend: 0x0, symName: '__ZN4core6result19Result$LT$T$C$E$GT$7map_err17he38822d6a000342bE', symObjAddr: 0x18A4, symBinAddr: 0x9D44, symSize: 0xA4 }
  - { offset: 0x2603B, size: 0x8, addend: 0x0, symName: '__ZN4core6result19Result$LT$T$C$E$GT$7map_err17he42e5b1ea3ec9812E', symObjAddr: 0x1948, symBinAddr: 0x9DE8, symSize: 0x94 }
  - { offset: 0x260CE, size: 0x8, addend: 0x0, symName: '__ZN4core6result19Result$LT$T$C$E$GT$7map_err17hec215b7f0501d3faE', symObjAddr: 0x19DC, symBinAddr: 0x9E7C, symSize: 0x68 }
  - { offset: 0x26160, size: 0x8, addend: 0x0, symName: '__ZN4core6result19Result$LT$T$C$E$GT$7map_err17hef88c98e884d2207E', symObjAddr: 0x1A44, symBinAddr: 0x9EE4, symSize: 0x80 }
  - { offset: 0x261F3, size: 0x8, addend: 0x0, symName: '__ZN4core6result19Result$LT$T$C$E$GT$7map_err17hf89a82a4c304cfc6E', symObjAddr: 0x1AC4, symBinAddr: 0x9F64, symSize: 0x68 }
  - { offset: 0x26285, size: 0x8, addend: 0x0, symName: '__ZN4core6result23Result$LT$$RF$T$C$E$GT$6cloned17h6222cb4524cb5743E', symObjAddr: 0x1B2C, symBinAddr: 0x9FCC, symSize: 0x14 }
  - { offset: 0x26304, size: 0x8, addend: 0x0, symName: '__ZN4core3ptr8non_null16NonNull$LT$T$GT$20offset_from_unsigned17h3e25c3766f20ab8aE', symObjAddr: 0x0, symBinAddr: 0xA578, symSize: 0x7C }
  - { offset: 0x26972, size: 0x8, addend: 0x0, symName: '__ZN4core3ptr8non_null16NonNull$LT$T$GT$20offset_from_unsigned17h3e25c3766f20ab8aE', symObjAddr: 0x0, symBinAddr: 0xA578, symSize: 0x7C }
  - { offset: 0x26A64, size: 0x8, addend: 0x0, symName: '__ZN106_$LT$core..ops..range..Range$LT$usize$GT$$u20$as$u20$core..slice..index..SliceIndex$LT$$u5b$T$u5d$$GT$$GT$9index_mut17h03e6076466a6390bE', symObjAddr: 0x0, symBinAddr: 0xA5F4, symSize: 0xBC }
  - { offset: 0x27DB5, size: 0x8, addend: 0x0, symName: '__ZN106_$LT$core..ops..range..Range$LT$usize$GT$$u20$as$u20$core..slice..index..SliceIndex$LT$$u5b$T$u5d$$GT$$GT$9index_mut17h03e6076466a6390bE', symObjAddr: 0x0, symBinAddr: 0xA5F4, symSize: 0xBC }
  - { offset: 0x27EA9, size: 0x8, addend: 0x0, symName: '__ZN108_$LT$core..ops..range..RangeTo$LT$usize$GT$$u20$as$u20$core..slice..index..SliceIndex$LT$$u5b$T$u5d$$GT$$GT$9index_mut17hbe619c3b9b24dfc6E', symObjAddr: 0xBC, symBinAddr: 0xA6B0, symSize: 0x54 }
  - { offset: 0x27F29, size: 0x8, addend: 0x0, symName: '__ZN110_$LT$core..ops..range..RangeFrom$LT$usize$GT$$u20$as$u20$core..slice..index..SliceIndex$LT$$u5b$T$u5d$$GT$$GT$5index17he75a78cd3ccb7bcaE', symObjAddr: 0x110, symBinAddr: 0xA704, symSize: 0x94 }
  - { offset: 0x28376, size: 0x8, addend: 0x0, symName: '__ZN86_$LT$core..ops..range..RangeFull$u20$as$u20$core..ops..range..RangeBounds$LT$T$GT$$GT$11start_bound17hb47aab3a3e154262E', symObjAddr: 0x4F0, symBinAddr: 0xAAE4, symSize: 0x18 }
  - { offset: 0x283AD, size: 0x8, addend: 0x0, symName: '__ZN86_$LT$core..ops..range..RangeFull$u20$as$u20$core..ops..range..RangeBounds$LT$T$GT$$GT$9end_bound17hb7b1fa0c693a455cE', symObjAddr: 0x508, symBinAddr: 0xAAFC, symSize: 0x18 }
  - { offset: 0x284E6, size: 0x8, addend: 0x0, symName: '__ZN4core4iter5range101_$LT$impl$u20$core..iter..traits..iterator..Iterator$u20$for$u20$core..ops..range..Range$LT$A$GT$$GT$9size_hint17h9aa2d459471aa32cE', symObjAddr: 0x1A4, symBinAddr: 0xA798, symSize: 0x88 }
  - { offset: 0x28554, size: 0x8, addend: 0x0, symName: __ZN4core4iter6traits8iterator8Iterator3map17had9325fc846990e3E, symObjAddr: 0x22C, symBinAddr: 0xA820, symSize: 0x14 }
  - { offset: 0x285AC, size: 0x8, addend: 0x0, symName: __ZN4core4iter6traits8iterator8Iterator3map17hb526bb32df2e339fE, symObjAddr: 0x240, symBinAddr: 0xA834, symSize: 0x14 }
  - { offset: 0x28604, size: 0x8, addend: 0x0, symName: __ZN4core4iter6traits8iterator8Iterator3map17hcfe7a9d3c0003839E, symObjAddr: 0x254, symBinAddr: 0xA848, symSize: 0x14 }
  - { offset: 0x2865C, size: 0x8, addend: 0x0, symName: __ZN4core4iter6traits8iterator8Iterator4fold17h9053b8018c5cca2dE, symObjAddr: 0x268, symBinAddr: 0xA85C, symSize: 0xD8 }
  - { offset: 0x286EC, size: 0x8, addend: 0x0, symName: __ZN4core4iter6traits8iterator8Iterator4fold17ha9f52ea90d0a85b2E, symObjAddr: 0x340, symBinAddr: 0xA934, symSize: 0xD8 }
  - { offset: 0x2877C, size: 0x8, addend: 0x0, symName: __ZN4core4iter6traits8iterator8Iterator4fold17hf03058e52b4152e3E, symObjAddr: 0x418, symBinAddr: 0xAA0C, symSize: 0xD8 }
  - { offset: 0x29D62, size: 0x8, addend: 0x0, symName: '__ZN17crossbeam_channel7flavors4zero15Packet$LT$T$GT$10wait_ready17h2806ebaf8b8c8121E', symObjAddr: 0x0, symBinAddr: 0xAB14, symSize: 0x50 }
  - { offset: 0x2A45A, size: 0x8, addend: 0x0, symName: '__ZN17crossbeam_channel7flavors4zero16Channel$LT$T$GT$4recv28_$u7b$$u7b$closure$u7d$$u7d$17h3ff569b6ec69c0deE', symObjAddr: 0x1A8C, symBinAddr: 0xC5A0, symSize: 0x14 }
  - { offset: 0x2A498, size: 0x8, addend: 0x0, symName: '__ZN17crossbeam_channel7flavors4zero16Channel$LT$T$GT$4recv28_$u7b$$u7b$closure$u7d$$u7d$17h646169e70b3052e1E', symObjAddr: 0x1AA0, symBinAddr: 0xC5B4, symSize: 0x59C }
  - { offset: 0x2A6C0, size: 0x8, addend: 0x0, symName: '__ZN17crossbeam_channel7flavors4zero16Channel$LT$T$GT$4recv28_$u7b$$u7b$closure$u7d$$u7d$17h69cc94a8a508571eE', symObjAddr: 0x203C, symBinAddr: 0xCB50, symSize: 0x14 }
  - { offset: 0x2A6FE, size: 0x8, addend: 0x0, symName: '__ZN17crossbeam_channel7flavors4zero16Channel$LT$T$GT$4recv28_$u7b$$u7b$closure$u7d$$u7d$17ha217dd467857d961E', symObjAddr: 0x2050, symBinAddr: 0xCB64, symSize: 0x568 }
  - { offset: 0x2A926, size: 0x8, addend: 0x0, symName: '__ZN17crossbeam_channel7flavors4zero16Channel$LT$T$GT$4recv28_$u7b$$u7b$closure$u7d$$u7d$17ha6b0b783c16c2155E', symObjAddr: 0x25B8, symBinAddr: 0xD0CC, symSize: 0x588 }
  - { offset: 0x2AB4E, size: 0x8, addend: 0x0, symName: '__ZN17crossbeam_channel7flavors4zero16Channel$LT$T$GT$4recv28_$u7b$$u7b$closure$u7d$$u7d$17hbd720db49eb18b6fE', symObjAddr: 0x2B40, symBinAddr: 0xD654, symSize: 0x14 }
  - { offset: 0x2ABA7, size: 0x8, addend: 0x0, symName: '__ZN17crossbeam_channel7flavors4zero16Channel$LT$T$GT$4send28_$u7b$$u7b$closure$u7d$$u7d$17h721a0540c5e2728aE', symObjAddr: 0x3298, symBinAddr: 0xDDAC, symSize: 0x6E0 }
  - { offset: 0x2AECA, size: 0x8, addend: 0x0, symName: '__ZN17crossbeam_channel7flavors4zero16Channel$LT$T$GT$4send28_$u7b$$u7b$closure$u7d$$u7d$17h90a3faa5dbfaba3cE', symObjAddr: 0x3978, symBinAddr: 0xE48C, symSize: 0x69C }
  - { offset: 0x2E3F0, size: 0x8, addend: 0x0, symName: '__ZN17crossbeam_channel7flavors4zero15Packet$LT$T$GT$10wait_ready17h2806ebaf8b8c8121E', symObjAddr: 0x0, symBinAddr: 0xAB14, symSize: 0x50 }
  - { offset: 0x2E445, size: 0x8, addend: 0x0, symName: '__ZN17crossbeam_channel7flavors4zero15Packet$LT$T$GT$10wait_ready17h69eef47fc05216abE', symObjAddr: 0x50, symBinAddr: 0xAB64, symSize: 0x50 }
  - { offset: 0x2E49A, size: 0x8, addend: 0x0, symName: '__ZN17crossbeam_channel7flavors4zero15Packet$LT$T$GT$10wait_ready17hbdcfc7cfddfd68dfE', symObjAddr: 0xA0, symBinAddr: 0xABB4, symSize: 0x50 }
  - { offset: 0x2E4FE, size: 0x8, addend: 0x0, symName: '__ZN17crossbeam_channel7flavors4zero15Packet$LT$T$GT$14empty_on_stack17h14505fe6ded2f5deE', symObjAddr: 0xF0, symBinAddr: 0xAC04, symSize: 0x70 }
  - { offset: 0x2E538, size: 0x8, addend: 0x0, symName: '__ZN17crossbeam_channel7flavors4zero15Packet$LT$T$GT$14empty_on_stack17h5869a46c48a4b939E', symObjAddr: 0x160, symBinAddr: 0xAC74, symSize: 0x50 }
  - { offset: 0x2E571, size: 0x8, addend: 0x0, symName: '__ZN17crossbeam_channel7flavors4zero15Packet$LT$T$GT$14empty_on_stack17hd5512ae9e19679e8E', symObjAddr: 0x1B0, symBinAddr: 0xACC4, symSize: 0x78 }
  - { offset: 0x2E5AC, size: 0x8, addend: 0x0, symName: '__ZN17crossbeam_channel7flavors4zero15Packet$LT$T$GT$16message_on_stack17h8c99f4cf7e4be053E', symObjAddr: 0x228, symBinAddr: 0xAD3C, symSize: 0x108 }
  - { offset: 0x2E5F6, size: 0x8, addend: 0x0, symName: '__ZN17crossbeam_channel7flavors4zero15Packet$LT$T$GT$16message_on_stack17hfe57be64d3c5b0e6E', symObjAddr: 0x330, symBinAddr: 0xAE44, symSize: 0xE4 }
  - { offset: 0x2E6D9, size: 0x8, addend: 0x0, symName: '__ZN17crossbeam_channel7flavors4zero16Channel$LT$T$GT$10disconnect17h0f29660608134fb2E', symObjAddr: 0x414, symBinAddr: 0xAF28, symSize: 0x194 }
  - { offset: 0x2E762, size: 0x8, addend: 0x0, symName: '__ZN17crossbeam_channel7flavors4zero16Channel$LT$T$GT$10disconnect17h377ae0ab02aacd8bE', symObjAddr: 0x5A8, symBinAddr: 0xB0BC, symSize: 0x194 }
  - { offset: 0x2E7EB, size: 0x8, addend: 0x0, symName: '__ZN17crossbeam_channel7flavors4zero16Channel$LT$T$GT$10disconnect17h81fbc3afc9bd8daaE', symObjAddr: 0x73C, symBinAddr: 0xB250, symSize: 0x194 }
  - { offset: 0x2E867, size: 0x8, addend: 0x0, symName: '__ZN17crossbeam_channel7flavors4zero16Channel$LT$T$GT$3new17h36106420c7857970E', symObjAddr: 0x8D0, symBinAddr: 0xB3E4, symSize: 0xB8 }
  - { offset: 0x2E884, size: 0x8, addend: 0x0, symName: '__ZN17crossbeam_channel7flavors4zero16Channel$LT$T$GT$3new17h3ebbfef8696d1ce1E', symObjAddr: 0x988, symBinAddr: 0xB49C, symSize: 0xB8 }
  - { offset: 0x2E8A1, size: 0x8, addend: 0x0, symName: '__ZN17crossbeam_channel7flavors4zero16Channel$LT$T$GT$3new17h4199d62914402b0fE', symObjAddr: 0xA40, symBinAddr: 0xB554, symSize: 0xB8 }
  - { offset: 0x2E910, size: 0x8, addend: 0x0, symName: '__ZN17crossbeam_channel7flavors4zero16Channel$LT$T$GT$4read17h0fce1331e1cf2158E', symObjAddr: 0xAF8, symBinAddr: 0xB60C, symSize: 0x2EC }
  - { offset: 0x2EB13, size: 0x8, addend: 0x0, symName: '__ZN17crossbeam_channel7flavors4zero16Channel$LT$T$GT$4read17hb7de7d7ab50f3771E', symObjAddr: 0xDE4, symBinAddr: 0xB8F8, symSize: 0x2CC }
  - { offset: 0x2ED16, size: 0x8, addend: 0x0, symName: '__ZN17crossbeam_channel7flavors4zero16Channel$LT$T$GT$4read17heb5c189c7ba3eb76E', symObjAddr: 0x10B0, symBinAddr: 0xBBC4, symSize: 0x23C }
  - { offset: 0x2EED1, size: 0x8, addend: 0x0, symName: '__ZN17crossbeam_channel7flavors4zero16Channel$LT$T$GT$4recv17h2d91b89b0edb205cE', symObjAddr: 0x12EC, symBinAddr: 0xBE00, symSize: 0x288 }
  - { offset: 0x2EF83, size: 0x8, addend: 0x0, symName: '__ZN17crossbeam_channel7flavors4zero16Channel$LT$T$GT$4recv17h55dd0d8bf4139238E', symObjAddr: 0x1574, symBinAddr: 0xC088, symSize: 0x28C }
  - { offset: 0x2F035, size: 0x8, addend: 0x0, symName: '__ZN17crossbeam_channel7flavors4zero16Channel$LT$T$GT$4recv17hf8df07ef460fef01E', symObjAddr: 0x1800, symBinAddr: 0xC314, symSize: 0x28C }
  - { offset: 0x2F1B8, size: 0x8, addend: 0x0, symName: '__ZN17crossbeam_channel7flavors4zero16Channel$LT$T$GT$4send17hf7640eae7c725f7bE', symObjAddr: 0x2B54, symBinAddr: 0xD668, symSize: 0x3A4 }
  - { offset: 0x2F29A, size: 0x8, addend: 0x0, symName: '__ZN17crossbeam_channel7flavors4zero16Channel$LT$T$GT$4send17hfedc3aef9f907db1E', symObjAddr: 0x2EF8, symBinAddr: 0xDA0C, symSize: 0x3A0 }
  - { offset: 0x2F37C, size: 0x8, addend: 0x0, symName: '__ZN17crossbeam_channel7flavors4zero16Channel$LT$T$GT$5write17ha0d6e8874758f7caE', symObjAddr: 0x4014, symBinAddr: 0xEB28, symSize: 0x194 }
  - { offset: 0x2F43A, size: 0x8, addend: 0x0, symName: '__ZN17crossbeam_channel7flavors4zero16Channel$LT$T$GT$5write17hbf0c52ea4884482aE', symObjAddr: 0x41A8, symBinAddr: 0xECBC, symSize: 0x19C }
  - { offset: 0x2F524, size: 0x8, addend: 0x0, symName: __ZN15crossbeam_utils7backoff7Backoff12is_completed17hadb46e952793f04bE, symObjAddr: 0x0, symBinAddr: 0xEE58, symSize: 0x2C }
  - { offset: 0x2F6A4, size: 0x8, addend: 0x0, symName: __ZN15crossbeam_utils7backoff7Backoff12is_completed17hadb46e952793f04bE, symObjAddr: 0x0, symBinAddr: 0xEE58, symSize: 0x2C }
  - { offset: 0x2F6C7, size: 0x8, addend: 0x0, symName: __ZN15crossbeam_utils7backoff7Backoff3new17h9fec307ca2078b26E, symObjAddr: 0x2C, symBinAddr: 0xEE84, symSize: 0x18 }
  - { offset: 0x2F6E7, size: 0x8, addend: 0x0, symName: __ZN15crossbeam_utils7backoff7Backoff4spin17h9d06a6ee60979e1aE, symObjAddr: 0x44, symBinAddr: 0xEE9C, symSize: 0xDC }
  - { offset: 0x2F76E, size: 0x8, addend: 0x0, symName: __ZN15crossbeam_utils7backoff7Backoff6snooze17h2b5a71ab2ddce196E, symObjAddr: 0x120, symBinAddr: 0xEF78, symSize: 0xF4 }
  - { offset: 0x2F83D, size: 0x8, addend: 0x0, symName: '__ZN55_$LT$$RF$T$u20$as$u20$core..convert..AsRef$LT$U$GT$$GT$6as_ref17h1d073e10ffce16f8E', symObjAddr: 0x1C, symBinAddr: 0xF06C, symSize: 0x30 }
  - { offset: 0x2F978, size: 0x8, addend: 0x0, symName: '__ZN45_$LT$T$u20$as$u20$alloc..string..ToString$GT$9to_string17h5c202e6235279bd9E', symObjAddr: 0x0, symBinAddr: 0xF09C, symSize: 0x28 }
  - { offset: 0x3015A, size: 0x8, addend: 0x0, symName: '__ZN4core4hash5impls52_$LT$impl$u20$core..hash..Hash$u20$for$u20$$RF$T$GT$4hash17h4cd6742b3b26b919E', symObjAddr: 0x28, symBinAddr: 0xF0C4, symSize: 0x30 }
  - { offset: 0x302A9, size: 0x8, addend: 0x0, symName: '__ZN51_$LT$T$u20$as$u20$core..borrow..Borrow$LT$T$GT$$GT$6borrow17h1ca94743adc543c9E', symObjAddr: 0x58, symBinAddr: 0xF0F4, symSize: 0x14 }
  - { offset: 0x30F45, size: 0x8, addend: 0x0, symName: '__ZN45_$LT$T$u20$as$u20$alloc..string..ToString$GT$9to_string17h5c202e6235279bd9E', symObjAddr: 0x0, symBinAddr: 0xF09C, symSize: 0x28 }
  - { offset: 0x30FD1, size: 0x8, addend: 0x0, symName: '__ZN58_$LT$alloc..string..String$u20$as$u20$core..hash..Hash$GT$4hash17hfe346be4f361fa08E', symObjAddr: 0xF0, symBinAddr: 0xF18C, symSize: 0x90 }
  - { offset: 0x31339, size: 0x8, addend: 0x0, symName: '__ZN52_$LT$Q$u20$as$u20$hashbrown..Equivalent$LT$K$GT$$GT$10equivalent17ha6a44e0c26d90f09E', symObjAddr: 0x6C, symBinAddr: 0xF108, symSize: 0x50 }
  - { offset: 0x313BB, size: 0x8, addend: 0x0, symName: '__ZN57_$LT$T$u20$as$u20$pyo3..conversion..FromPyObjectBound$GT$20from_py_object_bound17he89b2730ea3b912eE', symObjAddr: 0xBC, symBinAddr: 0xF158, symSize: 0x34 }
  - { offset: 0x31403, size: 0x8, addend: 0x0, symName: '__ZN71_$LT$T$u20$as$u20$pyo3..impl_..extract_argument..PyFunctionArgument$GT$7extract17h3ec34df8f1faa048E', symObjAddr: 0x180, symBinAddr: 0xF21C, symSize: 0x28 }
  - { offset: 0x31CED, size: 0x8, addend: 0x0, symName: __ZN4core3ptr13read_volatile18precondition_check17h77bec4f24b923e4aE, symObjAddr: 0x0, symBinAddr: 0xF244, symSize: 0x144 }
  - { offset: 0x320A4, size: 0x8, addend: 0x0, symName: __ZN4core3ptr13read_volatile18precondition_check17h77bec4f24b923e4aE, symObjAddr: 0x0, symBinAddr: 0xF244, symSize: 0x144 }
  - { offset: 0x321BD, size: 0x8, addend: 0x0, symName: __ZN4core3ptr19copy_nonoverlapping18precondition_check17h069a3d74c1cb2c12E, symObjAddr: 0x144, symBinAddr: 0xF388, symSize: 0x36C }
  - { offset: 0x3249D, size: 0x8, addend: 0x0, symName: __ZN4core3ptr4copy18precondition_check17h8ff42145a0c328feE, symObjAddr: 0x4B0, symBinAddr: 0xF6F4, symSize: 0x240 }
  - { offset: 0x326E4, size: 0x8, addend: 0x0, symName: __ZN4core3ptr7replace18precondition_check17h006826aa54004f4aE, symObjAddr: 0x6F0, symBinAddr: 0xF934, symSize: 0x16C }
  - { offset: 0x32E07, size: 0x8, addend: 0x0, symName: __ZN9hashbrown3raw13RawTableInner13drop_elements17h8229c036dc44da37E, symObjAddr: 0x0, symBinAddr: 0xFAA0, symSize: 0x178 }
  - { offset: 0x32E43, size: 0x8, addend: 0x0, symName: '__ZN9hashbrown3raw21RawTable$LT$T$C$A$GT$14reserve_rehash28_$u7b$$u7b$closure$u7d$$u7d$17h397e8cba19c2ca21E', symObjAddr: 0xF34, symBinAddr: 0x101E8, symSize: 0xC8 }
  - { offset: 0x33008, size: 0x8, addend: 0x0, symName: '__ZN9hashbrown3raw21RawTable$LT$T$C$A$GT$14reserve_rehash28_$u7b$$u7b$closure$u7d$$u7d$17hf64b97835c66c9a6E', symObjAddr: 0xFFC, symBinAddr: 0x102B0, symSize: 0x30 }
  - { offset: 0x33065, size: 0x8, addend: 0x0, symName: '__ZN9hashbrown3raw21RawTable$LT$T$C$A$GT$24find_or_find_insert_slot28_$u7b$$u7b$closure$u7d$$u7d$17h587542778c60e609E', symObjAddr: 0x116C, symBinAddr: 0x10420, symSize: 0xCC }
  - { offset: 0x33240, size: 0x8, addend: 0x0, symName: '__ZN9hashbrown3raw21RawTable$LT$T$C$A$GT$4find28_$u7b$$u7b$closure$u7d$$u7d$17h8d4969fb8dee421fE', symObjAddr: 0x1568, symBinAddr: 0x1081C, symSize: 0xCC }
  - { offset: 0x38757, size: 0x8, addend: 0x0, symName: __ZN9hashbrown3raw13RawTableInner13drop_elements17h8229c036dc44da37E, symObjAddr: 0x0, symBinAddr: 0xFAA0, symSize: 0x178 }
  - { offset: 0x38C46, size: 0x8, addend: 0x0, symName: __ZN9hashbrown3raw13RawTableInner16drop_inner_table17hd6ae3a25c656120cE, symObjAddr: 0x178, symBinAddr: 0xFC18, symSize: 0xBC }
  - { offset: 0x38E5B, size: 0x8, addend: 0x0, symName: '__ZN9hashbrown3raw21RawIterRange$LT$T$GT$3new17h83a57c3ddf653471E', symObjAddr: 0x234, symBinAddr: 0xFCD4, symSize: 0xC0 }
  - { offset: 0x39207, size: 0x8, addend: 0x0, symName: '__ZN9hashbrown3raw21RawIterRange$LT$T$GT$9next_impl17h2a37f6ce63a9455aE', symObjAddr: 0x2F4, symBinAddr: 0xFD94, symSize: 0x1E8 }
  - { offset: 0x3955D, size: 0x8, addend: 0x0, symName: '__ZN9hashbrown3raw21RawTable$LT$T$C$A$GT$12remove_entry17h3dd0bb8f5ba4f752E', symObjAddr: 0x4DC, symBinAddr: 0xFF7C, symSize: 0x9C }
  - { offset: 0x3966F, size: 0x8, addend: 0x0, symName: '__ZN9hashbrown3raw21RawTable$LT$T$C$A$GT$13erase_no_drop17h234e375c1c335f01E', symObjAddr: 0x578, symBinAddr: 0x10018, symSize: 0x90 }
  - { offset: 0x399BA, size: 0x8, addend: 0x0, symName: '__ZN9hashbrown3raw21RawTable$LT$T$C$A$GT$14insert_in_slot17h40bb43bbab8e8427E', symObjAddr: 0x608, symBinAddr: 0x100A8, symSize: 0x140 }
  - { offset: 0x3A18D, size: 0x8, addend: 0x0, symName: '__ZN9hashbrown3raw21RawTable$LT$T$C$A$GT$14reserve_rehash17h9de04b2a2bb691aaE', symObjAddr: 0x748, symBinAddr: 0xB633C, symSize: 0x7EC }
  - { offset: 0x3AD0E, size: 0x8, addend: 0x0, symName: '__ZN9hashbrown3raw21RawTable$LT$T$C$A$GT$24find_or_find_insert_slot17hc5123ee4d0fad8c0E', symObjAddr: 0x102C, symBinAddr: 0x102E0, symSize: 0x140 }
  - { offset: 0x3B2E8, size: 0x8, addend: 0x0, symName: '__ZN9hashbrown3raw21RawTable$LT$T$C$A$GT$4find17h15a01c2cb623a36cE', symObjAddr: 0x1238, symBinAddr: 0x104EC, symSize: 0x330 }
  - { offset: 0x3B9D9, size: 0x8, addend: 0x0, symName: '__ZN9hashbrown3raw21RawTable$LT$T$C$A$GT$6remove17h1caf94c0ca8e3c48E', symObjAddr: 0x1634, symBinAddr: 0x108E8, symSize: 0x108 }
  - { offset: 0x3BC11, size: 0x8, addend: 0x0, symName: '__ZN9hashbrown3raw21RawTable$LT$T$C$A$GT$7reserve17h4d2bd571cb701dffE', symObjAddr: 0x173C, symBinAddr: 0x109F0, symSize: 0xCC }
  - { offset: 0x3BD07, size: 0x8, addend: 0x0, symName: __ZN4core5slice5index5range17hf31de29e1df9f844E, symObjAddr: 0x0, symBinAddr: 0x10ABC, symSize: 0x23C }
  - { offset: 0x3C4C6, size: 0x8, addend: 0x0, symName: __ZN4core5slice5index5range17hf31de29e1df9f844E, symObjAddr: 0x0, symBinAddr: 0x10ABC, symSize: 0x23C }
  - { offset: 0x3C693, size: 0x8, addend: 0x0, symName: '__ZN75_$LT$usize$u20$as$u20$core..slice..index..SliceIndex$LT$$u5b$T$u5d$$GT$$GT$13get_unchecked17h00593047b1cceda0E', symObjAddr: 0x23C, symBinAddr: 0x10CF8, symSize: 0x58 }
  - { offset: 0x3C6D6, size: 0x8, addend: 0x0, symName: '__ZN75_$LT$usize$u20$as$u20$core..slice..index..SliceIndex$LT$$u5b$T$u5d$$GT$$GT$13get_unchecked17h43543170f8b75a03E', symObjAddr: 0x294, symBinAddr: 0x10D50, symSize: 0x60 }
  - { offset: 0x3C719, size: 0x8, addend: 0x0, symName: '__ZN75_$LT$usize$u20$as$u20$core..slice..index..SliceIndex$LT$$u5b$T$u5d$$GT$$GT$13get_unchecked17h52cc99715cef78ddE', symObjAddr: 0x2F4, symBinAddr: 0x10DB0, symSize: 0x58 }
  - { offset: 0x3C75C, size: 0x8, addend: 0x0, symName: '__ZN75_$LT$usize$u20$as$u20$core..slice..index..SliceIndex$LT$$u5b$T$u5d$$GT$$GT$13get_unchecked17h56fca9d575c05f68E', symObjAddr: 0x34C, symBinAddr: 0x10E08, symSize: 0x60 }
  - { offset: 0x3C79F, size: 0x8, addend: 0x0, symName: '__ZN75_$LT$usize$u20$as$u20$core..slice..index..SliceIndex$LT$$u5b$T$u5d$$GT$$GT$13get_unchecked17h5afda0f8bcb78552E', symObjAddr: 0x3AC, symBinAddr: 0x10E68, symSize: 0x58 }
  - { offset: 0x3C7E2, size: 0x8, addend: 0x0, symName: '__ZN75_$LT$usize$u20$as$u20$core..slice..index..SliceIndex$LT$$u5b$T$u5d$$GT$$GT$13get_unchecked17hd9f6650403e4187bE', symObjAddr: 0x404, symBinAddr: 0x10EC0, symSize: 0x58 }
  - { offset: 0x3C825, size: 0x8, addend: 0x0, symName: '__ZN75_$LT$usize$u20$as$u20$core..slice..index..SliceIndex$LT$$u5b$T$u5d$$GT$$GT$17get_unchecked_mut17h1c8d2e6b0044952bE', symObjAddr: 0x45C, symBinAddr: 0x10F18, symSize: 0x58 }
  - { offset: 0x3C868, size: 0x8, addend: 0x0, symName: '__ZN75_$LT$usize$u20$as$u20$core..slice..index..SliceIndex$LT$$u5b$T$u5d$$GT$$GT$17get_unchecked_mut17h5beb2f1f212768c7E', symObjAddr: 0x4B4, symBinAddr: 0x10F70, symSize: 0x60 }
  - { offset: 0x3C8AB, size: 0x8, addend: 0x0, symName: '__ZN75_$LT$usize$u20$as$u20$core..slice..index..SliceIndex$LT$$u5b$T$u5d$$GT$$GT$17get_unchecked_mut17h9815c65dc7776f7cE', symObjAddr: 0x514, symBinAddr: 0x10FD0, symSize: 0x58 }
  - { offset: 0x3E9A6, size: 0x8, addend: 0x0, symName: __ZN3std6thread6Thread2id17h08b5ed5b1f55d9b7E, symObjAddr: 0x0, symBinAddr: 0x11028, symSize: 0x1C }
  - { offset: 0x3EF61, size: 0x8, addend: 0x0, symName: __ZN3std6thread6Thread2id17h08b5ed5b1f55d9b7E, symObjAddr: 0x0, symBinAddr: 0x11028, symSize: 0x1C }
  - { offset: 0x3F085, size: 0x8, addend: 0x0, symName: __ZN3std6thread6Thread6unpark17ha1dc087aaadf9aa9E, symObjAddr: 0x1C, symBinAddr: 0x11044, symSize: 0x48 }
  - { offset: 0x3F17E, size: 0x8, addend: 0x0, symName: '__ZN71_$LT$std..hash..random..DefaultHasher$u20$as$u20$core..hash..Hasher$GT$6finish17ha429d5ed5e1194e3E', symObjAddr: 0x0, symBinAddr: 0x1108C, symSize: 0x2C }
  - { offset: 0x3F322, size: 0x8, addend: 0x0, symName: '__ZN71_$LT$std..hash..random..DefaultHasher$u20$as$u20$core..hash..Hasher$GT$6finish17ha429d5ed5e1194e3E', symObjAddr: 0x0, symBinAddr: 0x1108C, symSize: 0x2C }
  - { offset: 0x3F36B, size: 0x8, addend: 0x0, symName: '__ZN71_$LT$std..hash..random..DefaultHasher$u20$as$u20$core..hash..Hasher$GT$9write_str17h205b0afe668779b5E', symObjAddr: 0x2C, symBinAddr: 0x110B8, symSize: 0x38 }
  - { offset: 0x3F3CC, size: 0x8, addend: 0x0, symName: '__ZN74_$LT$std..hash..random..RandomState$u20$as$u20$core..hash..BuildHasher$GT$12build_hasher17h8f6a5c2141436df6E', symObjAddr: 0x64, symBinAddr: 0x110F0, symSize: 0xCC }
  - { offset: 0x3F568, size: 0x8, addend: 0x0, symName: __ZN4core9core_arch7aarch644neon9generated7vld1_u817h8ad0c75240ea89d1E, symObjAddr: 0x0, symBinAddr: 0x111BC, symSize: 0x34 }
  - { offset: 0x3F58E, size: 0x8, addend: 0x0, symName: __ZN4core9core_arch7aarch644neon9generated7vld1_u817h8ad0c75240ea89d1E, symObjAddr: 0x0, symBinAddr: 0x111BC, symSize: 0x34 }
  - { offset: 0x3F5BC, size: 0x8, addend: 0x0, symName: __ZN4core9core_arch7aarch644neon9generated7vst1_u817ha39bb403f4c2f969E, symObjAddr: 0x34, symBinAddr: 0x111F0, symSize: 0x40 }
  - { offset: 0x3F5F6, size: 0x8, addend: 0x0, symName: __ZN4core9core_arch7aarch644neon9generated8vcgez_s817h00fa802bc4bc5351E, symObjAddr: 0x74, symBinAddr: 0x11230, symSize: 0x68 }
  - { offset: 0x3F698, size: 0x8, addend: 0x0, symName: __ZN4core9core_arch7aarch644neon9generated8vcltz_s817h5576d86331fa8eb5E, symObjAddr: 0xDC, symBinAddr: 0x11298, symSize: 0x68 }
  - { offset: 0x3F88E, size: 0x8, addend: 0x0, symName: '__ZN75_$LT$crossbeam_channel..select..Token$u20$as$u20$core..default..Default$GT$7default17h0994588a47a2fb23E', symObjAddr: 0x0, symBinAddr: 0x11300, symSize: 0x98 }
  - { offset: 0x3F8AA, size: 0x8, addend: 0x0, symName: '__ZN75_$LT$crossbeam_channel..select..Token$u20$as$u20$core..default..Default$GT$7default17h0994588a47a2fb23E', symObjAddr: 0x0, symBinAddr: 0x11300, symSize: 0x98 }
  - { offset: 0x3F8CD, size: 0x8, addend: 0x0, symName: '__ZN77_$LT$crossbeam_channel..select..Operation$u20$as$u20$core..cmp..PartialEq$GT$2eq17h0e4bf91f7656d1a1E', symObjAddr: 0x98, symBinAddr: 0x11398, symSize: 0x2C }
  - { offset: 0x3F90D, size: 0x8, addend: 0x0, symName: '__ZN88_$LT$crossbeam_channel..select..Selected$u20$as$u20$core..convert..From$LT$usize$GT$$GT$4from17hb6b931f3fcf32f2cE', symObjAddr: 0xC4, symBinAddr: 0x113C4, symSize: 0x78 }
  - { offset: 0x3F95C, size: 0x8, addend: 0x0, symName: '__ZN88_$LT$crossbeam_channel..select..Selected$u20$as$u20$core..convert..Into$LT$usize$GT$$GT$4into17h52548c6dea97403cE', symObjAddr: 0x13C, symBinAddr: 0x1143C, symSize: 0x7C }
  - { offset: 0x3FC6E, size: 0x8, addend: 0x0, symName: '__ZN4core3ptr7mut_ptr31_$LT$impl$u20$$BP$mut$u20$T$GT$7is_null17h91e1d2ae42fbf5d2E', symObjAddr: 0x0, symBinAddr: 0x114B8, symSize: 0x18 }
  - { offset: 0x3FCF7, size: 0x8, addend: 0x0, symName: '__ZN4core3ptr7mut_ptr31_$LT$impl$u20$$BP$mut$u20$T$GT$7is_null17h91e1d2ae42fbf5d2E', symObjAddr: 0x0, symBinAddr: 0x114B8, symSize: 0x18 }
  - { offset: 0x3FD56, size: 0x8, addend: 0x0, symName: '__ZN4core3ptr7mut_ptr31_$LT$impl$u20$$BP$mut$u20$T$GT$7is_null17hd801dac343914ac0E', symObjAddr: 0x18, symBinAddr: 0x114D0, symSize: 0x18 }
  - { offset: 0x3FE06, size: 0x8, addend: 0x0, symName: __ZN3std3sys9backtrace28__rust_begin_short_backtrace17h18b222d36845f6d1E, symObjAddr: 0x0, symBinAddr: 0x114E8, symSize: 0x28 }
  - { offset: 0x41828, size: 0x8, addend: 0x0, symName: __ZN3std3sys9backtrace28__rust_begin_short_backtrace17h18b222d36845f6d1E, symObjAddr: 0x0, symBinAddr: 0x114E8, symSize: 0x28 }
  - { offset: 0x4189C, size: 0x8, addend: 0x0, symName: __ZN3std3sys9backtrace28__rust_begin_short_backtrace17h41f25910e333faadE, symObjAddr: 0x28, symBinAddr: 0x11510, symSize: 0x1C }
  - { offset: 0x41911, size: 0x8, addend: 0x0, symName: __ZN3std3sys9backtrace28__rust_begin_short_backtrace17h5b9fcb211ca182fdE, symObjAddr: 0x44, symBinAddr: 0x1152C, symSize: 0x1C }
  - { offset: 0x41986, size: 0x8, addend: 0x0, symName: __ZN3std3sys9backtrace28__rust_begin_short_backtrace17h85e549e699ceab1cE, symObjAddr: 0x60, symBinAddr: 0x11548, symSize: 0x1C }
  - { offset: 0x43B88, size: 0x8, addend: 0x0, symName: '__ZN100_$LT$core..iter..adapters..take..Take$LT$I$GT$$u20$as$u20$core..iter..traits..iterator..Iterator$GT$4next17hfc1f871533280d03E', symObjAddr: 0x0, symBinAddr: 0x11564, symSize: 0x58 }
  - { offset: 0x4436F, size: 0x8, addend: 0x0, symName: '__ZN100_$LT$core..iter..adapters..take..Take$LT$I$GT$$u20$as$u20$core..iter..traits..iterator..Iterator$GT$4next17hfc1f871533280d03E', symObjAddr: 0x0, symBinAddr: 0x11564, symSize: 0x58 }
  - { offset: 0x4442E, size: 0x8, addend: 0x0, symName: __ZN4core4iter6traits8iterator8Iterator9enumerate17h55900e04d1b6e7cdE, symObjAddr: 0x58, symBinAddr: 0x115BC, symSize: 0x18 }
  - { offset: 0x4445F, size: 0x8, addend: 0x0, symName: __ZN4core4iter6traits8iterator8Iterator9enumerate17h55900e04d1b6e7cdE, symObjAddr: 0x58, symBinAddr: 0x115BC, symSize: 0x18 }
  - { offset: 0x4551B, size: 0x8, addend: 0x0, symName: '__ZN5alloc4sync12Arc$LT$T$GT$3new17h3a8d25ab45d90932E', symObjAddr: 0x0, symBinAddr: 0x115D4, symSize: 0xC8 }
  - { offset: 0x47B17, size: 0x8, addend: 0x0, symName: '__ZN68_$LT$alloc..sync..Arc$LT$T$C$A$GT$$u20$as$u20$core..clone..Clone$GT$5clone17h100247472ee46403E', symObjAddr: 0x500, symBinAddr: 0x11AD4, symSize: 0x94 }
  - { offset: 0x47C0A, size: 0x8, addend: 0x0, symName: '__ZN68_$LT$alloc..sync..Arc$LT$T$C$A$GT$$u20$as$u20$core..clone..Clone$GT$5clone17h75f3b6768fcbc0f4E', symObjAddr: 0x594, symBinAddr: 0x11B68, symSize: 0x94 }
  - { offset: 0x47CFD, size: 0x8, addend: 0x0, symName: '__ZN68_$LT$alloc..sync..Arc$LT$T$C$A$GT$$u20$as$u20$core..clone..Clone$GT$5clone17hd68d15792af42772E', symObjAddr: 0x628, symBinAddr: 0x11BFC, symSize: 0x94 }
  - { offset: 0x47DF6, size: 0x8, addend: 0x0, symName: '__ZN73_$LT$alloc..sync..Arc$LT$T$C$A$GT$$u20$as$u20$core..ops..deref..Deref$GT$5deref17h10db4ff154f2c8beE', symObjAddr: 0x6BC, symBinAddr: 0x11C90, symSize: 0x1C }
  - { offset: 0x47E69, size: 0x8, addend: 0x0, symName: '__ZN73_$LT$alloc..sync..Arc$LT$T$C$A$GT$$u20$as$u20$core..ops..deref..Deref$GT$5deref17h20ee45b7952fced9E', symObjAddr: 0x6D8, symBinAddr: 0x11CAC, symSize: 0x1C }
  - { offset: 0x47EDC, size: 0x8, addend: 0x0, symName: '__ZN73_$LT$alloc..sync..Arc$LT$T$C$A$GT$$u20$as$u20$core..ops..deref..Deref$GT$5deref17h37a520122ab6d2e6E', symObjAddr: 0x6F4, symBinAddr: 0x11CC8, symSize: 0x1C }
  - { offset: 0x47F4F, size: 0x8, addend: 0x0, symName: '__ZN73_$LT$alloc..sync..Arc$LT$T$C$A$GT$$u20$as$u20$core..ops..deref..Deref$GT$5deref17h4b2845a8d5914358E', symObjAddr: 0x710, symBinAddr: 0x11CE4, symSize: 0x1C }
  - { offset: 0x47FC2, size: 0x8, addend: 0x0, symName: '__ZN73_$LT$alloc..sync..Arc$LT$T$C$A$GT$$u20$as$u20$core..ops..deref..Deref$GT$5deref17h85a447483858df41E', symObjAddr: 0x72C, symBinAddr: 0x11D00, symSize: 0x1C }
  - { offset: 0x496B6, size: 0x8, addend: 0x0, symName: '__ZN5alloc4sync12Arc$LT$T$GT$3new17h3a8d25ab45d90932E', symObjAddr: 0x0, symBinAddr: 0x115D4, symSize: 0xC8 }
  - { offset: 0x4994F, size: 0x8, addend: 0x0, symName: '__ZN5alloc4sync12Arc$LT$T$GT$3new17ha0d5f54b29bf142cE', symObjAddr: 0xC8, symBinAddr: 0x1169C, symSize: 0xC8 }
  - { offset: 0x49AEE, size: 0x8, addend: 0x0, symName: '__ZN5alloc4sync12Arc$LT$T$GT$3new17hab7a7cafdc4b78f0E', symObjAddr: 0x190, symBinAddr: 0x11764, symSize: 0xA4 }
  - { offset: 0x49C32, size: 0x8, addend: 0x0, symName: '__ZN5alloc4sync16Arc$LT$T$C$A$GT$9drop_slow17h119ab66273de267bE', symObjAddr: 0x234, symBinAddr: 0x11808, symSize: 0x74 }
  - { offset: 0x49C9F, size: 0x8, addend: 0x0, symName: '__ZN5alloc4sync16Arc$LT$T$C$A$GT$9drop_slow17h1ea2c64f2448b3bbE', symObjAddr: 0x2A8, symBinAddr: 0x1187C, symSize: 0x44 }
  - { offset: 0x49CFF, size: 0x8, addend: 0x0, symName: '__ZN5alloc4sync16Arc$LT$T$C$A$GT$9drop_slow17h5c73254a312bef30E', symObjAddr: 0x2EC, symBinAddr: 0x118C0, symSize: 0x74 }
  - { offset: 0x49D6C, size: 0x8, addend: 0x0, symName: '__ZN5alloc4sync16Arc$LT$T$C$A$GT$9drop_slow17h5cddeddff3f8557aE', symObjAddr: 0x360, symBinAddr: 0x11934, symSize: 0x74 }
  - { offset: 0x49DCC, size: 0x8, addend: 0x0, symName: '__ZN5alloc4sync16Arc$LT$T$C$A$GT$9drop_slow17h5ce265bad3315e9aE', symObjAddr: 0x3D4, symBinAddr: 0x119A8, symSize: 0x74 }
  - { offset: 0x49E2C, size: 0x8, addend: 0x0, symName: '__ZN5alloc4sync16Arc$LT$T$C$A$GT$9drop_slow17h66c4550368a78ea7E', symObjAddr: 0x448, symBinAddr: 0x11A1C, symSize: 0x44 }
  - { offset: 0x49EEE, size: 0x8, addend: 0x0, symName: '__ZN5alloc4sync16Arc$LT$T$C$A$GT$9drop_slow17h80c520096e1725e0E', symObjAddr: 0x48C, symBinAddr: 0x11A60, symSize: 0x74 }
  - { offset: 0x4A341, size: 0x8, addend: 0x0, symName: __ZN4pyo33gil8GILGuard6python17h95c667371090b42aE, symObjAddr: 0x0, symBinAddr: 0x11D1C, symSize: 0x20 }
  - { offset: 0x4A3F1, size: 0x8, addend: 0x0, symName: __ZN4pyo33gil8GILGuard6python17h95c667371090b42aE, symObjAddr: 0x0, symBinAddr: 0x11D1C, symSize: 0x20 }
  - { offset: 0x4A431, size: 0x8, addend: 0x0, symName: '__ZN5alloc3vec16Vec$LT$T$C$A$GT$7set_len18precondition_check17h08199e3dee242ac3E', symObjAddr: 0x0, symBinAddr: 0x11D3C, symSize: 0xAC }
  - { offset: 0x4A8E3, size: 0x8, addend: 0x0, symName: '__ZN5alloc3vec16Vec$LT$T$C$A$GT$7set_len18precondition_check17h08199e3dee242ac3E', symObjAddr: 0x0, symBinAddr: 0x11D3C, symSize: 0xAC }
  - { offset: 0x4A96D, size: 0x8, addend: 0x0, symName: '__ZN100_$LT$pyo3..pycell..impl_..MutableClass$u20$as$u20$pyo3..pycell..impl_..GetBorrowChecker$LT$T$GT$$GT$14borrow_checker17h5f2eb6954e678d85E', symObjAddr: 0x0, symBinAddr: 0x11DE8, symSize: 0x14 }
  - { offset: 0x4C1E1, size: 0x8, addend: 0x0, symName: '__ZN100_$LT$pyo3..pycell..impl_..MutableClass$u20$as$u20$pyo3..pycell..impl_..GetBorrowChecker$LT$T$GT$$GT$14borrow_checker17h5f2eb6954e678d85E', symObjAddr: 0x0, symBinAddr: 0x11DE8, symSize: 0x14 }
  - { offset: 0x4C21C, size: 0x8, addend: 0x0, symName: '__ZN113_$LT$pyo3..pycell..impl_..PyClassObject$LT$T$GT$$u20$as$u20$pyo3..pycell..impl_..PyClassObjectLayout$LT$T$GT$$GT$10tp_dealloc17h8e29feb6b646c709E', symObjAddr: 0x14, symBinAddr: 0x11DFC, symSize: 0xB4 }
  - { offset: 0x4C280, size: 0x8, addend: 0x0, symName: '__ZN113_$LT$pyo3..pycell..impl_..PyClassObject$LT$T$GT$$u20$as$u20$pyo3..pycell..impl_..PyClassObjectLayout$LT$T$GT$$GT$17ensure_threadsafe17h5b3acc72c50e9282E', symObjAddr: 0xC8, symBinAddr: 0x11EB0, symSize: 0x30 }
  - { offset: 0x4C2B9, size: 0x8, addend: 0x0, symName: '__ZN117_$LT$pyo3..pycell..impl_..PyClassObjectBase$LT$U$GT$$u20$as$u20$pyo3..pycell..impl_..PyClassObjectLayout$LT$T$GT$$GT$10tp_dealloc17h9fac23efd84bf34bE', symObjAddr: 0xF8, symBinAddr: 0x11EE0, symSize: 0x270 }
  - { offset: 0x4C3BC, size: 0x8, addend: 0x0, symName: '__ZN117_$LT$pyo3..pycell..impl_..PyClassObjectBase$LT$U$GT$$u20$as$u20$pyo3..pycell..impl_..PyClassObjectLayout$LT$T$GT$$GT$17ensure_threadsafe17ha0decff1bbb351c7E', symObjAddr: 0x368, symBinAddr: 0x12150, symSize: 0x10 }
  - { offset: 0x4DD1B, size: 0x8, addend: 0x0, symName: '__ZN4pyo36pycell5impl_22PyClassObject$LT$T$GT$14borrow_checker17h4f87975c3fe82b9cE', symObjAddr: 0x378, symBinAddr: 0x12160, symSize: 0x24 }
  - { offset: 0x4DD54, size: 0x8, addend: 0x0, symName: '__ZN4pyo36pycell5impl_22PyClassObject$LT$T$GT$7get_ptr17he2a1f7c417554aa7E', symObjAddr: 0x39C, symBinAddr: 0x12184, symSize: 0x24 }
  - { offset: 0x4DDF0, size: 0x8, addend: 0x0, symName: __ZN3std6thread5spawn17h11809bd88d772b86E, symObjAddr: 0x0, symBinAddr: 0x121A8, symSize: 0x8C }
  - { offset: 0x4DFE1, size: 0x8, addend: 0x0, symName: '__ZN3std6thread7Builder16spawn_unchecked_28_$u7b$$u7b$closure$u7d$$u7d$28_$u7b$$u7b$closure$u7d$$u7d$17h23c1878618e6e573E', symObjAddr: 0x1BD0, symBinAddr: 0x13D78, symSize: 0x1A4 }
  - { offset: 0x4E28B, size: 0x8, addend: 0x0, symName: '__ZN3std6thread7Builder16spawn_unchecked_28_$u7b$$u7b$closure$u7d$$u7d$28_$u7b$$u7b$closure$u7d$$u7d$17hdcc2eeb910d5b469E', symObjAddr: 0x1E04, symBinAddr: 0x13FAC, symSize: 0x1A4 }
  - { offset: 0x4E536, size: 0x8, addend: 0x0, symName: '__ZN3std6thread7Builder16spawn_unchecked_28_$u7b$$u7b$closure$u7d$$u7d$17h2270c398c20457f7E', symObjAddr: 0x10E8, symBinAddr: 0x13290, symSize: 0x14C }
  - { offset: 0x4E65F, size: 0x8, addend: 0x0, symName: '__ZN3std6thread7Builder16spawn_unchecked_28_$u7b$$u7b$closure$u7d$$u7d$17h6f36ab6b6d930505E', symObjAddr: 0x1234, symBinAddr: 0x133DC, symSize: 0x14C }
  - { offset: 0x4E7C9, size: 0x8, addend: 0x0, symName: '__ZN3std6thread7Builder16spawn_unchecked_28_$u7b$$u7b$closure$u7d$$u7d$28_$u7b$$u7b$closure$u7d$$u7d$17haca7c87b155f03b3E', symObjAddr: 0x1D74, symBinAddr: 0x13F1C, symSize: 0x90 }
  - { offset: 0x4E818, size: 0x8, addend: 0x0, symName: '__ZN3std6thread7Builder16spawn_unchecked_28_$u7b$$u7b$closure$u7d$$u7d$28_$u7b$$u7b$closure$u7d$$u7d$17hdd5977da0733646dE', symObjAddr: 0x1FA8, symBinAddr: 0x14150, symSize: 0xA0 }
  - { offset: 0x4E86C, size: 0x8, addend: 0x0, symName: '__ZN3std6thread7Builder16spawn_unchecked_28_$u7b$$u7b$closure$u7d$$u7d$28_$u7b$$u7b$closure$u7d$$u7d$28_$u7b$$u7b$closure$u7d$$u7d$17h7c16e9515fdecdf6E', symObjAddr: 0x2048, symBinAddr: 0x141F0, symSize: 0x34 }
  - { offset: 0x4E8AA, size: 0x8, addend: 0x0, symName: '__ZN3std6thread7Builder16spawn_unchecked_28_$u7b$$u7b$closure$u7d$$u7d$28_$u7b$$u7b$closure$u7d$$u7d$28_$u7b$$u7b$closure$u7d$$u7d$17hb1e7341559a88c55E', symObjAddr: 0x207C, symBinAddr: 0x14224, symSize: 0x34 }
  - { offset: 0x4E8EA, size: 0x8, addend: 0x0, symName: '__ZN3std6thread7Builder16spawn_unchecked_28_$u7b$$u7b$closure$u7d$$u7d$17ha0e43f9f469a90efE', symObjAddr: 0x1380, symBinAddr: 0x13528, symSize: 0x410 }
  - { offset: 0x4ECEF, size: 0x8, addend: 0x0, symName: '__ZN3std6thread7Builder16spawn_unchecked_28_$u7b$$u7b$closure$u7d$$u7d$17he2ca60b075dee8b4E', symObjAddr: 0x1790, symBinAddr: 0x13938, symSize: 0x440 }
  - { offset: 0x4F3FD, size: 0x8, addend: 0x0, symName: __ZN3std6thread5spawn17h11809bd88d772b86E, symObjAddr: 0x0, symBinAddr: 0x121A8, symSize: 0x8C }
  - { offset: 0x4F47A, size: 0x8, addend: 0x0, symName: __ZN3std6thread5spawn17h308ab55c8b923875E, symObjAddr: 0x8C, symBinAddr: 0x12234, symSize: 0xA0 }
  - { offset: 0x4F57D, size: 0x8, addend: 0x0, symName: '__ZN70_$LT$std..thread..Packet$LT$T$GT$$u20$as$u20$core..ops..drop..Drop$GT$4drop28_$u7b$$u7b$closure$u7d$$u7d$17h445d728257827cf6E', symObjAddr: 0x20B0, symBinAddr: 0x14258, symSize: 0x7C }
  - { offset: 0x55748, size: 0x8, addend: 0x0, symName: __ZN3std6thread7Builder15spawn_unchecked17h17dfa6153c82adc0E, symObjAddr: 0x12C, symBinAddr: 0x122D4, symSize: 0xD0 }
  - { offset: 0x5582F, size: 0x8, addend: 0x0, symName: __ZN3std6thread7Builder15spawn_unchecked17h95ff2ad41a533cceE, symObjAddr: 0x1FC, symBinAddr: 0x123A4, symSize: 0xC4 }
  - { offset: 0x55CE3, size: 0x8, addend: 0x0, symName: __ZN3std6thread7Builder16spawn_unchecked_17h4e4f6fcecc906c5cE, symObjAddr: 0x2C0, symBinAddr: 0x12468, symSize: 0x6E8 }
  - { offset: 0x566F3, size: 0x8, addend: 0x0, symName: __ZN3std6thread7Builder16spawn_unchecked_17h929da48a0624a740E, symObjAddr: 0x9A8, symBinAddr: 0x12B50, symSize: 0x740 }
  - { offset: 0x57901, size: 0x8, addend: 0x0, symName: '__ZN3std3ffi6os_str85_$LT$impl$u20$core..convert..AsRef$LT$std..ffi..os_str..OsStr$GT$$u20$for$u20$str$GT$6as_ref17h1499ba97f16a590cE', symObjAddr: 0x0, symBinAddr: 0x14328, symSize: 0x18 }
  - { offset: 0x57922, size: 0x8, addend: 0x0, symName: '__ZN3std3ffi6os_str85_$LT$impl$u20$core..convert..AsRef$LT$std..ffi..os_str..OsStr$GT$$u20$for$u20$str$GT$6as_ref17h1499ba97f16a590cE', symObjAddr: 0x0, symBinAddr: 0x14328, symSize: 0x18 }
  - { offset: 0x57A0A, size: 0x8, addend: 0x0, symName: __ZN4core3cmp3Ord3min17h14c62731dd02d9fbE, symObjAddr: 0x0, symBinAddr: 0x14340, symSize: 0x80 }
  - { offset: 0x57A5C, size: 0x8, addend: 0x0, symName: __ZN4core3cmp3Ord3min17h14c62731dd02d9fbE, symObjAddr: 0x0, symBinAddr: 0x14340, symSize: 0x80 }
  - { offset: 0x57B04, size: 0x8, addend: 0x0, symName: '__ZN76_$LT$std..sys..pal..unix..time..Timespec$u20$as$u20$core..cmp..PartialEq$GT$2eq17h25ea98949a3b6f49E', symObjAddr: 0x0, symBinAddr: 0x143C0, symSize: 0x78 }
  - { offset: 0x57B9E, size: 0x8, addend: 0x0, symName: '__ZN76_$LT$std..sys..pal..unix..time..Timespec$u20$as$u20$core..cmp..PartialEq$GT$2eq17h25ea98949a3b6f49E', symObjAddr: 0x0, symBinAddr: 0x143C0, symSize: 0x78 }
  - { offset: 0x57C56, size: 0x8, addend: 0x0, symName: '__ZN185_$LT$core..ops..control_flow..ControlFlow$LT$B$C$C$GT$$u20$as$u20$core..ops..try_trait..FromResidual$LT$core..ops..control_flow..ControlFlow$LT$B$C$core..convert..Infallible$GT$$GT$$GT$13from_residual17h693be1ae3a73ca7fE', symObjAddr: 0x0, symBinAddr: 0x14438, symSize: 0x18 }
  - { offset: 0x57C95, size: 0x8, addend: 0x0, symName: '__ZN185_$LT$core..ops..control_flow..ControlFlow$LT$B$C$C$GT$$u20$as$u20$core..ops..try_trait..FromResidual$LT$core..ops..control_flow..ControlFlow$LT$B$C$core..convert..Infallible$GT$$GT$$GT$13from_residual17h693be1ae3a73ca7fE', symObjAddr: 0x0, symBinAddr: 0x14438, symSize: 0x18 }
  - { offset: 0x57CD9, size: 0x8, addend: 0x0, symName: '__ZN95_$LT$core..ops..control_flow..ControlFlow$LT$B$C$C$GT$$u20$as$u20$core..ops..try_trait..Try$GT$11from_output17hce8fb76bbe613e47E', symObjAddr: 0x18, symBinAddr: 0x14450, symSize: 0x10 }
  - { offset: 0x57D17, size: 0x8, addend: 0x0, symName: '__ZN95_$LT$core..ops..control_flow..ControlFlow$LT$B$C$C$GT$$u20$as$u20$core..ops..try_trait..Try$GT$6branch17h0ce289294581343cE', symObjAddr: 0x28, symBinAddr: 0x14460, symSize: 0x54 }
  - { offset: 0x58455, size: 0x8, addend: 0x0, symName: '__ZN119_$LT$pyo3..instance..Bound$LT$pyo3..types..typeobject..PyType$GT$$u20$as$u20$pyo3..types..typeobject..PyTypeMethods$GT$11as_type_ptr17ha32874132d38690cE', symObjAddr: 0x0, symBinAddr: 0x144B4, symSize: 0x24 }
  - { offset: 0x596D4, size: 0x8, addend: 0x0, symName: '__ZN119_$LT$pyo3..instance..Bound$LT$pyo3..types..typeobject..PyType$GT$$u20$as$u20$pyo3..types..typeobject..PyTypeMethods$GT$11as_type_ptr17ha32874132d38690cE', symObjAddr: 0x0, symBinAddr: 0x144B4, symSize: 0x24 }
  - { offset: 0x59E05, size: 0x8, addend: 0x0, symName: '__ZN4pyo38instance36Bound$LT$pyo3..types..any..PyAny$GT$14from_owned_ptr17h1f29963ecd7751fbE', symObjAddr: 0x24, symBinAddr: 0x144D8, symSize: 0x2C }
  - { offset: 0x59E4D, size: 0x8, addend: 0x0, symName: '__ZN4pyo38instance39Borrowed$LT$pyo3..types..any..PyAny$GT$15from_ptr_or_opt17h87ceef1192844f95E', symObjAddr: 0x50, symBinAddr: 0x14504, symSize: 0x2C }
  - { offset: 0x59E8B, size: 0x8, addend: 0x0, symName: '__ZN4pyo38instance39Borrowed$LT$pyo3..types..any..PyAny$GT$18from_ptr_unchecked17h21f99f5df295a739E', symObjAddr: 0x7C, symBinAddr: 0x14530, symSize: 0x2C }
  - { offset: 0x59EC9, size: 0x8, addend: 0x0, symName: '__ZN4pyo38instance39Borrowed$LT$pyo3..types..any..PyAny$GT$8from_ptr17ha6f98d38e8707136E', symObjAddr: 0xA8, symBinAddr: 0x1455C, symSize: 0x34 }
  - { offset: 0x59F32, size: 0x8, addend: 0x0, symName: '__ZN97_$LT$alloc..ffi..c_str..CString$u20$as$u20$core..borrow..Borrow$LT$core..ffi..c_str..CStr$GT$$GT$6borrow17hd9e88540f9d314f1E', symObjAddr: 0x0, symBinAddr: 0x14590, symSize: 0x20 }
  - { offset: 0x59FB8, size: 0x8, addend: 0x0, symName: '__ZN97_$LT$alloc..ffi..c_str..CString$u20$as$u20$core..borrow..Borrow$LT$core..ffi..c_str..CStr$GT$$GT$6borrow17hd9e88540f9d314f1E', symObjAddr: 0x0, symBinAddr: 0x14590, symSize: 0x20 }
  - { offset: 0x5A13D, size: 0x8, addend: 0x0, symName: __ZN4pyo36marker6Python8with_gil17h10c9550692fbe249E, symObjAddr: 0x0, symBinAddr: 0x145B0, symSize: 0xFC }
  - { offset: 0x5D169, size: 0x8, addend: 0x0, symName: __ZN4pyo36marker6Python8with_gil17h10c9550692fbe249E, symObjAddr: 0x0, symBinAddr: 0x145B0, symSize: 0xFC }
  - { offset: 0x5D1C2, size: 0x8, addend: 0x0, symName: __ZN4pyo36marker6Python8with_gil17h84ebb4bccb46bbc8E, symObjAddr: 0xFC, symBinAddr: 0x146AC, symSize: 0xE0 }
  - { offset: 0x5D20D, size: 0x8, addend: 0x0, symName: __ZN4pyo36marker6Python8with_gil17hcbe5663418e62b0bE, symObjAddr: 0x1DC, symBinAddr: 0x1478C, symSize: 0xE4 }
  - { offset: 0x5D277, size: 0x8, addend: 0x0, symName: '__ZN59_$LT$std..time..Instant$u20$as$u20$core..cmp..PartialEq$GT$2eq17hf17a56895e3b1787E', symObjAddr: 0x0, symBinAddr: 0x14870, symSize: 0x3C }
  - { offset: 0x5D311, size: 0x8, addend: 0x0, symName: '__ZN59_$LT$std..time..Instant$u20$as$u20$core..cmp..PartialEq$GT$2eq17hf17a56895e3b1787E', symObjAddr: 0x0, symBinAddr: 0x14870, symSize: 0x3C }
  - { offset: 0x5D3FC, size: 0x8, addend: 0x0, symName: __ZN17crossbeam_channel7flavors4tick7Channel4recv17hd5821c90823e71a3E, symObjAddr: 0x0, symBinAddr: 0x148AC, symSize: 0x170 }
  - { offset: 0x5D6FE, size: 0x8, addend: 0x0, symName: __ZN17crossbeam_channel7flavors4tick7Channel4recv17hd5821c90823e71a3E, symObjAddr: 0x0, symBinAddr: 0x148AC, symSize: 0x170 }
  - { offset: 0x5D78C, size: 0x8, addend: 0x0, symName: '__ZN4core3ptr9const_ptr33_$LT$impl$u20$$BP$const$u20$T$GT$7is_null17h75e4872c66a8af34E', symObjAddr: 0x0, symBinAddr: 0x14A1C, symSize: 0x18 }
  - { offset: 0x5DFA0, size: 0x8, addend: 0x0, symName: '__ZN4core3ptr9const_ptr33_$LT$impl$u20$$BP$const$u20$T$GT$7is_null17h75e4872c66a8af34E', symObjAddr: 0x0, symBinAddr: 0x14A1C, symSize: 0x18 }
  - { offset: 0x5E25E, size: 0x8, addend: 0x0, symName: '__ZN4core5slice29_$LT$impl$u20$$u5b$T$u5d$$GT$15copy_from_slice17hd053b13c857423a1E', symObjAddr: 0x18, symBinAddr: 0x14A34, symSize: 0xAC }
  - { offset: 0x5E329, size: 0x8, addend: 0x0, symName: '__ZN4core5slice29_$LT$impl$u20$$u5b$T$u5d$$GT$18split_at_unchecked17h456b9c8243e90cb4E', symObjAddr: 0xC4, symBinAddr: 0x14AE0, symSize: 0xEC }
  - { offset: 0x5E4B5, size: 0x8, addend: 0x0, symName: '__ZN4core5slice29_$LT$impl$u20$$u5b$T$u5d$$GT$8split_at17hdd06fa7ee17b1c0aE', symObjAddr: 0x1B0, symBinAddr: 0x14BCC, symSize: 0xD8 }
  - { offset: 0x6299F, size: 0x8, addend: 0x0, symName: '__ZN4core6option15Option$LT$T$GT$3map17h367011e93d282081E', symObjAddr: 0x288, symBinAddr: 0x14CA4, symSize: 0x70 }
  - { offset: 0x62D17, size: 0x8, addend: 0x0, symName: '__ZN4core6option15Option$LT$T$GT$3map17ha3f40d1f5627f5b3E', symObjAddr: 0x2F8, symBinAddr: 0x14D14, symSize: 0x54 }
  - { offset: 0x62D82, size: 0x8, addend: 0x0, symName: '__ZN4core6option15Option$LT$T$GT$3map17hbe0a5bc5de045249E', symObjAddr: 0x34C, symBinAddr: 0x14D68, symSize: 0x54 }
  - { offset: 0x62DFA, size: 0x8, addend: 0x0, symName: '__ZN4core6option15Option$LT$T$GT$3map17hc1b6958611fcb577E', symObjAddr: 0x3A0, symBinAddr: 0x14DBC, symSize: 0x5C }
  - { offset: 0x62E72, size: 0x8, addend: 0x0, symName: '__ZN4core6option15Option$LT$T$GT$3map17hc2e38f12bd86cff6E', symObjAddr: 0x3FC, symBinAddr: 0x14E18, symSize: 0x50 }
  - { offset: 0x62EEA, size: 0x8, addend: 0x0, symName: '__ZN4core6option15Option$LT$T$GT$3map17hf00d6e0f17598ddfE', symObjAddr: 0x44C, symBinAddr: 0x14E68, symSize: 0x50 }
  - { offset: 0x62F96, size: 0x8, addend: 0x0, symName: '__ZN4core6option15Option$LT$T$GT$4take17h000491fec0b9947dE', symObjAddr: 0x49C, symBinAddr: 0x14EB8, symSize: 0x60 }
  - { offset: 0x62FFA, size: 0x8, addend: 0x0, symName: '__ZN4core6option15Option$LT$T$GT$4take17h02e6ec85132f1a8aE', symObjAddr: 0x4FC, symBinAddr: 0x14F18, symSize: 0x60 }
  - { offset: 0x63085, size: 0x8, addend: 0x0, symName: '__ZN4core6option15Option$LT$T$GT$4take17h09900ecf08d62971E', symObjAddr: 0x55C, symBinAddr: 0x14F78, symSize: 0x3C }
  - { offset: 0x630E9, size: 0x8, addend: 0x0, symName: '__ZN4core6option15Option$LT$T$GT$4take17h13e9a33ec7e25326E', symObjAddr: 0x598, symBinAddr: 0x14FB4, symSize: 0x60 }
  - { offset: 0x6314D, size: 0x8, addend: 0x0, symName: '__ZN4core6option15Option$LT$T$GT$4take17h270e761194ee2e9fE', symObjAddr: 0x5F8, symBinAddr: 0x15014, symSize: 0x3C }
  - { offset: 0x631B1, size: 0x8, addend: 0x0, symName: '__ZN4core6option15Option$LT$T$GT$4take17h273c1e55b43d3f23E', symObjAddr: 0x634, symBinAddr: 0x15050, symSize: 0x3C }
  - { offset: 0x6322F, size: 0x8, addend: 0x0, symName: '__ZN4core6option15Option$LT$T$GT$4take17h53f49ae2eb30b354E', symObjAddr: 0x670, symBinAddr: 0x1508C, symSize: 0x3C }
  - { offset: 0x63293, size: 0x8, addend: 0x0, symName: '__ZN4core6option15Option$LT$T$GT$4take17h6e6e40928746a8f9E', symObjAddr: 0x6AC, symBinAddr: 0x150C8, symSize: 0x3C }
  - { offset: 0x632F7, size: 0x8, addend: 0x0, symName: '__ZN4core6option15Option$LT$T$GT$4take17h899ca2736649a6f2E', symObjAddr: 0x6E8, symBinAddr: 0x15104, symSize: 0x3C }
  - { offset: 0x6334E, size: 0x8, addend: 0x0, symName: '__ZN4core6option15Option$LT$T$GT$4take17h9d55b3989e429568E', symObjAddr: 0x724, symBinAddr: 0x15140, symSize: 0x3C }
  - { offset: 0x633A5, size: 0x8, addend: 0x0, symName: '__ZN4core6option15Option$LT$T$GT$4take17ha9a66a370fa683d6E', symObjAddr: 0x760, symBinAddr: 0x1517C, symSize: 0x60 }
  - { offset: 0x633FC, size: 0x8, addend: 0x0, symName: '__ZN4core6option15Option$LT$T$GT$4take17habead09fa6b04a73E', symObjAddr: 0x7C0, symBinAddr: 0x151DC, symSize: 0x60 }
  - { offset: 0x63453, size: 0x8, addend: 0x0, symName: '__ZN4core6option15Option$LT$T$GT$4take17hc71eeb715d7d8e65E', symObjAddr: 0x820, symBinAddr: 0x1523C, symSize: 0x3C }
  - { offset: 0x634DE, size: 0x8, addend: 0x0, symName: '__ZN4core6option15Option$LT$T$GT$6as_ref17he7781233ed6e101aE', symObjAddr: 0x85C, symBinAddr: 0x15278, symSize: 0x4C }
  - { offset: 0x63553, size: 0x8, addend: 0x0, symName: '__ZN4core6option15Option$LT$T$GT$6expect17h2b9edfcfe0341ef2E', symObjAddr: 0x8A8, symBinAddr: 0x152C4, symSize: 0x5C }
  - { offset: 0x636F8, size: 0x8, addend: 0x0, symName: '__ZN4core6option15Option$LT$T$GT$6insert17h3cd5dffd84ea53b9E', symObjAddr: 0x904, symBinAddr: 0x15320, symSize: 0xA8 }
  - { offset: 0x637C4, size: 0x8, addend: 0x0, symName: '__ZN4core6option15Option$LT$T$GT$7is_none17h905e07dc54ef3099E', symObjAddr: 0x9AC, symBinAddr: 0x153C8, symSize: 0x28 }
  - { offset: 0x63844, size: 0x8, addend: 0x0, symName: '__ZN4core6option15Option$LT$T$GT$7is_none17hdc79547070a6f1f7E', symObjAddr: 0x9D4, symBinAddr: 0x153F0, symSize: 0x28 }
  - { offset: 0x6388E, size: 0x8, addend: 0x0, symName: '__ZN4core6option15Option$LT$T$GT$7is_some17h33f2f471e204c5b9E', symObjAddr: 0x9FC, symBinAddr: 0x15418, symSize: 0x28 }
  - { offset: 0x638C7, size: 0x8, addend: 0x0, symName: '__ZN4core6option15Option$LT$T$GT$7is_some17hbf0acdfc4c414cd3E', symObjAddr: 0xA24, symBinAddr: 0x15440, symSize: 0x28 }
  - { offset: 0x63900, size: 0x8, addend: 0x0, symName: '__ZN4core6option15Option$LT$T$GT$7replace17h42249913e4742f8cE', symObjAddr: 0xA4C, symBinAddr: 0x15468, symSize: 0x28 }
  - { offset: 0x63A13, size: 0x8, addend: 0x0, symName: '__ZN4core6option15Option$LT$T$GT$8as_deref17hb1519fefbb05f607E', symObjAddr: 0xA74, symBinAddr: 0x15490, symSize: 0x6C }
  - { offset: 0x63ABC, size: 0x8, addend: 0x0, symName: '__ZN4core6option15Option$LT$T$GT$9unwrap_or17hdd7f23f5bf11365dE', symObjAddr: 0xAE0, symBinAddr: 0x154FC, symSize: 0x5C }
  - { offset: 0x63B33, size: 0x8, addend: 0x0, symName: __ZN4core3fmt2rt8Argument11new_display17h0b5b643fae336975E, symObjAddr: 0x0, symBinAddr: 0x15558, symSize: 0x2C }
  - { offset: 0x63DE7, size: 0x8, addend: 0x0, symName: __ZN4core3fmt2rt8Argument11new_display17h0b5b643fae336975E, symObjAddr: 0x0, symBinAddr: 0x15558, symSize: 0x2C }
  - { offset: 0x63E30, size: 0x8, addend: 0x0, symName: '__ZN17crossbeam_channel7flavors4list13Slot$LT$T$GT$10wait_write17h05cd2a3b522df970E', symObjAddr: 0x0, symBinAddr: 0x15584, symSize: 0x54 }
  - { offset: 0x647C9, size: 0x8, addend: 0x0, symName: '__ZN4core3ptr7mut_ptr31_$LT$impl$u20$$BP$mut$u20$T$GT$7is_null17h5e8f6650e960f498E', symObjAddr: 0x42C4, symBinAddr: 0x19848, symSize: 0x18 }
  - { offset: 0x64828, size: 0x8, addend: 0x0, symName: '__ZN4core3ptr7mut_ptr31_$LT$impl$u20$$BP$mut$u20$T$GT$7is_null17hca9384cf8c374161E', symObjAddr: 0x42DC, symBinAddr: 0x19860, symSize: 0x18 }
  - { offset: 0x64887, size: 0x8, addend: 0x0, symName: '__ZN4core3ptr7mut_ptr31_$LT$impl$u20$$BP$mut$u20$T$GT$7is_null17hdeed2fd30b659855E', symObjAddr: 0x42F4, symBinAddr: 0x19878, symSize: 0x18 }
  - { offset: 0x66358, size: 0x8, addend: 0x0, symName: '__ZN4core5slice29_$LT$impl$u20$$u5b$T$u5d$$GT$13get_unchecked17h1943c6012417a52cE', symObjAddr: 0x430C, symBinAddr: 0x19890, symSize: 0x44 }
  - { offset: 0x663A7, size: 0x8, addend: 0x0, symName: '__ZN4core5slice29_$LT$impl$u20$$u5b$T$u5d$$GT$13get_unchecked17h327fa3692931bc61E', symObjAddr: 0x4350, symBinAddr: 0x198D4, symSize: 0x44 }
  - { offset: 0x663F6, size: 0x8, addend: 0x0, symName: '__ZN4core5slice29_$LT$impl$u20$$u5b$T$u5d$$GT$13get_unchecked17h45968e644115a601E', symObjAddr: 0x4394, symBinAddr: 0x19918, symSize: 0x44 }
  - { offset: 0x66D3B, size: 0x8, addend: 0x0, symName: '__ZN17crossbeam_channel7flavors4list16Channel$LT$T$GT$4recv28_$u7b$$u7b$closure$u7d$$u7d$17h0919ecf73bae13b3E', symObjAddr: 0x3768, symBinAddr: 0x18CEC, symSize: 0x14 }
  - { offset: 0x66D79, size: 0x8, addend: 0x0, symName: '__ZN17crossbeam_channel7flavors4list16Channel$LT$T$GT$4recv28_$u7b$$u7b$closure$u7d$$u7d$17h443e700f4cc1e8e6E', symObjAddr: 0x377C, symBinAddr: 0x18D00, symSize: 0x140 }
  - { offset: 0x66E3A, size: 0x8, addend: 0x0, symName: '__ZN17crossbeam_channel7flavors4list16Channel$LT$T$GT$4recv28_$u7b$$u7b$closure$u7d$$u7d$17h4b3a8a1476e52dd0E', symObjAddr: 0x38BC, symBinAddr: 0x18E40, symSize: 0x140 }
  - { offset: 0x66EFB, size: 0x8, addend: 0x0, symName: '__ZN17crossbeam_channel7flavors4list16Channel$LT$T$GT$4recv28_$u7b$$u7b$closure$u7d$$u7d$17hb129d86d16e3aea3E', symObjAddr: 0x39FC, symBinAddr: 0x18F80, symSize: 0x14 }
  - { offset: 0x66F39, size: 0x8, addend: 0x0, symName: '__ZN17crossbeam_channel7flavors4list16Channel$LT$T$GT$4recv28_$u7b$$u7b$closure$u7d$$u7d$17hbec4a2ecfb8d39b4E', symObjAddr: 0x3A10, symBinAddr: 0x18F94, symSize: 0x14 }
  - { offset: 0x66F77, size: 0x8, addend: 0x0, symName: '__ZN17crossbeam_channel7flavors4list16Channel$LT$T$GT$4recv28_$u7b$$u7b$closure$u7d$$u7d$17he08c7a72c2b2b81bE', symObjAddr: 0x3A24, symBinAddr: 0x18FA8, symSize: 0x140 }
  - { offset: 0x68068, size: 0x8, addend: 0x0, symName: '__ZN17crossbeam_channel7flavors4list13Slot$LT$T$GT$10wait_write17h05cd2a3b522df970E', symObjAddr: 0x0, symBinAddr: 0x15584, symSize: 0x54 }
  - { offset: 0x680BD, size: 0x8, addend: 0x0, symName: '__ZN17crossbeam_channel7flavors4list13Slot$LT$T$GT$10wait_write17h5fdfa465d942091fE', symObjAddr: 0x54, symBinAddr: 0x155D8, symSize: 0x54 }
  - { offset: 0x68112, size: 0x8, addend: 0x0, symName: '__ZN17crossbeam_channel7flavors4list13Slot$LT$T$GT$10wait_write17hfb0df5ddf4e6f249E', symObjAddr: 0xA8, symBinAddr: 0x1562C, symSize: 0x54 }
  - { offset: 0x68181, size: 0x8, addend: 0x0, symName: '__ZN17crossbeam_channel7flavors4list14Block$LT$T$GT$3new17h668c5ca70b1db236E', symObjAddr: 0xFC, symBinAddr: 0x15680, symSize: 0x68 }
  - { offset: 0x681DA, size: 0x8, addend: 0x0, symName: '__ZN17crossbeam_channel7flavors4list14Block$LT$T$GT$3new17h79bf96ec563c517aE', symObjAddr: 0x164, symBinAddr: 0x156E8, symSize: 0x68 }
  - { offset: 0x6820C, size: 0x8, addend: 0x0, symName: '__ZN17crossbeam_channel7flavors4list14Block$LT$T$GT$7destroy17h28e7a174ccb8e24fE', symObjAddr: 0x1CC, symBinAddr: 0x15750, symSize: 0x130 }
  - { offset: 0x68284, size: 0x8, addend: 0x0, symName: '__ZN17crossbeam_channel7flavors4list14Block$LT$T$GT$7destroy17hd5cf66001ad2475dE', symObjAddr: 0x2FC, symBinAddr: 0x15880, symSize: 0x130 }
  - { offset: 0x682FC, size: 0x8, addend: 0x0, symName: '__ZN17crossbeam_channel7flavors4list14Block$LT$T$GT$7destroy17hf0c099396283334aE', symObjAddr: 0x42C, symBinAddr: 0x159B0, symSize: 0x130 }
  - { offset: 0x68381, size: 0x8, addend: 0x0, symName: '__ZN17crossbeam_channel7flavors4list14Block$LT$T$GT$9wait_next17h5716465c58abb00fE', symObjAddr: 0x55C, symBinAddr: 0x15AE0, symSize: 0x6C }
  - { offset: 0x683E3, size: 0x8, addend: 0x0, symName: '__ZN17crossbeam_channel7flavors4list14Block$LT$T$GT$9wait_next17hae18639e053526a1E', symObjAddr: 0x5C8, symBinAddr: 0x15B4C, symSize: 0x6C }
  - { offset: 0x68445, size: 0x8, addend: 0x0, symName: '__ZN17crossbeam_channel7flavors4list14Block$LT$T$GT$9wait_next17hdd1d89859f814f10E', symObjAddr: 0x634, symBinAddr: 0x15BB8, symSize: 0x6C }
  - { offset: 0x684B4, size: 0x8, addend: 0x0, symName: '__ZN17crossbeam_channel7flavors4list16Channel$LT$T$GT$10start_recv17h5985d8190266d4beE', symObjAddr: 0x6A0, symBinAddr: 0x15C24, symSize: 0x3F0 }
  - { offset: 0x685F7, size: 0x8, addend: 0x0, symName: '__ZN17crossbeam_channel7flavors4list16Channel$LT$T$GT$10start_recv17h72c047805f4a2c28E', symObjAddr: 0xA90, symBinAddr: 0x16014, symSize: 0x3F0 }
  - { offset: 0x6873A, size: 0x8, addend: 0x0, symName: '__ZN17crossbeam_channel7flavors4list16Channel$LT$T$GT$10start_recv17he0c6f75b79565169E', symObjAddr: 0xE80, symBinAddr: 0x16404, symSize: 0x3F0 }
  - { offset: 0x688E4, size: 0x8, addend: 0x0, symName: '__ZN17crossbeam_channel7flavors4list16Channel$LT$T$GT$10start_send17h2b0fc4dbc37fc857E', symObjAddr: 0x1270, symBinAddr: 0x167F4, symSize: 0x6C0 }
  - { offset: 0x68A49, size: 0x8, addend: 0x0, symName: '__ZN17crossbeam_channel7flavors4list16Channel$LT$T$GT$10start_send17hce5b052edf58d0adE', symObjAddr: 0x1930, symBinAddr: 0x16EB4, symSize: 0x6C0 }
  - { offset: 0x68B83, size: 0x8, addend: 0x0, symName: '__ZN17crossbeam_channel7flavors4list16Channel$LT$T$GT$15is_disconnected17h0c6650641b44d4e0E', symObjAddr: 0x1FF0, symBinAddr: 0x17574, symSize: 0x34 }
  - { offset: 0x68BAF, size: 0x8, addend: 0x0, symName: '__ZN17crossbeam_channel7flavors4list16Channel$LT$T$GT$15is_disconnected17h129ed87b0b5821ceE', symObjAddr: 0x2024, symBinAddr: 0x175A8, symSize: 0x34 }
  - { offset: 0x68BDB, size: 0x8, addend: 0x0, symName: '__ZN17crossbeam_channel7flavors4list16Channel$LT$T$GT$15is_disconnected17hf555e43ebe0b84afE', symObjAddr: 0x2058, symBinAddr: 0x175DC, symSize: 0x34 }
  - { offset: 0x68C07, size: 0x8, addend: 0x0, symName: '__ZN17crossbeam_channel7flavors4list16Channel$LT$T$GT$18disconnect_senders17h01146aadb1b23824E', symObjAddr: 0x208C, symBinAddr: 0x17610, symSize: 0x70 }
  - { offset: 0x68C51, size: 0x8, addend: 0x0, symName: '__ZN17crossbeam_channel7flavors4list16Channel$LT$T$GT$18disconnect_senders17h9acb1f10c8df09d1E', symObjAddr: 0x20FC, symBinAddr: 0x17680, symSize: 0x70 }
  - { offset: 0x68C9B, size: 0x8, addend: 0x0, symName: '__ZN17crossbeam_channel7flavors4list16Channel$LT$T$GT$18disconnect_senders17he9a0367c6176fd42E', symObjAddr: 0x216C, symBinAddr: 0x176F0, symSize: 0x70 }
  - { offset: 0x68CE5, size: 0x8, addend: 0x0, symName: '__ZN17crossbeam_channel7flavors4list16Channel$LT$T$GT$20discard_all_messages17h2c8f30816c5bbd63E', symObjAddr: 0x21DC, symBinAddr: 0x17760, symSize: 0x36C }
  - { offset: 0x68DFB, size: 0x8, addend: 0x0, symName: '__ZN17crossbeam_channel7flavors4list16Channel$LT$T$GT$20discard_all_messages17h9ed4a1e51f010907E', symObjAddr: 0x2548, symBinAddr: 0x17ACC, symSize: 0x36C }
  - { offset: 0x68F11, size: 0x8, addend: 0x0, symName: '__ZN17crossbeam_channel7flavors4list16Channel$LT$T$GT$20discard_all_messages17he796e3712d89a515E', symObjAddr: 0x28B4, symBinAddr: 0x17E38, symSize: 0x36C }
  - { offset: 0x69027, size: 0x8, addend: 0x0, symName: '__ZN17crossbeam_channel7flavors4list16Channel$LT$T$GT$20disconnect_receivers17h156017a04efb31fbE', symObjAddr: 0x2C20, symBinAddr: 0x181A4, symSize: 0x6C }
  - { offset: 0x69071, size: 0x8, addend: 0x0, symName: '__ZN17crossbeam_channel7flavors4list16Channel$LT$T$GT$20disconnect_receivers17ha14c45647bd81c5bE', symObjAddr: 0x2C8C, symBinAddr: 0x18210, symSize: 0x6C }
  - { offset: 0x690BB, size: 0x8, addend: 0x0, symName: '__ZN17crossbeam_channel7flavors4list16Channel$LT$T$GT$20disconnect_receivers17hff4014a5c7c2544fE', symObjAddr: 0x2CF8, symBinAddr: 0x1827C, symSize: 0x6C }
  - { offset: 0x69148, size: 0x8, addend: 0x0, symName: '__ZN17crossbeam_channel7flavors4list16Channel$LT$T$GT$4read17h28cdcd80cd984e90E', symObjAddr: 0x2D64, symBinAddr: 0x182E8, symSize: 0x1F4 }
  - { offset: 0x692CE, size: 0x8, addend: 0x0, symName: '__ZN17crossbeam_channel7flavors4list16Channel$LT$T$GT$4read17h5f4cc14af9378827E', symObjAddr: 0x2F58, symBinAddr: 0x184DC, symSize: 0x234 }
  - { offset: 0x69457, size: 0x8, addend: 0x0, symName: '__ZN17crossbeam_channel7flavors4list16Channel$LT$T$GT$4read17hc3adaa500dfb4383E', symObjAddr: 0x318C, symBinAddr: 0x18710, symSize: 0x230 }
  - { offset: 0x6959C, size: 0x8, addend: 0x0, symName: '__ZN17crossbeam_channel7flavors4list16Channel$LT$T$GT$4recv17hb31df963edbc3aa6E', symObjAddr: 0x33BC, symBinAddr: 0x18940, symSize: 0x12C }
  - { offset: 0x6962B, size: 0x8, addend: 0x0, symName: '__ZN17crossbeam_channel7flavors4list16Channel$LT$T$GT$4recv17hb597779e2b04dc99E', symObjAddr: 0x34E8, symBinAddr: 0x18A6C, symSize: 0x140 }
  - { offset: 0x696BA, size: 0x8, addend: 0x0, symName: '__ZN17crossbeam_channel7flavors4list16Channel$LT$T$GT$4recv17hf1004c1e537f6861E', symObjAddr: 0x3628, symBinAddr: 0x18BAC, symSize: 0x140 }
  - { offset: 0x69774, size: 0x8, addend: 0x0, symName: '__ZN17crossbeam_channel7flavors4list16Channel$LT$T$GT$4send17h2698d3e117463861E', symObjAddr: 0x3B64, symBinAddr: 0x190E8, symSize: 0x108 }
  - { offset: 0x697DD, size: 0x8, addend: 0x0, symName: '__ZN17crossbeam_channel7flavors4list16Channel$LT$T$GT$4send17h53edfdeb6c96c562E', symObjAddr: 0x3C6C, symBinAddr: 0x191F0, symSize: 0x114 }
  - { offset: 0x698A8, size: 0x8, addend: 0x0, symName: '__ZN17crossbeam_channel7flavors4list16Channel$LT$T$GT$5write17had39314219865e83E', symObjAddr: 0x3D80, symBinAddr: 0x19304, symSize: 0x210 }
  - { offset: 0x69A69, size: 0x8, addend: 0x0, symName: '__ZN17crossbeam_channel7flavors4list16Channel$LT$T$GT$5write17he1253e3f4f14ce79E', symObjAddr: 0x3F90, symBinAddr: 0x19514, symSize: 0x208 }
  - { offset: 0x69BC8, size: 0x8, addend: 0x0, symName: '__ZN17crossbeam_channel7flavors4list16Channel$LT$T$GT$8is_empty17h010cae9551af57fcE', symObjAddr: 0x4198, symBinAddr: 0x1971C, symSize: 0x64 }
  - { offset: 0x69C30, size: 0x8, addend: 0x0, symName: '__ZN17crossbeam_channel7flavors4list16Channel$LT$T$GT$8is_empty17h8b3e2b4dbc10adecE', symObjAddr: 0x41FC, symBinAddr: 0x19780, symSize: 0x64 }
  - { offset: 0x69C98, size: 0x8, addend: 0x0, symName: '__ZN17crossbeam_channel7flavors4list16Channel$LT$T$GT$8is_empty17he98be04915ab355aE', symObjAddr: 0x4260, symBinAddr: 0x197E4, symSize: 0x64 }
  - { offset: 0x69DAD, size: 0x8, addend: 0x0, symName: __ZN4pyo35types10typeobject6PyType22from_borrowed_type_ptr17hc375b4a308d69ae6E, symObjAddr: 0x0, symBinAddr: 0x1995C, symSize: 0x34 }
  - { offset: 0x6B4DC, size: 0x8, addend: 0x0, symName: __ZN4pyo35types10typeobject6PyType22from_borrowed_type_ptr17hc375b4a308d69ae6E, symObjAddr: 0x0, symBinAddr: 0x1995C, symSize: 0x34 }
  - { offset: 0x6B535, size: 0x8, addend: 0x0, symName: __ZN3std3env6var_os17h0b9d21c6dccd0891E, symObjAddr: 0x0, symBinAddr: 0x19990, symSize: 0x68 }
  - { offset: 0x6B54C, size: 0x8, addend: 0x0, symName: __ZN3std3env6var_os17h0b9d21c6dccd0891E, symObjAddr: 0x0, symBinAddr: 0x19990, symSize: 0x68 }
  - { offset: 0x6B7F7, size: 0x8, addend: 0x0, symName: '__ZN17crossbeam_channel7flavors5never16Channel$LT$T$GT$4recv17h05955f10f2e8de6eE', symObjAddr: 0x0, symBinAddr: 0x199F8, symSize: 0x48 }
  - { offset: 0x6DC34, size: 0x8, addend: 0x0, symName: '__ZN17crossbeam_channel7flavors5never16Channel$LT$T$GT$4recv17h05955f10f2e8de6eE', symObjAddr: 0x0, symBinAddr: 0x199F8, symSize: 0x48 }
  - { offset: 0x6E075, size: 0x8, addend: 0x0, symName: '__ZN17crossbeam_channel7flavors5never16Channel$LT$T$GT$4recv17h3328bb26af3c852cE', symObjAddr: 0x48, symBinAddr: 0x19A40, symSize: 0x48 }
  - { offset: 0x6E0BB, size: 0x8, addend: 0x0, symName: '__ZN17crossbeam_channel7flavors5never16Channel$LT$T$GT$4recv17h38cf6df4aa89d57aE', symObjAddr: 0x90, symBinAddr: 0x19A88, symSize: 0x48 }
  - { offset: 0x6E112, size: 0x8, addend: 0x0, symName: '__ZN102_$LT$pyo3..internal..get_slot..Slot$LT$74_i32$GT$$u20$as$u20$pyo3..internal..get_slot..GetSlotImpl$GT$8get_slot17h75f4427d6df76db3E', symObjAddr: 0x0, symBinAddr: 0x19AD0, symSize: 0x74 }
  - { offset: 0x6F1A0, size: 0x8, addend: 0x0, symName: '__ZN102_$LT$pyo3..internal..get_slot..Slot$LT$74_i32$GT$$u20$as$u20$pyo3..internal..get_slot..GetSlotImpl$GT$8get_slot17h75f4427d6df76db3E', symObjAddr: 0x0, symBinAddr: 0x19AD0, symSize: 0x74 }
  - { offset: 0x6F667, size: 0x8, addend: 0x0, symName: __ZN4pyo37pyclass18create_type_object18create_type_object17heb527914c85a8e87E, symObjAddr: 0x0, symBinAddr: 0x19B44, symSize: 0x154 }
  - { offset: 0x710A7, size: 0x8, addend: 0x0, symName: __ZN4pyo37pyclass18create_type_object18create_type_object17heb527914c85a8e87E, symObjAddr: 0x0, symBinAddr: 0x19B44, symSize: 0x154 }
  - { offset: 0x72BB7, size: 0x8, addend: 0x0, symName: '__ZN111_$LT$alloc..vec..Vec$LT$T$GT$$u20$as$u20$alloc..vec..spec_from_iter_nested..SpecFromIterNested$LT$T$C$I$GT$$GT$9from_iter17h1d4d1838466b3ca2E', symObjAddr: 0x0, symBinAddr: 0x19C98, symSize: 0x164 }
  - { offset: 0x76373, size: 0x8, addend: 0x0, symName: '__ZN111_$LT$alloc..vec..Vec$LT$T$GT$$u20$as$u20$alloc..vec..spec_from_iter_nested..SpecFromIterNested$LT$T$C$I$GT$$GT$9from_iter17h1d4d1838466b3ca2E', symObjAddr: 0x0, symBinAddr: 0x19C98, symSize: 0x164 }
  - { offset: 0x76449, size: 0x8, addend: 0x0, symName: '__ZN111_$LT$alloc..vec..Vec$LT$T$GT$$u20$as$u20$alloc..vec..spec_from_iter_nested..SpecFromIterNested$LT$T$C$I$GT$$GT$9from_iter17h32d6f079e76bf2a2E', symObjAddr: 0x164, symBinAddr: 0x19DFC, symSize: 0x164 }
  - { offset: 0x7651F, size: 0x8, addend: 0x0, symName: '__ZN111_$LT$alloc..vec..Vec$LT$T$GT$$u20$as$u20$alloc..vec..spec_from_iter_nested..SpecFromIterNested$LT$T$C$I$GT$$GT$9from_iter17hd9924c85a79b7c18E', symObjAddr: 0x2C8, symBinAddr: 0x19F60, symSize: 0x164 }
  - { offset: 0x769A4, size: 0x8, addend: 0x0, symName: '__ZN72_$LT$alloc..vec..Vec$LT$T$C$A$GT$$u20$as$u20$core..ops..deref..Deref$GT$5deref17hdbffdcd53a8c4816E', symObjAddr: 0x18CC, symBinAddr: 0x1B564, symSize: 0x24 }
  - { offset: 0x76A3B, size: 0x8, addend: 0x0, symName: '__ZN5alloc3vec10partial_eq117_$LT$impl$u20$core..cmp..PartialEq$LT$alloc..vec..Vec$LT$U$C$A2$GT$$GT$$u20$for$u20$alloc..vec..Vec$LT$T$C$A1$GT$$GT$2eq17h7a3e601e440679afE', symObjAddr: 0x42C, symBinAddr: 0x1A0C4, symSize: 0xDC }
  - { offset: 0x76E66, size: 0x8, addend: 0x0, symName: '__ZN5alloc3vec16Vec$LT$T$C$A$GT$14extend_trusted28_$u7b$$u7b$closure$u7d$$u7d$17h3bd5e04ff683dbebE', symObjAddr: 0xC2C, symBinAddr: 0x1A8C4, symSize: 0x54 }
  - { offset: 0x76F24, size: 0x8, addend: 0x0, symName: '__ZN5alloc3vec16Vec$LT$T$C$A$GT$14extend_trusted28_$u7b$$u7b$closure$u7d$$u7d$17hb88c1efb5a9367a7E', symObjAddr: 0xC80, symBinAddr: 0x1A918, symSize: 0x30 }
  - { offset: 0x76FCC, size: 0x8, addend: 0x0, symName: '__ZN5alloc3vec16Vec$LT$T$C$A$GT$14extend_trusted28_$u7b$$u7b$closure$u7d$$u7d$17hc774b1540a9fa152E', symObjAddr: 0xCB0, symBinAddr: 0x1A948, symSize: 0x3C }
  - { offset: 0x770D9, size: 0x8, addend: 0x0, symName: '__ZN95_$LT$alloc..vec..Vec$LT$T$GT$$u20$as$u20$core..iter..traits..collect..FromIterator$LT$T$GT$$GT$9from_iter17h4b9e579dc1034a1fE', symObjAddr: 0x18F0, symBinAddr: 0x1B588, symSize: 0x38 }
  - { offset: 0x77119, size: 0x8, addend: 0x0, symName: '__ZN95_$LT$alloc..vec..Vec$LT$T$GT$$u20$as$u20$core..iter..traits..collect..FromIterator$LT$T$GT$$GT$9from_iter17h6655d4a6f0ed0a2aE', symObjAddr: 0x1928, symBinAddr: 0x1B5C0, symSize: 0x38 }
  - { offset: 0x77159, size: 0x8, addend: 0x0, symName: '__ZN95_$LT$alloc..vec..Vec$LT$T$GT$$u20$as$u20$core..iter..traits..collect..FromIterator$LT$T$GT$$GT$9from_iter17hab803581b20ec535E', symObjAddr: 0x1960, symBinAddr: 0x1B5F8, symSize: 0x38 }
  - { offset: 0x771A4, size: 0x8, addend: 0x0, symName: '__ZN97_$LT$alloc..vec..Vec$LT$T$C$A$GT$$u20$as$u20$alloc..vec..spec_extend..SpecExtend$LT$T$C$I$GT$$GT$11spec_extend17h06477d0b0194524aE', symObjAddr: 0x1998, symBinAddr: 0x1B630, symSize: 0x2C }
  - { offset: 0x771F5, size: 0x8, addend: 0x0, symName: '__ZN97_$LT$alloc..vec..Vec$LT$T$C$A$GT$$u20$as$u20$alloc..vec..spec_extend..SpecExtend$LT$T$C$I$GT$$GT$11spec_extend17h48223b7b48ba84ffE', symObjAddr: 0x19C4, symBinAddr: 0x1B65C, symSize: 0x2C }
  - { offset: 0x77246, size: 0x8, addend: 0x0, symName: '__ZN97_$LT$alloc..vec..Vec$LT$T$C$A$GT$$u20$as$u20$alloc..vec..spec_extend..SpecExtend$LT$T$C$I$GT$$GT$11spec_extend17hf873c3934e47bdddE', symObjAddr: 0x19F0, symBinAddr: 0x1B688, symSize: 0x2C }
  - { offset: 0x772A3, size: 0x8, addend: 0x0, symName: '__ZN98_$LT$alloc..vec..Vec$LT$T$GT$$u20$as$u20$alloc..vec..spec_from_iter..SpecFromIter$LT$T$C$I$GT$$GT$9from_iter17h063eab762c6cb7bbE', symObjAddr: 0x1A1C, symBinAddr: 0x1B6B4, symSize: 0x24 }
  - { offset: 0x772E1, size: 0x8, addend: 0x0, symName: '__ZN98_$LT$alloc..vec..Vec$LT$T$GT$$u20$as$u20$alloc..vec..spec_from_iter..SpecFromIter$LT$T$C$I$GT$$GT$9from_iter17h50b637ca2231f025E', symObjAddr: 0x1A40, symBinAddr: 0x1B6D8, symSize: 0x24 }
  - { offset: 0x7731F, size: 0x8, addend: 0x0, symName: '__ZN98_$LT$alloc..vec..Vec$LT$T$GT$$u20$as$u20$alloc..vec..spec_from_iter..SpecFromIter$LT$T$C$I$GT$$GT$9from_iter17had8116c9838f06d6E', symObjAddr: 0x1A64, symBinAddr: 0x1B6FC, symSize: 0x24 }
  - { offset: 0x7872E, size: 0x8, addend: 0x0, symName: '__ZN5alloc3vec12Vec$LT$T$GT$3new17h260aa8e6719d5fcbE', symObjAddr: 0x508, symBinAddr: 0x1A1A0, symSize: 0x14 }
  - { offset: 0x7874B, size: 0x8, addend: 0x0, symName: '__ZN5alloc3vec12Vec$LT$T$GT$3new17h92cc48d2920e00a3E', symObjAddr: 0x51C, symBinAddr: 0x1A1B4, symSize: 0x14 }
  - { offset: 0x788A2, size: 0x8, addend: 0x0, symName: '__ZN5alloc3vec16Vec$LT$T$C$A$GT$13shrink_to_fit17h8655704bb39c2c8fE', symObjAddr: 0x530, symBinAddr: 0x1A1C8, symSize: 0xE8 }
  - { offset: 0x78AF0, size: 0x8, addend: 0x0, symName: '__ZN5alloc3vec16Vec$LT$T$C$A$GT$13shrink_to_fit17h8c3882a4a28ae4a6E', symObjAddr: 0x618, symBinAddr: 0x1A2B0, symSize: 0xE8 }
  - { offset: 0x78D3E, size: 0x8, addend: 0x0, symName: '__ZN5alloc3vec16Vec$LT$T$C$A$GT$13shrink_to_fit17haf72ac13ed969b77E', symObjAddr: 0x700, symBinAddr: 0x1A398, symSize: 0xE8 }
  - { offset: 0x78F63, size: 0x8, addend: 0x0, symName: '__ZN5alloc3vec16Vec$LT$T$C$A$GT$14extend_trusted17h30ce397dc8e1b33fE', symObjAddr: 0x7E8, symBinAddr: 0x1A480, symSize: 0x16C }
  - { offset: 0x79232, size: 0x8, addend: 0x0, symName: '__ZN5alloc3vec16Vec$LT$T$C$A$GT$14extend_trusted17hcd608fef30100046E', symObjAddr: 0x954, symBinAddr: 0x1A5EC, symSize: 0x16C }
  - { offset: 0x79501, size: 0x8, addend: 0x0, symName: '__ZN5alloc3vec16Vec$LT$T$C$A$GT$14extend_trusted17hd843fda8528a170bE', symObjAddr: 0xAC0, symBinAddr: 0x1A758, symSize: 0x16C }
  - { offset: 0x79887, size: 0x8, addend: 0x0, symName: '__ZN5alloc3vec16Vec$LT$T$C$A$GT$16into_boxed_slice17h214939a8f2c4f383E', symObjAddr: 0xCEC, symBinAddr: 0x1A984, symSize: 0x12C }
  - { offset: 0x79B86, size: 0x8, addend: 0x0, symName: '__ZN5alloc3vec16Vec$LT$T$C$A$GT$16into_boxed_slice17h684df0805362bf47E', symObjAddr: 0xE18, symBinAddr: 0x1AAB0, symSize: 0x12C }
  - { offset: 0x79EAC, size: 0x8, addend: 0x0, symName: '__ZN5alloc3vec16Vec$LT$T$C$A$GT$16into_boxed_slice17ha4557a343b5b8239E', symObjAddr: 0xF44, symBinAddr: 0x1ABDC, symSize: 0x12C }
  - { offset: 0x7A089, size: 0x8, addend: 0x0, symName: '__ZN5alloc3vec16Vec$LT$T$C$A$GT$3len17h83207fc05730a969E', symObjAddr: 0x1070, symBinAddr: 0x1AD08, symSize: 0x18 }
  - { offset: 0x7A0CB, size: 0x8, addend: 0x0, symName: '__ZN5alloc3vec16Vec$LT$T$C$A$GT$4push17he45fb586db3a3704E', symObjAddr: 0x1088, symBinAddr: 0x1AD20, symSize: 0x30 }
  - { offset: 0x7A11C, size: 0x8, addend: 0x0, symName: '__ZN5alloc3vec16Vec$LT$T$C$A$GT$4push17hf5b92a0a793a47a5E', symObjAddr: 0x10B8, symBinAddr: 0x1AD50, symSize: 0x24 }
  - { offset: 0x7A3B8, size: 0x8, addend: 0x0, symName: '__ZN5alloc3vec16Vec$LT$T$C$A$GT$5drain17hd89fe6b73e806862E', symObjAddr: 0x10DC, symBinAddr: 0x1AD74, symSize: 0x184 }
  - { offset: 0x7A889, size: 0x8, addend: 0x0, symName: '__ZN5alloc3vec16Vec$LT$T$C$A$GT$6remove17hcfd14c55f2d2df8cE', symObjAddr: 0x1260, symBinAddr: 0x1AEF8, symSize: 0x18C }
  - { offset: 0x7AC08, size: 0x8, addend: 0x0, symName: '__ZN5alloc3vec16Vec$LT$T$C$A$GT$7reserve17h0212534ae29adfe7E', symObjAddr: 0x13EC, symBinAddr: 0x1B084, symSize: 0xC8 }
  - { offset: 0x7AE78, size: 0x8, addend: 0x0, symName: '__ZN5alloc3vec16Vec$LT$T$C$A$GT$7reserve17h204c063bcaaeef53E', symObjAddr: 0x14B4, symBinAddr: 0x1B14C, symSize: 0xC8 }
  - { offset: 0x7B0E8, size: 0x8, addend: 0x0, symName: '__ZN5alloc3vec16Vec$LT$T$C$A$GT$7reserve17hc59601d38cb0593cE', symObjAddr: 0x157C, symBinAddr: 0x1B214, symSize: 0xC8 }
  - { offset: 0x7B2BF, size: 0x8, addend: 0x0, symName: '__ZN5alloc3vec16Vec$LT$T$C$A$GT$8as_slice17hcf1079313158c253E', symObjAddr: 0x1644, symBinAddr: 0x1B2DC, symSize: 0x6C }
  - { offset: 0x7B39E, size: 0x8, addend: 0x0, symName: '__ZN5alloc3vec16Vec$LT$T$C$A$GT$8is_empty17hefcbeb7e6e4eca3aE', symObjAddr: 0x16B0, symBinAddr: 0x1B348, symSize: 0x20 }
  - { offset: 0x7B504, size: 0x8, addend: 0x0, symName: '__ZN5alloc3vec16Vec$LT$T$C$A$GT$8push_mut17ha3a9355e2192d6f8E', symObjAddr: 0x16D0, symBinAddr: 0x1B368, symSize: 0xF4 }
  - { offset: 0x7B7A3, size: 0x8, addend: 0x0, symName: '__ZN5alloc3vec16Vec$LT$T$C$A$GT$8push_mut17hb066efc98361c086E', symObjAddr: 0x17C4, symBinAddr: 0x1B45C, symSize: 0x108 }
  - { offset: 0x7B982, size: 0x8, addend: 0x0, symName: '__ZN9hashbrown3map11make_hasher28_$u7b$$u7b$closure$u7d$$u7d$17h9ca1bab0b5bd733fE', symObjAddr: 0x0, symBinAddr: 0x1B720, symSize: 0x3C }
  - { offset: 0x7D333, size: 0x8, addend: 0x0, symName: '__ZN9hashbrown3map11make_hasher28_$u7b$$u7b$closure$u7d$$u7d$17h9ca1bab0b5bd733fE', symObjAddr: 0x0, symBinAddr: 0x1B720, symSize: 0x3C }
  - { offset: 0x7D3B5, size: 0x8, addend: 0x0, symName: '__ZN9hashbrown3map14equivalent_key28_$u7b$$u7b$closure$u7d$$u7d$17h17e8f75e42e33791E', symObjAddr: 0x3C, symBinAddr: 0x1B75C, symSize: 0x30 }
  - { offset: 0x7ED82, size: 0x8, addend: 0x0, symName: '__ZN9hashbrown3map28HashMap$LT$K$C$V$C$S$C$A$GT$12remove_entry17h131eaa7f27cb27b5E', symObjAddr: 0x6C, symBinAddr: 0x1B78C, symSize: 0x58 }
  - { offset: 0x7EF12, size: 0x8, addend: 0x0, symName: '__ZN9hashbrown3map28HashMap$LT$K$C$V$C$S$C$A$GT$6insert17h1caf7a6509ad2b72E', symObjAddr: 0xC4, symBinAddr: 0x1B7E4, symSize: 0x1D4 }
  - { offset: 0x7F09D, size: 0x8, addend: 0x0, symName: '__ZN9hashbrown3map28HashMap$LT$K$C$V$C$S$C$A$GT$6remove17h1ce5cb1227e9e90dE', symObjAddr: 0x298, symBinAddr: 0x1B9B8, symSize: 0x88 }
  - { offset: 0x7F234, size: 0x8, addend: 0x0, symName: '__ZN9hashbrown3map28HashMap$LT$K$C$V$C$S$C$A$GT$9get_inner17h3a18ca2098cebef9E', symObjAddr: 0x320, symBinAddr: 0x1BA40, symSize: 0xFC }
  - { offset: 0x7F3EB, size: 0x8, addend: 0x0, symName: __ZN4pyo311type_object10PyTypeInfo17type_object_bound17h5e1a646f860f7cadE, symObjAddr: 0x0, symBinAddr: 0x1BB3C, symSize: 0x30 }
  - { offset: 0x8054D, size: 0x8, addend: 0x0, symName: __ZN4pyo311type_object10PyTypeInfo17type_object_bound17h5e1a646f860f7cadE, symObjAddr: 0x0, symBinAddr: 0x1BB3C, symSize: 0x30 }
  - { offset: 0x805A3, size: 0x8, addend: 0x0, symName: '__ZN73_$LT$pyo3..types..any..PyAny$u20$as$u20$pyo3..type_object..PyTypeInfo$GT$15type_object_raw28_$u7b$$u7b$closure$u7d$$u7d$17he8ca716d1972361dE', symObjAddr: 0x30, symBinAddr: 0x1BB6C, symSize: 0x18 }
  - { offset: 0x80BCF, size: 0x8, addend: 0x0, symName: __ZN4core4iter6traits8iterator8Iterator3zip17h5f1c6f72e6d9e2d9E, symObjAddr: 0x0, symBinAddr: 0x1BB84, symSize: 0xB4 }
  - { offset: 0x814B0, size: 0x8, addend: 0x0, symName: __ZN4core4iter6traits8iterator8Iterator3zip17h5f1c6f72e6d9e2d9E, symObjAddr: 0x0, symBinAddr: 0x1BB84, symSize: 0xB4 }
  - { offset: 0x81526, size: 0x8, addend: 0x0, symName: __ZN4core4iter6traits8iterator8Iterator4take17h6dc3bb32aee93691E, symObjAddr: 0xB4, symBinAddr: 0x1BC38, symSize: 0x24 }
  - { offset: 0x8266F, size: 0x8, addend: 0x0, symName: __ZN4core4hash11BuildHasher8hash_one17h9a7a169a166415f0E, symObjAddr: 0x0, symBinAddr: 0x1BC5C, symSize: 0x84 }
  - { offset: 0x8268B, size: 0x8, addend: 0x0, symName: __ZN4core4hash11BuildHasher8hash_one17h9a7a169a166415f0E, symObjAddr: 0x0, symBinAddr: 0x1BC5C, symSize: 0x84 }
  - { offset: 0x829D3, size: 0x8, addend: 0x0, symName: __ZN4pyo35impl_10trampoline10trampoline17h08bc999888fbe1a6E, symObjAddr: 0x0, symBinAddr: 0x1BCE0, symSize: 0x14C }
  - { offset: 0x83D23, size: 0x8, addend: 0x0, symName: __ZN4pyo35impl_10trampoline10trampoline17h08bc999888fbe1a6E, symObjAddr: 0x0, symBinAddr: 0x1BCE0, symSize: 0x14C }
  - { offset: 0x83DC5, size: 0x8, addend: 0x0, symName: __ZN4pyo35impl_10trampoline10trampoline17h773882a78ac27778E, symObjAddr: 0x14C, symBinAddr: 0x1BE2C, symSize: 0x160 }
  - { offset: 0x83E69, size: 0x8, addend: 0x0, symName: __ZN4pyo35impl_10trampoline10trampoline17h8eba88d10935cd6eE, symObjAddr: 0x2AC, symBinAddr: 0x1BF8C, symSize: 0x15C }
  - { offset: 0x83F11, size: 0x8, addend: 0x0, symName: '__ZN4pyo35impl_10trampoline10trampoline28_$u7b$$u7b$closure$u7d$$u7d$17h047b948004d362e7E', symObjAddr: 0x408, symBinAddr: 0x1C0E8, symSize: 0x40 }
  - { offset: 0x83F60, size: 0x8, addend: 0x0, symName: '__ZN4pyo35impl_10trampoline10trampoline28_$u7b$$u7b$closure$u7d$$u7d$17h52757d34a5a426dfE', symObjAddr: 0x448, symBinAddr: 0x1C128, symSize: 0x34 }
  - { offset: 0x83FAF, size: 0x8, addend: 0x0, symName: '__ZN4pyo35impl_10trampoline10trampoline28_$u7b$$u7b$closure$u7d$$u7d$17hdbbe55a93a4e76c2E', symObjAddr: 0x47C, symBinAddr: 0x1C15C, symSize: 0x24 }
  - { offset: 0x84003, size: 0x8, addend: 0x0, symName: '__ZN4pyo35impl_10trampoline11module_init28_$u7b$$u7b$closure$u7d$$u7d$17h515125a32fadbc19E', symObjAddr: 0x4A0, symBinAddr: 0x1C180, symSize: 0x40 }
  - { offset: 0x8404F, size: 0x8, addend: 0x0, symName: '__ZN4pyo35impl_10trampoline11module_init28_$u7b$$u7b$closure$u7d$$u7d$28_$u7b$$u7b$closure$u7d$$u7d$17h9640cf5017e07ec9E', symObjAddr: 0x4E0, symBinAddr: 0x1C1C0, symSize: 0x24 }
  - { offset: 0x840A1, size: 0x8, addend: 0x0, symName: __ZN4pyo35impl_10trampoline21trampoline_unraisable17hc07afd9078dfd0deE, symObjAddr: 0x504, symBinAddr: 0x1C1E4, symSize: 0x20C }
  - { offset: 0x84144, size: 0x8, addend: 0x0, symName: '__ZN4pyo35impl_10trampoline21trampoline_unraisable28_$u7b$$u7b$closure$u7d$$u7d$17h9e7f27b4ac047d5eE', symObjAddr: 0x710, symBinAddr: 0x1C3F0, symSize: 0x50 }
  - { offset: 0x84183, size: 0x8, addend: 0x0, symName: '__ZN4pyo35impl_10trampoline21trampoline_unraisable28_$u7b$$u7b$closure$u7d$$u7d$17ha56c5f4dad43a498E', symObjAddr: 0x760, symBinAddr: 0x1C440, symSize: 0x2C }
  - { offset: 0x841D5, size: 0x8, addend: 0x0, symName: '__ZN4pyo35impl_10trampoline22fastcall_with_keywords28_$u7b$$u7b$closure$u7d$$u7d$17hccaf0139eea42ba6E', symObjAddr: 0x78C, symBinAddr: 0x1C46C, symSize: 0x48 }
  - { offset: 0x842A1, size: 0x8, addend: 0x0, symName: '__ZN4pyo35impl_10trampoline7dealloc28_$u7b$$u7b$closure$u7d$$u7d$17h7f688936aa66ac35E', symObjAddr: 0x7D4, symBinAddr: 0x1C4B4, symSize: 0x40 }
  - { offset: 0x8431E, size: 0x8, addend: 0x0, symName: '__ZN4pyo35impl_10trampoline7newfunc28_$u7b$$u7b$closure$u7d$$u7d$17hb398a632709951d1E', symObjAddr: 0x814, symBinAddr: 0x1C4F4, symSize: 0x40 }
  - { offset: 0x84BF8, size: 0x8, addend: 0x0, symName: __ZN4core9core_arch10arm_shared4neon9generated18vreinterpret_s8_u817h744d7359ae07a3e1E, symObjAddr: 0x0, symBinAddr: 0x1C534, symSize: 0xC }
  - { offset: 0x84C1E, size: 0x8, addend: 0x0, symName: __ZN4core9core_arch10arm_shared4neon9generated18vreinterpret_s8_u817h744d7359ae07a3e1E, symObjAddr: 0x0, symBinAddr: 0x1C534, symSize: 0xC }
  - { offset: 0x84C4C, size: 0x8, addend: 0x0, symName: __ZN4core9core_arch10arm_shared4neon9generated19vreinterpret_u64_u817h701192806f4b6e69E, symObjAddr: 0xC, symBinAddr: 0x1C540, symSize: 0xC }
  - { offset: 0x84C7A, size: 0x8, addend: 0x0, symName: __ZN4core9core_arch10arm_shared4neon9generated7vceq_u817hc5881dff3192af10E, symObjAddr: 0x18, symBinAddr: 0x1C54C, symSize: 0x14 }
  - { offset: 0x84CB7, size: 0x8, addend: 0x0, symName: __ZN4core9core_arch10arm_shared4neon9generated7vorr_u817h9defc24c109a7cb9E, symObjAddr: 0x2C, symBinAddr: 0x1C560, symSize: 0x14 }
  - { offset: 0x84CF4, size: 0x8, addend: 0x0, symName: __ZN4core9core_arch10arm_shared4neon9generated9vdup_n_u817h67d4a9d63df7e8f2E, symObjAddr: 0x40, symBinAddr: 0x1C574, symSize: 0x2C }
  - { offset: 0x84E62, size: 0x8, addend: 0x0, symName: __ZN4core3cmp3Ord3max17h95662a69bfef9de0E, symObjAddr: 0x0, symBinAddr: 0x1C5A0, symSize: 0xC0 }
  - { offset: 0x84E7E, size: 0x8, addend: 0x0, symName: __ZN4core3cmp3Ord3max17h95662a69bfef9de0E, symObjAddr: 0x0, symBinAddr: 0x1C5A0, symSize: 0xC0 }
  - { offset: 0x84F83, size: 0x8, addend: 0x0, symName: '__ZN4core4char7methods22_$LT$impl$u20$char$GT$8to_digit17he492039a8e78ca0aE', symObjAddr: 0x0, symBinAddr: 0x1C660, symSize: 0x14C }
  - { offset: 0x85343, size: 0x8, addend: 0x0, symName: '__ZN4core4char7methods22_$LT$impl$u20$char$GT$8to_digit17he492039a8e78ca0aE', symObjAddr: 0x0, symBinAddr: 0x1C660, symSize: 0x14C }
  - { offset: 0x8559F, size: 0x8, addend: 0x0, symName: '__ZN110_$LT$core..iter..adapters..enumerate..Enumerate$LT$I$GT$$u20$as$u20$core..iter..traits..iterator..Iterator$GT$4next17hc761e1a08c5699c5E', symObjAddr: 0x0, symBinAddr: 0x1C7AC, symSize: 0xE0 }
  - { offset: 0x86B64, size: 0x8, addend: 0x0, symName: '__ZN110_$LT$core..iter..adapters..enumerate..Enumerate$LT$I$GT$$u20$as$u20$core..iter..traits..iterator..Iterator$GT$4next17hc761e1a08c5699c5E', symObjAddr: 0x0, symBinAddr: 0x1C7AC, symSize: 0xE0 }
  - { offset: 0x86C4A, size: 0x8, addend: 0x0, symName: '__ZN110_$LT$core..iter..adapters..enumerate..Enumerate$LT$I$GT$$u20$as$u20$core..iter..traits..iterator..Iterator$GT$8try_fold17h85012c55506f49b5E', symObjAddr: 0xE0, symBinAddr: 0x1C88C, symSize: 0x38 }
  - { offset: 0x86CC0, size: 0x8, addend: 0x0, symName: '__ZN110_$LT$core..iter..adapters..enumerate..Enumerate$LT$I$GT$$u20$as$u20$core..iter..traits..iterator..Iterator$GT$8try_fold9enumerate28_$u7b$$u7b$closure$u7d$$u7d$17h3936b443b1b8494bE', symObjAddr: 0x118, symBinAddr: 0x1C8C4, symSize: 0xB4 }
  - { offset: 0x86DED, size: 0x8, addend: 0x0, symName: __ZN4core4iter6traits8iterator8Iterator4find17hf7373afbc7900146E, symObjAddr: 0x1CC, symBinAddr: 0x1C978, symSize: 0x8C }
  - { offset: 0x86E97, size: 0x8, addend: 0x0, symName: '__ZN63_$LT$I$u20$as$u20$core..iter..traits..collect..IntoIterator$GT$9into_iter17h9c2479326a60a924E', symObjAddr: 0x258, symBinAddr: 0x1CA04, symSize: 0x30 }
  - { offset: 0x87A28, size: 0x8, addend: 0x0, symName: '__ZN86_$LT$crossbeam_channel..flavors..list..ListToken$u20$as$u20$core..default..Default$GT$7default17hbfd79922565a6279E', symObjAddr: 0x0, symBinAddr: 0x1CA34, symSize: 0xC }
  - { offset: 0x87A49, size: 0x8, addend: 0x0, symName: '__ZN86_$LT$crossbeam_channel..flavors..list..ListToken$u20$as$u20$core..default..Default$GT$7default17hbfd79922565a6279E', symObjAddr: 0x0, symBinAddr: 0x1CA34, symSize: 0xC }
  - { offset: 0x87AC4, size: 0x8, addend: 0x0, symName: '__ZN3std3sys12thread_local6native4lazy20Storage$LT$T$C$D$GT$11get_or_init17hca2bd517361b48deE', symObjAddr: 0x0, symBinAddr: 0x1CA40, symSize: 0xA4 }
  - { offset: 0x880D1, size: 0x8, addend: 0x0, symName: '__ZN78_$LT$$u21$$u20$as$u20$std..sys..thread_local..native..lazy..DestroyedState$GT$13register_dtor17h4590ee25897c4bbaE', symObjAddr: 0x27C, symBinAddr: 0x1CAE4, symSize: 0x10 }
  - { offset: 0x881D3, size: 0x8, addend: 0x0, symName: '__ZN3std3sys12thread_local6native4lazy20Storage$LT$T$C$D$GT$11get_or_init17hca2bd517361b48deE', symObjAddr: 0x0, symBinAddr: 0x1CA40, symSize: 0xA4 }
  - { offset: 0x88413, size: 0x8, addend: 0x0, symName: '__ZN3std3sys12thread_local6native4lazy20Storage$LT$T$C$D$GT$16get_or_init_slow17h3d3ae09f40f62a6fE', symObjAddr: 0xA4, symBinAddr: 0xB6B28, symSize: 0x1D8 }
  - { offset: 0x886F9, size: 0x8, addend: 0x0, symName: __ZN5alloc3fmt6format17h0a91de34b2b5b98eE, symObjAddr: 0x0, symBinAddr: 0x1CAF4, symSize: 0xD4 }
  - { offset: 0x88C94, size: 0x8, addend: 0x0, symName: __ZN5alloc3fmt6format17h0a91de34b2b5b98eE, symObjAddr: 0x0, symBinAddr: 0x1CAF4, symSize: 0xD4 }
  - { offset: 0x88DF1, size: 0x8, addend: 0x0, symName: '__ZN96_$LT$pyo3..pycell..impl_..BorrowChecker$u20$as$u20$pyo3..pycell..impl_..PyClassBorrowChecker$GT$3new17hc4e17381d0ace369E', symObjAddr: 0x0, symBinAddr: 0x1CBC8, symSize: 0x18 }
  - { offset: 0x88E12, size: 0x8, addend: 0x0, symName: '__ZN96_$LT$pyo3..pycell..impl_..BorrowChecker$u20$as$u20$pyo3..pycell..impl_..PyClassBorrowChecker$GT$3new17hc4e17381d0ace369E', symObjAddr: 0x0, symBinAddr: 0x1CBC8, symSize: 0x18 }
  - { offset: 0x88ECA, size: 0x8, addend: 0x0, symName: __ZN4pyo35impl_12deprecations12inspect_type17h0e76a09deeb580a2E, symObjAddr: 0x0, symBinAddr: 0x1CBE0, symSize: 0x14 }
  - { offset: 0x8A6CF, size: 0x8, addend: 0x0, symName: __ZN4pyo35impl_12deprecations12inspect_type17h0e76a09deeb580a2E, symObjAddr: 0x0, symBinAddr: 0x1CBE0, symSize: 0x14 }
  - { offset: 0x8A70E, size: 0x8, addend: 0x0, symName: __ZN4pyo35impl_12deprecations12inspect_type17h109dd5257e006571E, symObjAddr: 0x14, symBinAddr: 0x1CBF4, symSize: 0x18 }
  - { offset: 0x8A74D, size: 0x8, addend: 0x0, symName: __ZN4pyo35impl_12deprecations12inspect_type17h3232a26317bc71beE, symObjAddr: 0x2C, symBinAddr: 0x1CC0C, symSize: 0x24 }
  - { offset: 0x8A78C, size: 0x8, addend: 0x0, symName: __ZN4pyo35impl_12deprecations12inspect_type17h5789c4704232ec0aE, symObjAddr: 0x50, symBinAddr: 0x1CC30, symSize: 0x18 }
  - { offset: 0x8A7CB, size: 0x8, addend: 0x0, symName: __ZN4pyo35impl_12deprecations12inspect_type17ha449ad523c2a679fE, symObjAddr: 0x68, symBinAddr: 0x1CC48, symSize: 0x14 }
  - { offset: 0x8A80A, size: 0x8, addend: 0x0, symName: __ZN4pyo35impl_12deprecations12inspect_type17he6df083beaf5d1b5E, symObjAddr: 0x7C, symBinAddr: 0x1CC5C, symSize: 0x18 }
  - { offset: 0x8AB9E, size: 0x8, addend: 0x0, symName: '__ZN87_$LT$pyo3..impl_..deprecations..GilRefs$LT$T$GT$$u20$as$u20$core..ops..deref..Deref$GT$5deref17h5e1d1a1fe497df74E', symObjAddr: 0x11C, symBinAddr: 0x1CCFC, symSize: 0x14 }
  - { offset: 0x8ABD3, size: 0x8, addend: 0x0, symName: '__ZN87_$LT$pyo3..impl_..deprecations..GilRefs$LT$T$GT$$u20$as$u20$core..ops..deref..Deref$GT$5deref17h7b658126b6c1a103E', symObjAddr: 0x130, symBinAddr: 0x1CD10, symSize: 0x14 }
  - { offset: 0x8AC08, size: 0x8, addend: 0x0, symName: '__ZN87_$LT$pyo3..impl_..deprecations..GilRefs$LT$T$GT$$u20$as$u20$core..ops..deref..Deref$GT$5deref17h8c5ee6df2c13bf04E', symObjAddr: 0x144, symBinAddr: 0x1CD24, symSize: 0x14 }
  - { offset: 0x8AC3D, size: 0x8, addend: 0x0, symName: '__ZN87_$LT$pyo3..impl_..deprecations..GilRefs$LT$T$GT$$u20$as$u20$core..ops..deref..Deref$GT$5deref17h92a65fefd88e14fdE', symObjAddr: 0x158, symBinAddr: 0x1CD38, symSize: 0x14 }
  - { offset: 0x8AC72, size: 0x8, addend: 0x0, symName: '__ZN87_$LT$pyo3..impl_..deprecations..GilRefs$LT$T$GT$$u20$as$u20$core..ops..deref..Deref$GT$5deref17hddf562f128a97acfE', symObjAddr: 0x16C, symBinAddr: 0x1CD4C, symSize: 0x14 }
  - { offset: 0x8ACA7, size: 0x8, addend: 0x0, symName: '__ZN87_$LT$pyo3..impl_..deprecations..GilRefs$LT$T$GT$$u20$as$u20$core..ops..deref..Deref$GT$5deref17he07cb117fdca33f7E', symObjAddr: 0x180, symBinAddr: 0x1CD60, symSize: 0x14 }
  - { offset: 0x8ACE2, size: 0x8, addend: 0x0, symName: '__ZN93_$LT$pyo3..impl_..deprecations..OptionGilRefs$LT$T$GT$$u20$as$u20$core..ops..deref..Deref$GT$5deref17h18e337cc20f7a60bE', symObjAddr: 0x194, symBinAddr: 0x1CD74, symSize: 0x14 }
  - { offset: 0x8AD17, size: 0x8, addend: 0x0, symName: '__ZN93_$LT$pyo3..impl_..deprecations..OptionGilRefs$LT$T$GT$$u20$as$u20$core..ops..deref..Deref$GT$5deref17h33d3499b2e79793cE', symObjAddr: 0x1A8, symBinAddr: 0x1CD88, symSize: 0x14 }
  - { offset: 0x8AD4C, size: 0x8, addend: 0x0, symName: '__ZN93_$LT$pyo3..impl_..deprecations..OptionGilRefs$LT$T$GT$$u20$as$u20$core..ops..deref..Deref$GT$5deref17h4b5dbf73a45b1accE', symObjAddr: 0x1BC, symBinAddr: 0x1CD9C, symSize: 0x14 }
  - { offset: 0x8AD81, size: 0x8, addend: 0x0, symName: '__ZN93_$LT$pyo3..impl_..deprecations..OptionGilRefs$LT$T$GT$$u20$as$u20$core..ops..deref..Deref$GT$5deref17h5064a837d251a328E', symObjAddr: 0x1D0, symBinAddr: 0x1CDB0, symSize: 0x14 }
  - { offset: 0x8ADB6, size: 0x8, addend: 0x0, symName: '__ZN93_$LT$pyo3..impl_..deprecations..OptionGilRefs$LT$T$GT$$u20$as$u20$core..ops..deref..Deref$GT$5deref17h5fee4a78c29b8fb5E', symObjAddr: 0x1E4, symBinAddr: 0x1CDC4, symSize: 0x14 }
  - { offset: 0x8ADEB, size: 0x8, addend: 0x0, symName: '__ZN93_$LT$pyo3..impl_..deprecations..OptionGilRefs$LT$T$GT$$u20$as$u20$core..ops..deref..Deref$GT$5deref17hd8244751c3c7b89aE', symObjAddr: 0x1F8, symBinAddr: 0x1CDD8, symSize: 0x14 }
  - { offset: 0x8AF75, size: 0x8, addend: 0x0, symName: '__ZN4pyo35impl_12deprecations16GilRefs$LT$T$GT$3new17h0f997292b300144fE', symObjAddr: 0x94, symBinAddr: 0x1CC74, symSize: 0x4 }
  - { offset: 0x8B34C, size: 0x8, addend: 0x0, symName: '__ZN4pyo35impl_12deprecations16GilRefs$LT$T$GT$3new17h3afcc25a71d9568eE', symObjAddr: 0x98, symBinAddr: 0x1CC78, symSize: 0x4 }
  - { offset: 0x8B7C0, size: 0x8, addend: 0x0, symName: '__ZN4pyo35impl_12deprecations16GilRefs$LT$T$GT$3new17h99194dda02a0bf51E', symObjAddr: 0x9C, symBinAddr: 0x1CC7C, symSize: 0x4 }
  - { offset: 0x8C65F, size: 0x8, addend: 0x0, symName: '__ZN4pyo35impl_12deprecations16GilRefs$LT$T$GT$3new17hb73cd8a74fe64097E', symObjAddr: 0xA0, symBinAddr: 0x1CC80, symSize: 0x4 }
  - { offset: 0x8C6C1, size: 0x8, addend: 0x0, symName: '__ZN4pyo35impl_12deprecations16GilRefs$LT$T$GT$3new17hc358d0b413c7c9e1E', symObjAddr: 0xA4, symBinAddr: 0x1CC84, symSize: 0x4 }
  - { offset: 0x8C6DE, size: 0x8, addend: 0x0, symName: '__ZN4pyo35impl_12deprecations16GilRefs$LT$T$GT$3new17hd5231a69d12d82fcE', symObjAddr: 0xA8, symBinAddr: 0x1CC88, symSize: 0x4 }
  - { offset: 0x8C708, size: 0x8, addend: 0x0, symName: '__ZN4pyo35impl_12deprecations19NotAGilRef$LT$T$GT$12function_arg17h0a1b1036e8b422f8E', symObjAddr: 0xAC, symBinAddr: 0x1CC8C, symSize: 0x10 }
  - { offset: 0x8C740, size: 0x8, addend: 0x0, symName: '__ZN4pyo35impl_12deprecations19NotAGilRef$LT$T$GT$12function_arg17h2b06ccd8977ceb57E', symObjAddr: 0xBC, symBinAddr: 0x1CC9C, symSize: 0x10 }
  - { offset: 0x8C778, size: 0x8, addend: 0x0, symName: '__ZN4pyo35impl_12deprecations19NotAGilRef$LT$T$GT$12function_arg17h4a37d06cbbaa2c0cE', symObjAddr: 0xCC, symBinAddr: 0x1CCAC, symSize: 0x10 }
  - { offset: 0x8C7B0, size: 0x8, addend: 0x0, symName: '__ZN4pyo35impl_12deprecations19NotAGilRef$LT$T$GT$12function_arg17h9ed699ccf87edd82E', symObjAddr: 0xDC, symBinAddr: 0x1CCBC, symSize: 0x10 }
  - { offset: 0x8C7E8, size: 0x8, addend: 0x0, symName: '__ZN4pyo35impl_12deprecations19NotAGilRef$LT$T$GT$12function_arg17hb7e51d4e5f28a686E', symObjAddr: 0xEC, symBinAddr: 0x1CCCC, symSize: 0x10 }
  - { offset: 0x8C820, size: 0x8, addend: 0x0, symName: '__ZN4pyo35impl_12deprecations19NotAGilRef$LT$T$GT$12function_arg17hb8bb7c11e8424254E', symObjAddr: 0xFC, symBinAddr: 0x1CCDC, symSize: 0x10 }
  - { offset: 0x8C84B, size: 0x8, addend: 0x0, symName: '__ZN4pyo35impl_12deprecations19NotAGilRef$LT$T$GT$9is_python17hae6e53b1534e777cE', symObjAddr: 0x10C, symBinAddr: 0x1CCEC, symSize: 0x10 }
  - { offset: 0x8C930, size: 0x8, addend: 0x0, symName: '__ZN104_$LT$std..thread..Builder..spawn_unchecked_..MaybeDangling$LT$T$GT$$u20$as$u20$core..ops..drop..Drop$GT$4drop17h1a3908b19c8a0056E', symObjAddr: 0x0, symBinAddr: 0x1CDEC, symSize: 0x2C }
  - { offset: 0x8ED2D, size: 0x8, addend: 0x0, symName: '__ZN4core3ptr100drop_in_place$LT$core..cell..UnsafeCell$LT$core..option..Option$LT$alloc..string..String$GT$$GT$$GT$17h29f7970bbcc3428bE', symObjAddr: 0x790, symBinAddr: 0x1D558, symSize: 0x24 }
  - { offset: 0x8ED5C, size: 0x8, addend: 0x0, symName: '__ZN4core3ptr102drop_in_place$LT$$LP$alloc..string..String$C$alloc..sync..Arc$LT$rust_core..RustActorInner$GT$$RP$$GT$17hff8f005e7e5e13bfE', symObjAddr: 0x7D8, symBinAddr: 0x1D57C, symSize: 0x60 }
  - { offset: 0x8ED8B, size: 0x8, addend: 0x0, symName: '__ZN4core3ptr103drop_in_place$LT$alloc..sync..Weak$LT$std..thread..scoped..ScopeData$C$$RF$alloc..alloc..Global$GT$$GT$17h1193c4b424ac8d44E', symObjAddr: 0x838, symBinAddr: 0x1D5DC, symSize: 0x24 }
  - { offset: 0x8EDBA, size: 0x8, addend: 0x0, symName: '__ZN4core3ptr103drop_in_place$LT$core..option..Option$LT$alloc..sync..Arc$LT$std..thread..scoped..ScopeData$GT$$GT$$GT$17hc3068c49246c083aE', symObjAddr: 0x85C, symBinAddr: 0x1D600, symSize: 0x44 }
  - { offset: 0x8EDE9, size: 0x8, addend: 0x0, symName: '__ZN4core3ptr103drop_in_place$LT$lock_api..rwlock..RwLockReadGuard$LT$parking_lot..raw_rwlock..RawRwLock$C$bool$GT$$GT$17he0772e2f66a44199E', symObjAddr: 0x8A0, symBinAddr: 0x1D644, symSize: 0x24 }
  - { offset: 0x8EE18, size: 0x8, addend: 0x0, symName: '__ZN4core3ptr104drop_in_place$LT$lock_api..rwlock..RwLockWriteGuard$LT$parking_lot..raw_rwlock..RawRwLock$C$bool$GT$$GT$17h7d4261c2039f31c1E', symObjAddr: 0x8C4, symBinAddr: 0x1D668, symSize: 0x24 }
  - { offset: 0x8EE47, size: 0x8, addend: 0x0, symName: '__ZN4core3ptr104drop_in_place$LT$std..sync..poison..mutex..MutexGuard$LT$crossbeam_channel..flavors..zero..Inner$GT$$GT$17ha91a93456231ffa1E', symObjAddr: 0x930, symBinAddr: 0x1D68C, symSize: 0x24 }
  - { offset: 0x8EE76, size: 0x8, addend: 0x0, symName: '__ZN4core3ptr106drop_in_place$LT$core..option..Option$LT$alloc..sync..Arc$LT$std..thread..spawnhook..SpawnHook$GT$$GT$$GT$17hc5010a32559e2cb5E', symObjAddr: 0x954, symBinAddr: 0x1D6B0, symSize: 0x44 }
  - { offset: 0x8EEA5, size: 0x8, addend: 0x0, symName: '__ZN4core3ptr106drop_in_place$LT$core..result..Result$LT$$BP$mut$u20$pyo3_ffi..object..PyObject$C$pyo3..err..PyErr$GT$$GT$17h3bc25754e2bdaa17E', symObjAddr: 0x998, symBinAddr: 0x1D6F4, symSize: 0x40 }
  - { offset: 0x8EED4, size: 0x8, addend: 0x0, symName: '__ZN4core3ptr106drop_in_place$LT$core..result..Result$LT$alloc..string..String$C$crossbeam_channel..err..RecvError$GT$$GT$17h3fa476089cdb064bE', symObjAddr: 0x9D8, symBinAddr: 0x1D734, symSize: 0x4C }
  - { offset: 0x8EF03, size: 0x8, addend: 0x0, symName: '__ZN4core3ptr108drop_in_place$LT$alloc..sync..Weak$LT$std..thread..Packet$LT$$LP$$RP$$GT$$C$$RF$alloc..alloc..Global$GT$$GT$17h1e51457aa1016507E', symObjAddr: 0xA48, symBinAddr: 0x1D780, symSize: 0x24 }
  - { offset: 0x8EF32, size: 0x8, addend: 0x0, symName: '__ZN4core3ptr108drop_in_place$LT$core..result..Result$LT$$LP$$RP$$C$alloc..borrow..Cow$LT$core..ffi..c_str..CStr$GT$$GT$$GT$17hba2e93da04b5cfdaE', symObjAddr: 0xA6C, symBinAddr: 0x1D7A4, symSize: 0x44 }
  - { offset: 0x8EF61, size: 0x8, addend: 0x0, symName: '__ZN4core3ptr110drop_in_place$LT$alloc..vec..Vec$LT$crossbeam_channel..flavors..array..Slot$LT$rust_core..Envelope$GT$$GT$$GT$17h1956ee938a8c242dE', symObjAddr: 0xAB0, symBinAddr: 0x1D7E8, symSize: 0x5C }
  - { offset: 0x8EF90, size: 0x8, addend: 0x0, symName: '__ZN4core3ptr111drop_in_place$LT$core..result..Result$LT$rust_core..Envelope$C$crossbeam_channel..err..RecvTimeoutError$GT$$GT$17h09997e3ef57d9cf5E', symObjAddr: 0xB0C, symBinAddr: 0x1D844, symSize: 0x48 }
  - { offset: 0x8EFBF, size: 0x8, addend: 0x0, symName: '__ZN4core3ptr112drop_in_place$LT$alloc..boxed..Box$LT$crossbeam_channel..flavors..list..Block$LT$rust_core..Envelope$GT$$GT$$GT$17ha76a80eafca407afE', symObjAddr: 0xB54, symBinAddr: 0x1D88C, symSize: 0x2C }
  - { offset: 0x8EFEE, size: 0x8, addend: 0x0, symName: '__ZN4core3ptr112drop_in_place$LT$alloc..sync..Weak$LT$crossbeam_channel..flavors..at..Channel$C$$RF$alloc..alloc..Global$GT$$GT$17h63d43a13c44c1e0eE', symObjAddr: 0xB80, symBinAddr: 0x1D8B8, symSize: 0x24 }
  - { offset: 0x8F01D, size: 0x8, addend: 0x0, symName: '__ZN4core3ptr112drop_in_place$LT$alloc..vec..Vec$LT$crossbeam_channel..flavors..array..Slot$LT$alloc..string..String$GT$$GT$$GT$17h0d79fbb6223d5e48E', symObjAddr: 0xBA4, symBinAddr: 0x1D8DC, symSize: 0x5C }
  - { offset: 0x8F04C, size: 0x8, addend: 0x0, symName: '__ZN4core3ptr112drop_in_place$LT$crossbeam_channel..channel..Sender$LT$pyo3..instance..Py$LT$pyo3..types..any..PyAny$GT$$GT$$GT$17h5d0c759751ccb48fE', symObjAddr: 0xC00, symBinAddr: 0x1D938, symSize: 0x24 }
  - { offset: 0x8F07B, size: 0x8, addend: 0x0, symName: '__ZN4core3ptr113drop_in_place$LT$alloc..boxed..Box$LT$crossbeam_channel..flavors..zero..Packet$LT$rust_core..Envelope$GT$$GT$$GT$17hde434fd73e19ab70E', symObjAddr: 0xC24, symBinAddr: 0x1D95C, symSize: 0x60 }
  - { offset: 0x8F0AA, size: 0x8, addend: 0x0, symName: '__ZN4core3ptr113drop_in_place$LT$core..result..Result$LT$alloc..string..String$C$crossbeam_channel..err..RecvTimeoutError$GT$$GT$17h3f0aed2d5c014567E', symObjAddr: 0xC84, symBinAddr: 0x1D9BC, symSize: 0x4C }
  - { offset: 0x8F0D9, size: 0x8, addend: 0x0, symName: '__ZN4core3ptr114drop_in_place$LT$alloc..boxed..Box$LT$crossbeam_channel..flavors..list..Block$LT$alloc..string..String$GT$$GT$$GT$17hc32f0c8f2434e0d6E', symObjAddr: 0xCD0, symBinAddr: 0x1DA08, symSize: 0x2C }
  - { offset: 0x8F108, size: 0x8, addend: 0x0, symName: '__ZN4core3ptr114drop_in_place$LT$alloc..sync..Weak$LT$crossbeam_channel..flavors..tick..Channel$C$$RF$alloc..alloc..Global$GT$$GT$17hf5c8a946b9c2bec6E', symObjAddr: 0xCFC, symBinAddr: 0x1DA34, symSize: 0x24 }
  - { offset: 0x8F137, size: 0x8, addend: 0x0, symName: '__ZN4core3ptr114drop_in_place$LT$crossbeam_channel..channel..Receiver$LT$pyo3..instance..Py$LT$pyo3..types..any..PyAny$GT$$GT$$GT$17hf55b0914a41a8401E', symObjAddr: 0xD20, symBinAddr: 0x1DA58, symSize: 0x5C }
  - { offset: 0x8F166, size: 0x8, addend: 0x0, symName: '__ZN4core3ptr115drop_in_place$LT$alloc..boxed..Box$LT$crossbeam_channel..flavors..zero..Packet$LT$alloc..string..String$GT$$GT$$GT$17h5cb58afe1f4c7713E', symObjAddr: 0xD7C, symBinAddr: 0x1DAB4, symSize: 0x60 }
  - { offset: 0x8F195, size: 0x8, addend: 0x0, symName: '__ZN4core3ptr117drop_in_place$LT$alloc..raw_vec..RawVec$LT$crossbeam_channel..flavors..array..Slot$LT$rust_core..Envelope$GT$$GT$$GT$17heba597aeef567f1fE', symObjAddr: 0xDDC, symBinAddr: 0x1DB14, symSize: 0x24 }
  - { offset: 0x8F1C4, size: 0x8, addend: 0x0, symName: '__ZN4core3ptr117drop_in_place$LT$core..result..Result$LT$pyo3..instance..Py$LT$pyo3..types..any..PyAny$GT$$C$pyo3..err..PyErr$GT$$GT$17h945e87ec4883b6dcE', symObjAddr: 0xE00, symBinAddr: 0x1DB38, symSize: 0x50 }
  - { offset: 0x8F1F3, size: 0x8, addend: 0x0, symName: '__ZN4core3ptr118drop_in_place$LT$alloc..sync..Arc$LT$lock_api..rwlock..RwLock$LT$parking_lot..raw_rwlock..RawRwLock$C$bool$GT$$GT$$GT$17h96615566c5781fafE', symObjAddr: 0xE50, symBinAddr: 0x1DB88, symSize: 0x24 }
  - { offset: 0x8F222, size: 0x8, addend: 0x0, symName: '__ZN4core3ptr118drop_in_place$LT$crossbeam_channel..flavors..zero..Packet$LT$pyo3..instance..Py$LT$pyo3..types..any..PyAny$GT$$GT$$GT$17h1ad181d11bc6e865E', symObjAddr: 0xE74, symBinAddr: 0x1DBAC, symSize: 0x24 }
  - { offset: 0x8F251, size: 0x8, addend: 0x0, symName: '__ZN4core3ptr119drop_in_place$LT$alloc..raw_vec..RawVec$LT$crossbeam_channel..flavors..array..Slot$LT$alloc..string..String$GT$$GT$$GT$17h432c83ef5cc50563E', symObjAddr: 0xE98, symBinAddr: 0x1DBD0, symSize: 0x24 }
  - { offset: 0x8F280, size: 0x8, addend: 0x0, symName: '__ZN4core3ptr119drop_in_place$LT$crossbeam_channel..flavors..list..Channel$LT$pyo3..instance..Py$LT$pyo3..types..any..PyAny$GT$$GT$$GT$17hfebbff7f595af95dE', symObjAddr: 0xEBC, symBinAddr: 0x1DBF4, symSize: 0x60 }
  - { offset: 0x8F2AF, size: 0x8, addend: 0x0, symName: '__ZN4core3ptr119drop_in_place$LT$crossbeam_channel..flavors..zero..Channel$LT$pyo3..instance..Py$LT$pyo3..types..any..PyAny$GT$$GT$$GT$17h6d11da1b0b466d65E', symObjAddr: 0xF1C, symBinAddr: 0x1DC54, symSize: 0x24 }
  - { offset: 0x8F2DE, size: 0x8, addend: 0x0, symName: '__ZN4core3ptr120drop_in_place$LT$core..result..Result$LT$$LP$$RP$$C$crossbeam_channel..err..SendError$LT$rust_core..Envelope$GT$$GT$$GT$17h109404f505000600E', symObjAddr: 0xF40, symBinAddr: 0x1DC78, symSize: 0x44 }
  - { offset: 0x8F30D, size: 0x8, addend: 0x0, symName: '__ZN4core3ptr120drop_in_place$LT$crossbeam_channel..channel..ReceiverFlavor$LT$pyo3..instance..Py$LT$pyo3..types..any..PyAny$GT$$GT$$GT$17hbabd0b25d747cfa6E', symObjAddr: 0xF84, symBinAddr: 0x1DCBC, symSize: 0x68 }
  - { offset: 0x8F33C, size: 0x8, addend: 0x0, symName: '__ZN4core3ptr120drop_in_place$LT$crossbeam_channel..flavors..array..Channel$LT$pyo3..instance..Py$LT$pyo3..types..any..PyAny$GT$$GT$$GT$17h4578e736e05b7d60E', symObjAddr: 0xFEC, symBinAddr: 0x1DD24, symSize: 0xC0 }
  - { offset: 0x8F36B, size: 0x8, addend: 0x0, symName: '__ZN4core3ptr122drop_in_place$LT$alloc..boxed..Box$LT$$u5b$crossbeam_channel..flavors..array..Slot$LT$rust_core..Envelope$GT$$u5d$$GT$$GT$17h2b101d3b034a95efE', symObjAddr: 0x10AC, symBinAddr: 0x1DDE4, symSize: 0x2C }
  - { offset: 0x8F39A, size: 0x8, addend: 0x0, symName: '__ZN4core3ptr122drop_in_place$LT$core..result..Result$LT$$LP$$RP$$C$crossbeam_channel..err..SendError$LT$alloc..string..String$GT$$GT$$GT$17hcee610d5cd4017ddE', symObjAddr: 0x10D8, symBinAddr: 0x1DE10, symSize: 0x48 }
  - { offset: 0x8F3C9, size: 0x8, addend: 0x0, symName: '__ZN4core3ptr124drop_in_place$LT$alloc..boxed..Box$LT$$u5b$crossbeam_channel..flavors..array..Slot$LT$alloc..string..String$GT$$u5d$$GT$$GT$17h0a8a7c2643c4b5bdE', symObjAddr: 0x1120, symBinAddr: 0x1DE58, symSize: 0x2C }
  - { offset: 0x8F3F8, size: 0x8, addend: 0x0, symName: '__ZN4core3ptr124drop_in_place$LT$crossbeam_channel..flavors..zero..Channel$LT$rust_core..Envelope$GT$..recv..$u7b$$u7b$closure$u7d$$u7d$$GT$17h103ada94042f17a1E', symObjAddr: 0x114C, symBinAddr: 0x1DE84, symSize: 0x24 }
  - { offset: 0x8F427, size: 0x8, addend: 0x0, symName: '__ZN4core3ptr124drop_in_place$LT$crossbeam_channel..flavors..zero..Channel$LT$rust_core..Envelope$GT$..send..$u7b$$u7b$closure$u7d$$u7d$$GT$17h327995f0817fe531E', symObjAddr: 0x1170, symBinAddr: 0x1DEA8, symSize: 0x60 }
  - { offset: 0x8F456, size: 0x8, addend: 0x0, symName: '__ZN4core3ptr126drop_in_place$LT$crossbeam_channel..flavors..zero..Channel$LT$alloc..string..String$GT$..recv..$u7b$$u7b$closure$u7d$$u7d$$GT$17h642ae996b0bae48aE', symObjAddr: 0x11F4, symBinAddr: 0x1DF08, symSize: 0x24 }
  - { offset: 0x8F485, size: 0x8, addend: 0x0, symName: '__ZN4core3ptr126drop_in_place$LT$crossbeam_channel..flavors..zero..Channel$LT$alloc..string..String$GT$..send..$u7b$$u7b$closure$u7d$$u7d$$GT$17hd280130dd339769fE', symObjAddr: 0x1218, symBinAddr: 0x1DF2C, symSize: 0x60 }
  - { offset: 0x8F4B4, size: 0x8, addend: 0x0, symName: '__ZN4core3ptr127drop_in_place$LT$core..result..Result$LT$$LP$$RP$$C$crossbeam_channel..err..SendTimeoutError$LT$rust_core..Envelope$GT$$GT$$GT$17hd887d89fec80b78aE', symObjAddr: 0x129C, symBinAddr: 0x1DF8C, symSize: 0x44 }
  - { offset: 0x8F4E3, size: 0x8, addend: 0x0, symName: '__ZN4core3ptr129drop_in_place$LT$core..result..Result$LT$$LP$$RP$$C$crossbeam_channel..err..SendTimeoutError$LT$alloc..string..String$GT$$GT$$GT$17h61618635db26b8f2E', symObjAddr: 0x12E0, symBinAddr: 0x1DFD0, symSize: 0x44 }
  - { offset: 0x8F512, size: 0x8, addend: 0x0, symName: '__ZN4core3ptr130drop_in_place$LT$core..result..Result$LT$$LP$$RP$$C$alloc..boxed..Box$LT$dyn$u20$core..any..Any$u2b$core..marker..Send$GT$$GT$$GT$17he869f0ecf9f0d7e5E', symObjAddr: 0x136C, symBinAddr: 0x1E014, symSize: 0x44 }
  - { offset: 0x8F541, size: 0x8, addend: 0x0, symName: '__ZN4core3ptr132drop_in_place$LT$crossbeam_channel..counter..Counter$LT$crossbeam_channel..flavors..list..Channel$LT$rust_core..Envelope$GT$$GT$$GT$17h266df464ee9c5410E', symObjAddr: 0x13D4, symBinAddr: 0x1E058, symSize: 0x24 }
  - { offset: 0x8F570, size: 0x8, addend: 0x0, symName: '__ZN4core3ptr132drop_in_place$LT$crossbeam_channel..counter..Counter$LT$crossbeam_channel..flavors..zero..Channel$LT$rust_core..Envelope$GT$$GT$$GT$17h059f8a42ff34bcfcE', symObjAddr: 0x13F8, symBinAddr: 0x1E07C, symSize: 0x24 }
  - { offset: 0x8F59F, size: 0x8, addend: 0x0, symName: '__ZN4core3ptr133drop_in_place$LT$crossbeam_channel..counter..Counter$LT$crossbeam_channel..flavors..array..Channel$LT$rust_core..Envelope$GT$$GT$$GT$17h1c68929c73e03062E', symObjAddr: 0x141C, symBinAddr: 0x1E0A0, symSize: 0x24 }
  - { offset: 0x8F5CE, size: 0x8, addend: 0x0, symName: '__ZN4core3ptr134drop_in_place$LT$crossbeam_channel..counter..Counter$LT$crossbeam_channel..flavors..list..Channel$LT$alloc..string..String$GT$$GT$$GT$17h4a354194e3e312aeE', symObjAddr: 0x1464, symBinAddr: 0x1E0C4, symSize: 0x24 }
  - { offset: 0x8F5FD, size: 0x8, addend: 0x0, symName: '__ZN4core3ptr134drop_in_place$LT$crossbeam_channel..counter..Counter$LT$crossbeam_channel..flavors..zero..Channel$LT$alloc..string..String$GT$$GT$$GT$17hccd14420278f5170E', symObjAddr: 0x1488, symBinAddr: 0x1E0E8, symSize: 0x24 }
  - { offset: 0x8F62C, size: 0x8, addend: 0x0, symName: '__ZN4core3ptr134drop_in_place$LT$hashbrown..raw..RawTable$LT$$LP$alloc..string..String$C$alloc..sync..Arc$LT$rust_core..RustActorInner$GT$$RP$$GT$$GT$17hea03ab7693b41f48E', symObjAddr: 0x14AC, symBinAddr: 0x1E10C, symSize: 0x24 }
  - { offset: 0x8F65B, size: 0x8, addend: 0x0, symName: '__ZN4core3ptr134drop_in_place$LT$std..sync..poison..PoisonError$LT$std..sync..poison..mutex..MutexGuard$LT$crossbeam_channel..waker..Waker$GT$$GT$$GT$17h7986920adb15afe5E', symObjAddr: 0x14D0, symBinAddr: 0x1E130, symSize: 0x24 }
  - { offset: 0x8F68A, size: 0x8, addend: 0x0, symName: '__ZN4core3ptr135drop_in_place$LT$crossbeam_channel..counter..Counter$LT$crossbeam_channel..flavors..array..Channel$LT$alloc..string..String$GT$$GT$$GT$17h340286e59ccfb56bE', symObjAddr: 0x14F4, symBinAddr: 0x1E154, symSize: 0x24 }
  - { offset: 0x8F6B9, size: 0x8, addend: 0x0, symName: '__ZN4core3ptr138drop_in_place$LT$std..collections..hash..map..HashMap$LT$alloc..string..String$C$alloc..sync..Arc$LT$rust_core..RustActorInner$GT$$GT$$GT$17h4370c40d00d0f2a6E', symObjAddr: 0x1518, symBinAddr: 0x1E178, symSize: 0x24 }
  - { offset: 0x8F6E8, size: 0x8, addend: 0x0, symName: '__ZN4core3ptr139drop_in_place$LT$std..thread..Builder..spawn_unchecked_..MaybeDangling$LT$rust_core..RustSystem..spawn..$u7b$$u7b$closure$u7d$$u7d$$GT$$GT$17hd67b503d78116555E', symObjAddr: 0x153C, symBinAddr: 0x1E19C, symSize: 0x24 }
  - { offset: 0x8F717, size: 0x8, addend: 0x0, symName: '__ZN4core3ptr140drop_in_place$LT$alloc..vec..Vec$LT$crossbeam_channel..flavors..array..Slot$LT$pyo3..instance..Py$LT$pyo3..types..any..PyAny$GT$$GT$$GT$$GT$17hae4950dcec13cb3dE', symObjAddr: 0x1560, symBinAddr: 0x1E1C0, symSize: 0x5C }
  - { offset: 0x8F746, size: 0x8, addend: 0x0, symName: '__ZN4core3ptr140drop_in_place$LT$core..option..Option$LT$alloc..boxed..Box$LT$crossbeam_channel..flavors..list..Block$LT$rust_core..Envelope$GT$$GT$$GT$$GT$17h60c2c8e8271c2fefE', symObjAddr: 0x15BC, symBinAddr: 0x1E21C, symSize: 0x44 }
  - { offset: 0x8F775, size: 0x8, addend: 0x0, symName: '__ZN4core3ptr140drop_in_place$LT$core..option..Option$LT$crossbeam_channel..channel..Sender$LT$pyo3..instance..Py$LT$pyo3..types..any..PyAny$GT$$GT$$GT$$GT$17hf7d6e58430b1d7ccE', symObjAddr: 0x1600, symBinAddr: 0x1E260, symSize: 0x44 }
  - { offset: 0x8F7A4, size: 0x8, addend: 0x0, symName: '__ZN4core3ptr141drop_in_place$LT$core..result..Result$LT$pyo3..instance..Py$LT$pyo3..types..any..PyAny$GT$$C$crossbeam_channel..err..RecvTimeoutError$GT$$GT$17h4b7c1e71546e6a0fE', symObjAddr: 0x1644, symBinAddr: 0x1E2A4, symSize: 0x40 }
  - { offset: 0x8F7D3, size: 0x8, addend: 0x0, symName: '__ZN4core3ptr142drop_in_place$LT$alloc..boxed..Box$LT$crossbeam_channel..flavors..list..Block$LT$pyo3..instance..Py$LT$pyo3..types..any..PyAny$GT$$GT$$GT$$GT$17hb373c7b2dbf433ddE', symObjAddr: 0x1684, symBinAddr: 0x1E2E4, symSize: 0x2C }
  - { offset: 0x8F802, size: 0x8, addend: 0x0, symName: '__ZN4core3ptr142drop_in_place$LT$core..option..Option$LT$alloc..boxed..Box$LT$crossbeam_channel..flavors..list..Block$LT$alloc..string..String$GT$$GT$$GT$$GT$17h5d42cce4fc380684E', symObjAddr: 0x16B0, symBinAddr: 0x1E310, symSize: 0x44 }
  - { offset: 0x8F831, size: 0x8, addend: 0x0, symName: '__ZN4core3ptr142drop_in_place$LT$std..sync..poison..PoisonError$LT$std..sync..poison..mutex..MutexGuard$LT$crossbeam_channel..flavors..zero..Inner$GT$$GT$$GT$17h43f579d0c13a063cE', symObjAddr: 0x16F4, symBinAddr: 0x1E354, symSize: 0x24 }
  - { offset: 0x8F860, size: 0x8, addend: 0x0, symName: '__ZN4core3ptr143drop_in_place$LT$alloc..boxed..Box$LT$crossbeam_channel..flavors..zero..Packet$LT$pyo3..instance..Py$LT$pyo3..types..any..PyAny$GT$$GT$$GT$$GT$17h2f9bbfee953968fdE', symObjAddr: 0x1718, symBinAddr: 0x1E378, symSize: 0x60 }
  - { offset: 0x8F88F, size: 0x8, addend: 0x0, symName: '__ZN4core3ptr146drop_in_place$LT$alloc..sync..Weak$LT$lock_api..rwlock..RwLock$LT$parking_lot..raw_rwlock..RawRwLock$C$bool$GT$$C$$RF$alloc..alloc..Global$GT$$GT$17hcef2685a61338b63E', symObjAddr: 0x1778, symBinAddr: 0x1E3D8, symSize: 0x24 }
  - { offset: 0x8F8BE, size: 0x8, addend: 0x0, symName: '__ZN4core3ptr147drop_in_place$LT$alloc..raw_vec..RawVec$LT$crossbeam_channel..flavors..array..Slot$LT$pyo3..instance..Py$LT$pyo3..types..any..PyAny$GT$$GT$$GT$$GT$17ha863dfeef61e9cc6E', symObjAddr: 0x179C, symBinAddr: 0x1E3FC, symSize: 0x24 }
  - { offset: 0x8F8ED, size: 0x8, addend: 0x0, symName: '__ZN4core3ptr151drop_in_place$LT$std..thread..Builder..spawn_unchecked_..MaybeDangling$LT$rust_core..bench_rust_mailbox_throughput..$u7b$$u7b$closure$u7d$$u7d$$GT$$GT$17h839e5cb0e931f742E', symObjAddr: 0x17C0, symBinAddr: 0x1E420, symSize: 0x24 }
  - { offset: 0x8F91C, size: 0x8, addend: 0x0, symName: '__ZN4core3ptr152drop_in_place$LT$alloc..boxed..Box$LT$$u5b$crossbeam_channel..flavors..array..Slot$LT$pyo3..instance..Py$LT$pyo3..types..any..PyAny$GT$$GT$$u5d$$GT$$GT$17he0cf71d6ff475ae1E', symObjAddr: 0x17E4, symBinAddr: 0x1E444, symSize: 0x2C }
  - { offset: 0x8F94B, size: 0x8, addend: 0x0, symName: '__ZN4core3ptr152drop_in_place$LT$core..option..Option$LT$crossbeam_channel..flavors..zero..Channel$LT$rust_core..Envelope$GT$..recv..$u7b$$u7b$closure$u7d$$u7d$$GT$$GT$17h8ffe83b6ac86d4e1E', symObjAddr: 0x1810, symBinAddr: 0x1E470, symSize: 0x44 }
  - { offset: 0x8F97A, size: 0x8, addend: 0x0, symName: '__ZN4core3ptr152drop_in_place$LT$core..option..Option$LT$crossbeam_channel..flavors..zero..Channel$LT$rust_core..Envelope$GT$..send..$u7b$$u7b$closure$u7d$$u7d$$GT$$GT$17hd5797d5f41efdc75E', symObjAddr: 0x1854, symBinAddr: 0x1E4B4, symSize: 0x44 }
  - { offset: 0x8F9A9, size: 0x8, addend: 0x0, symName: '__ZN4core3ptr154drop_in_place$LT$alloc..boxed..Box$LT$dyn$u20$core..ops..function..FnOnce$LT$$LP$$RP$$GT$$u2b$Output$u20$$u3d$$u20$$LP$$RP$$u2b$core..marker..Send$GT$$GT$17hb1e49e2d3aafdce7E', symObjAddr: 0x1898, symBinAddr: 0x1E4F8, symSize: 0x80 }
  - { offset: 0x8F9D8, size: 0x8, addend: 0x0, symName: '__ZN4core3ptr154drop_in_place$LT$core..option..Option$LT$crossbeam_channel..flavors..zero..Channel$LT$alloc..string..String$GT$..recv..$u7b$$u7b$closure$u7d$$u7d$$GT$$GT$17h162c1de826f85feaE', symObjAddr: 0x1918, symBinAddr: 0x1E578, symSize: 0x44 }
  - { offset: 0x8FA07, size: 0x8, addend: 0x0, symName: '__ZN4core3ptr154drop_in_place$LT$core..option..Option$LT$crossbeam_channel..flavors..zero..Channel$LT$alloc..string..String$GT$..send..$u7b$$u7b$closure$u7d$$u7d$$GT$$GT$17he1fed1dcc21c8a0fE', symObjAddr: 0x195C, symBinAddr: 0x1E5BC, symSize: 0x48 }
  - { offset: 0x8FA36, size: 0x8, addend: 0x0, symName: '__ZN4core3ptr154drop_in_place$LT$crossbeam_channel..flavors..zero..Channel$LT$pyo3..instance..Py$LT$pyo3..types..any..PyAny$GT$$GT$..recv..$u7b$$u7b$closure$u7d$$u7d$$GT$17h8842d29d45e537b7E', symObjAddr: 0x19A4, symBinAddr: 0x1E604, symSize: 0x24 }
  - { offset: 0x8FA65, size: 0x8, addend: 0x0, symName: '__ZN4core3ptr157drop_in_place$LT$alloc..boxed..Box$LT$crossbeam_channel..counter..Counter$LT$crossbeam_channel..flavors..list..Channel$LT$rust_core..Envelope$GT$$GT$$GT$$GT$17h6014b7ee1205aab8E', symObjAddr: 0x19C8, symBinAddr: 0x1E628, symSize: 0x60 }
  - { offset: 0x8FA94, size: 0x8, addend: 0x0, symName: '__ZN4core3ptr157drop_in_place$LT$alloc..boxed..Box$LT$crossbeam_channel..counter..Counter$LT$crossbeam_channel..flavors..zero..Channel$LT$rust_core..Envelope$GT$$GT$$GT$$GT$17h745c3c8726187d3fE', symObjAddr: 0x1A28, symBinAddr: 0x1E688, symSize: 0x60 }
  - { offset: 0x8FAC3, size: 0x8, addend: 0x0, symName: '__ZN4core3ptr158drop_in_place$LT$alloc..boxed..Box$LT$crossbeam_channel..counter..Counter$LT$crossbeam_channel..flavors..array..Channel$LT$rust_core..Envelope$GT$$GT$$GT$$GT$17ha57118e00a25f35aE', symObjAddr: 0x1A88, symBinAddr: 0x1E6E8, symSize: 0x60 }
  - { offset: 0x8FAF2, size: 0x8, addend: 0x0, symName: '__ZN4core3ptr158drop_in_place$LT$core..option..Option$LT$core..result..Result$LT$$LP$$RP$$C$alloc..boxed..Box$LT$dyn$u20$core..any..Any$u2b$core..marker..Send$GT$$GT$$GT$$GT$17h6b6ca08f002eb3cfE', symObjAddr: 0x1AE8, symBinAddr: 0x1E748, symSize: 0x40 }
  - { offset: 0x8FB21, size: 0x8, addend: 0x0, symName: '__ZN4core3ptr158drop_in_place$LT$hashbrown..map..HashMap$LT$alloc..string..String$C$alloc..sync..Arc$LT$rust_core..RustActorInner$GT$$C$std..hash..random..RandomState$GT$$GT$17he2d044d6c15a0929E', symObjAddr: 0x1B28, symBinAddr: 0x1E788, symSize: 0x24 }
  - { offset: 0x8FB50, size: 0x8, addend: 0x0, symName: '__ZN4core3ptr159drop_in_place$LT$alloc..boxed..Box$LT$crossbeam_channel..counter..Counter$LT$crossbeam_channel..flavors..list..Channel$LT$alloc..string..String$GT$$GT$$GT$$GT$17hbc7f04600b9910a4E', symObjAddr: 0x1B4C, symBinAddr: 0x1E7AC, symSize: 0x60 }
  - { offset: 0x8FB7F, size: 0x8, addend: 0x0, symName: '__ZN4core3ptr159drop_in_place$LT$alloc..boxed..Box$LT$crossbeam_channel..counter..Counter$LT$crossbeam_channel..flavors..zero..Channel$LT$alloc..string..String$GT$$GT$$GT$$GT$17h8414e6d6a4cb4df7E', symObjAddr: 0x1BAC, symBinAddr: 0x1E80C, symSize: 0x60 }
  - { offset: 0x8FBAE, size: 0x8, addend: 0x0, symName: '__ZN4core3ptr160drop_in_place$LT$alloc..boxed..Box$LT$crossbeam_channel..counter..Counter$LT$crossbeam_channel..flavors..array..Channel$LT$alloc..string..String$GT$$GT$$GT$$GT$17hc0a4daae6cd19ddfE', symObjAddr: 0x1C0C, symBinAddr: 0x1E86C, symSize: 0x60 }
  - { offset: 0x8FBDD, size: 0x8, addend: 0x0, symName: '__ZN4core3ptr162drop_in_place$LT$crossbeam_channel..counter..Counter$LT$crossbeam_channel..flavors..list..Channel$LT$pyo3..instance..Py$LT$pyo3..types..any..PyAny$GT$$GT$$GT$$GT$17h252d3522d6899fdfE', symObjAddr: 0x1C6C, symBinAddr: 0x1E8CC, symSize: 0x24 }
  - { offset: 0x8FC0C, size: 0x8, addend: 0x0, symName: '__ZN4core3ptr162drop_in_place$LT$crossbeam_channel..counter..Counter$LT$crossbeam_channel..flavors..zero..Channel$LT$pyo3..instance..Py$LT$pyo3..types..any..PyAny$GT$$GT$$GT$$GT$17h626eb5dc855cc4aeE', symObjAddr: 0x1C90, symBinAddr: 0x1E8F0, symSize: 0x24 }
  - { offset: 0x8FC3B, size: 0x8, addend: 0x0, symName: '__ZN4core3ptr163drop_in_place$LT$crossbeam_channel..counter..Counter$LT$crossbeam_channel..flavors..array..Channel$LT$pyo3..instance..Py$LT$pyo3..types..any..PyAny$GT$$GT$$GT$$GT$17h497130a9a1c48863E', symObjAddr: 0x1CB4, symBinAddr: 0x1E914, symSize: 0x24 }
  - { offset: 0x8FC6A, size: 0x8, addend: 0x0, symName: '__ZN4core3ptr164drop_in_place$LT$$u5b$alloc..boxed..Box$LT$dyn$u20$core..ops..function..FnOnce$LT$$LP$$RP$$GT$$u2b$Output$u20$$u3d$$u20$$LP$$RP$$u2b$core..marker..Send$GT$$u5d$$GT$17h9214132e8bd4a4e5E', symObjAddr: 0x1CD8, symBinAddr: 0x1E938, symSize: 0xB4 }
  - { offset: 0x8FC99, size: 0x8, addend: 0x0, symName: '__ZN4core3ptr164drop_in_place$LT$std..thread..Builder..spawn_unchecked_$LT$rust_core..RustSystem..spawn..$u7b$$u7b$closure$u7d$$u7d$$C$$LP$$RP$$GT$..$u7b$$u7b$closure$u7d$$u7d$$GT$17ha74e17e6f120f28bE', symObjAddr: 0x1D8C, symBinAddr: 0x1E9EC, symSize: 0xBC }
  - { offset: 0x8FCC8, size: 0x8, addend: 0x0, symName: '__ZN4core3ptr168drop_in_place$LT$core..cell..UnsafeCell$LT$std..collections..hash..map..HashMap$LT$alloc..string..String$C$alloc..sync..Arc$LT$rust_core..RustActorInner$GT$$GT$$GT$$GT$17h16d92ce2f2f60a2eE', symObjAddr: 0x1E48, symBinAddr: 0x1EAA8, symSize: 0x24 }
  - { offset: 0x8FCF7, size: 0x8, addend: 0x0, symName: '__ZN4core3ptr176drop_in_place$LT$std..thread..Builder..spawn_unchecked_$LT$rust_core..bench_rust_mailbox_throughput..$u7b$$u7b$closure$u7d$$u7d$$C$$LP$$RP$$GT$..$u7b$$u7b$closure$u7d$$u7d$$GT$17h68837a881c11e07fE', symObjAddr: 0x1E6C, symBinAddr: 0x1EACC, symSize: 0xBC }
  - { offset: 0x8FD26, size: 0x8, addend: 0x0, symName: '__ZN4core3ptr177drop_in_place$LT$alloc..vec..Vec$LT$alloc..boxed..Box$LT$dyn$u20$core..ops..function..FnOnce$LT$$LP$$RP$$GT$$u2b$Output$u20$$u3d$$u20$$LP$$RP$$u2b$core..marker..Send$GT$$GT$$GT$17hd4fa49328a17ed31E', symObjAddr: 0x1F28, symBinAddr: 0x1EB88, symSize: 0x5C }
  - { offset: 0x8FD55, size: 0x8, addend: 0x0, symName: '__ZN4core3ptr178drop_in_place$LT$$LT$alloc..vec..drain..Drain$LT$T$C$A$GT$$u20$as$u20$core..ops..drop..Drop$GT$..drop..DropGuard$LT$crossbeam_channel..waker..Entry$C$alloc..alloc..Global$GT$$GT$17hf58cee469e329756E', symObjAddr: 0x1F84, symBinAddr: 0x1EBE4, symSize: 0x24 }
  - { offset: 0x8FD84, size: 0x8, addend: 0x0, symName: '__ZN4core3ptr182drop_in_place$LT$core..option..Option$LT$crossbeam_channel..flavors..zero..Channel$LT$pyo3..instance..Py$LT$pyo3..types..any..PyAny$GT$$GT$..recv..$u7b$$u7b$closure$u7d$$u7d$$GT$$GT$17he6a93d22dd280ff4E', symObjAddr: 0x1FA8, symBinAddr: 0x1EC08, symSize: 0x44 }
  - { offset: 0x8FDB3, size: 0x8, addend: 0x0, symName: '__ZN4core3ptr184drop_in_place$LT$alloc..raw_vec..RawVec$LT$alloc..boxed..Box$LT$dyn$u20$core..ops..function..FnOnce$LT$$LP$$RP$$GT$$u2b$Output$u20$$u3d$$u20$$LP$$RP$$u2b$core..marker..Send$GT$$GT$$GT$17h4f0b3c566a99ae0cE', symObjAddr: 0x1FEC, symBinAddr: 0x1EC4C, symSize: 0x24 }
  - { offset: 0x8FDE2, size: 0x8, addend: 0x0, symName: '__ZN4core3ptr187drop_in_place$LT$alloc..boxed..Box$LT$crossbeam_channel..counter..Counter$LT$crossbeam_channel..flavors..list..Channel$LT$pyo3..instance..Py$LT$pyo3..types..any..PyAny$GT$$GT$$GT$$GT$$GT$17hda97fc24a8ed46acE', symObjAddr: 0x2010, symBinAddr: 0x1EC70, symSize: 0x60 }
  - { offset: 0x8FE11, size: 0x8, addend: 0x0, symName: '__ZN4core3ptr187drop_in_place$LT$alloc..boxed..Box$LT$crossbeam_channel..counter..Counter$LT$crossbeam_channel..flavors..zero..Channel$LT$pyo3..instance..Py$LT$pyo3..types..any..PyAny$GT$$GT$$GT$$GT$$GT$17h2a0bf7b0e915b8fbE', symObjAddr: 0x2070, symBinAddr: 0x1ECD0, symSize: 0x60 }
  - { offset: 0x8FE40, size: 0x8, addend: 0x0, symName: '__ZN4core3ptr188drop_in_place$LT$alloc..boxed..Box$LT$crossbeam_channel..counter..Counter$LT$crossbeam_channel..flavors..array..Channel$LT$pyo3..instance..Py$LT$pyo3..types..any..PyAny$GT$$GT$$GT$$GT$$GT$17h64359c8e3f4e1293E', symObjAddr: 0x20D0, symBinAddr: 0x1ED30, symSize: 0x60 }
  - { offset: 0x8FE6F, size: 0x8, addend: 0x0, symName: '__ZN4core3ptr188drop_in_place$LT$core..cell..UnsafeCell$LT$core..option..Option$LT$core..result..Result$LT$$LP$$RP$$C$alloc..boxed..Box$LT$dyn$u20$core..any..Any$u2b$core..marker..Send$GT$$GT$$GT$$GT$$GT$17h8a043fda122bfb6aE', symObjAddr: 0x2130, symBinAddr: 0x1ED90, symSize: 0x24 }
  - { offset: 0x8FE9E, size: 0x8, addend: 0x0, symName: '__ZN4core3ptr207drop_in_place$LT$lock_api..rwlock..RwLock$LT$parking_lot..raw_rwlock..RawRwLock$C$std..collections..hash..map..HashMap$LT$alloc..string..String$C$alloc..sync..Arc$LT$rust_core..RustActorInner$GT$$GT$$GT$$GT$17h6c747bc4dbff5161E', symObjAddr: 0x2154, symBinAddr: 0x1EDB4, symSize: 0x24 }
  - { offset: 0x8FECD, size: 0x8, addend: 0x0, symName: '__ZN4core3ptr216drop_in_place$LT$lock_api..rwlock..RwLockReadGuard$LT$parking_lot..raw_rwlock..RawRwLock$C$std..collections..hash..map..HashMap$LT$alloc..string..String$C$alloc..sync..Arc$LT$rust_core..RustActorInner$GT$$GT$$GT$$GT$17h3af62f7bc0c3a9a7E', symObjAddr: 0x2178, symBinAddr: 0x1EDD8, symSize: 0x24 }
  - { offset: 0x8FEFC, size: 0x8, addend: 0x0, symName: '__ZN4core3ptr217drop_in_place$LT$lock_api..rwlock..RwLockWriteGuard$LT$parking_lot..raw_rwlock..RawRwLock$C$std..collections..hash..map..HashMap$LT$alloc..string..String$C$alloc..sync..Arc$LT$rust_core..RustActorInner$GT$$GT$$GT$$GT$17h786f9b5aca0558b9E', symObjAddr: 0x219C, symBinAddr: 0x1EDFC, symSize: 0x24 }
  - { offset: 0x8FF2B, size: 0x8, addend: 0x0, symName: '__ZN4core3ptr231drop_in_place$LT$alloc..sync..Arc$LT$lock_api..rwlock..RwLock$LT$parking_lot..raw_rwlock..RawRwLock$C$std..collections..hash..map..HashMap$LT$alloc..string..String$C$alloc..sync..Arc$LT$rust_core..RustActorInner$GT$$GT$$GT$$GT$$GT$17he339064748f38fe2E', symObjAddr: 0x21C0, symBinAddr: 0x1EE20, symSize: 0x24 }
  - { offset: 0x8FF5A, size: 0x8, addend: 0x0, symName: '__ZN4core3ptr236drop_in_place$LT$alloc..sync..ArcInner$LT$lock_api..rwlock..RwLock$LT$parking_lot..raw_rwlock..RawRwLock$C$std..collections..hash..map..HashMap$LT$alloc..string..String$C$alloc..sync..Arc$LT$rust_core..RustActorInner$GT$$GT$$GT$$GT$$GT$17hac0b8596b349fa51E', symObjAddr: 0x21E4, symBinAddr: 0x1EE44, symSize: 0x24 }
  - { offset: 0x8FF89, size: 0x8, addend: 0x0, symName: '__ZN4core3ptr259drop_in_place$LT$alloc..sync..Weak$LT$lock_api..rwlock..RwLock$LT$parking_lot..raw_rwlock..RawRwLock$C$std..collections..hash..map..HashMap$LT$alloc..string..String$C$alloc..sync..Arc$LT$rust_core..RustActorInner$GT$$GT$$GT$$C$$RF$alloc..alloc..Global$GT$$GT$17h072e4309923a8816E', symObjAddr: 0x2208, symBinAddr: 0x1EE68, symSize: 0x24 }
  - { offset: 0x8FFB8, size: 0x8, addend: 0x0, symName: '__ZN4core3ptr353drop_in_place$LT$alloc..vec..Vec$LT$crossbeam_channel..flavors..array..Slot$LT$rust_core..Envelope$GT$$GT$..extend_trusted$LT$core..iter..adapters..map..Map$LT$core..ops..range..Range$LT$usize$GT$$C$crossbeam_channel..flavors..array..Channel$LT$rust_core..Envelope$GT$..with_capacity..$u7b$$u7b$closure$u7d$$u7d$$GT$$GT$..$u7b$$u7b$closure$u7d$$u7d$$GT$17h2bf5b0917517b92aE', symObjAddr: 0x222C, symBinAddr: 0x1EE8C, symSize: 0x24 }
  - { offset: 0x8FFE7, size: 0x8, addend: 0x0, symName: '__ZN4core3ptr357drop_in_place$LT$alloc..vec..Vec$LT$crossbeam_channel..flavors..array..Slot$LT$alloc..string..String$GT$$GT$..extend_trusted$LT$core..iter..adapters..map..Map$LT$core..ops..range..Range$LT$usize$GT$$C$crossbeam_channel..flavors..array..Channel$LT$alloc..string..String$GT$..with_capacity..$u7b$$u7b$closure$u7d$$u7d$$GT$$GT$..$u7b$$u7b$closure$u7d$$u7d$$GT$17h6019efb1006f7014E', symObjAddr: 0x2250, symBinAddr: 0x1EEB0, symSize: 0x24 }
  - { offset: 0x90016, size: 0x8, addend: 0x0, symName: '__ZN4core3ptr40drop_in_place$LT$rust_core..Envelope$GT$17h0ae028211af7b6ceE', symObjAddr: 0x2274, symBinAddr: 0x1EED4, symSize: 0xBC }
  - { offset: 0x90045, size: 0x8, addend: 0x0, symName: '__ZN4core3ptr413drop_in_place$LT$alloc..vec..Vec$LT$crossbeam_channel..flavors..array..Slot$LT$pyo3..instance..Py$LT$pyo3..types..any..PyAny$GT$$GT$$GT$..extend_trusted$LT$core..iter..adapters..map..Map$LT$core..ops..range..Range$LT$usize$GT$$C$crossbeam_channel..flavors..array..Channel$LT$pyo3..instance..Py$LT$pyo3..types..any..PyAny$GT$$GT$..with_capacity..$u7b$$u7b$closure$u7d$$u7d$$GT$$GT$..$u7b$$u7b$closure$u7d$$u7d$$GT$17h83e663f85cd32cbfE', symObjAddr: 0x2330, symBinAddr: 0x1EF90, symSize: 0x24 }
  - { offset: 0x90074, size: 0x8, addend: 0x0, symName: '__ZN4core3ptr42drop_in_place$LT$rust_core..RustSystem$GT$17h55338ab84a7ab617E', symObjAddr: 0x2354, symBinAddr: 0x1EFB4, symSize: 0x24 }
  - { offset: 0x900A3, size: 0x8, addend: 0x0, symName: '__ZN4core3ptr46drop_in_place$LT$rust_core..RustActorInner$GT$17ha1c058e2d9ddfaebE', symObjAddr: 0x2378, symBinAddr: 0x1EFD8, symSize: 0x8C }
  - { offset: 0x900D2, size: 0x8, addend: 0x0, symName: '__ZN4core3ptr513drop_in_place$LT$core..iter..traits..iterator..Iterator..for_each..call$LT$crossbeam_channel..flavors..array..Slot$LT$rust_core..Envelope$GT$$C$alloc..vec..Vec$LT$crossbeam_channel..flavors..array..Slot$LT$rust_core..Envelope$GT$$GT$..extend_trusted$LT$core..iter..adapters..map..Map$LT$core..ops..range..Range$LT$usize$GT$$C$crossbeam_channel..flavors..array..Channel$LT$rust_core..Envelope$GT$..with_capacity..$u7b$$u7b$closure$u7d$$u7d$$GT$$GT$..$u7b$$u7b$closure$u7d$$u7d$$GT$..$u7b$$u7b$closure$u7d$$u7d$$GT$17h6da8611408401995E', symObjAddr: 0x2404, symBinAddr: 0x1F064, symSize: 0x24 }
  - { offset: 0x90101, size: 0x8, addend: 0x0, symName: '__ZN4core3ptr519drop_in_place$LT$core..iter..traits..iterator..Iterator..for_each..call$LT$crossbeam_channel..flavors..array..Slot$LT$alloc..string..String$GT$$C$alloc..vec..Vec$LT$crossbeam_channel..flavors..array..Slot$LT$alloc..string..String$GT$$GT$..extend_trusted$LT$core..iter..adapters..map..Map$LT$core..ops..range..Range$LT$usize$GT$$C$crossbeam_channel..flavors..array..Channel$LT$alloc..string..String$GT$..with_capacity..$u7b$$u7b$closure$u7d$$u7d$$GT$$GT$..$u7b$$u7b$closure$u7d$$u7d$$GT$..$u7b$$u7b$closure$u7d$$u7d$$GT$17h597c7c5605f77ac2E', symObjAddr: 0x2428, symBinAddr: 0x1F088, symSize: 0x24 }
  - { offset: 0x90130, size: 0x8, addend: 0x0, symName: '__ZN4core3ptr51drop_in_place$LT$std..sys..thread..unix..Thread$GT$17hc31224c1edf705dfE', symObjAddr: 0x244C, symBinAddr: 0x1F0AC, symSize: 0x24 }
  - { offset: 0x9015F, size: 0x8, addend: 0x0, symName: '__ZN4core3ptr51drop_in_place$LT$std..thread..scoped..ScopeData$GT$17h8094f46c564385f8E', symObjAddr: 0x2470, symBinAddr: 0x1F0D0, symSize: 0x24 }
  - { offset: 0x9018E, size: 0x8, addend: 0x0, symName: '__ZN4core3ptr52drop_in_place$LT$crossbeam_channel..waker..Entry$GT$17hb4e2752446e6927fE', symObjAddr: 0x2494, symBinAddr: 0x1F0F4, symSize: 0x24 }
  - { offset: 0x901BD, size: 0x8, addend: 0x0, symName: '__ZN4core3ptr52drop_in_place$LT$crossbeam_channel..waker..Waker$GT$17hd3038196522ced6aE', symObjAddr: 0x24B8, symBinAddr: 0x1F118, symSize: 0x88 }
  - { offset: 0x901EC, size: 0x8, addend: 0x0, symName: '__ZN4core3ptr55drop_in_place$LT$std..thread..spawnhook..SpawnHooks$GT$17habba4294f19fbb8cE', symObjAddr: 0x2564, symBinAddr: 0x1F1A0, symSize: 0x5C }
  - { offset: 0x9021B, size: 0x8, addend: 0x0, symName: '__ZN4core3ptr56drop_in_place$LT$crossbeam_channel..waker..SyncWaker$GT$17h936a7ff244fb5636E', symObjAddr: 0x25C0, symBinAddr: 0x1F1FC, symSize: 0x5C }
  - { offset: 0x9024A, size: 0x8, addend: 0x0, symName: '__ZN4core3ptr56drop_in_place$LT$std..thread..Packet$LT$$LP$$RP$$GT$$GT$17h00e257b14eeb5489E', symObjAddr: 0x261C, symBinAddr: 0x1F258, symSize: 0x88 }
  - { offset: 0x90279, size: 0x8, addend: 0x0, symName: '__ZN4core3ptr59drop_in_place$LT$std..thread..JoinInner$LT$$LP$$RP$$GT$$GT$17h1b57bb1eed0768c3E', symObjAddr: 0x26A4, symBinAddr: 0x1F2E0, symSize: 0x8C }
  - { offset: 0x902A8, size: 0x8, addend: 0x0, symName: '__ZN4core3ptr603drop_in_place$LT$core..iter..traits..iterator..Iterator..for_each..call$LT$crossbeam_channel..flavors..array..Slot$LT$pyo3..instance..Py$LT$pyo3..types..any..PyAny$GT$$GT$$C$alloc..vec..Vec$LT$crossbeam_channel..flavors..array..Slot$LT$pyo3..instance..Py$LT$pyo3..types..any..PyAny$GT$$GT$$GT$..extend_trusted$LT$core..iter..adapters..map..Map$LT$core..ops..range..Range$LT$usize$GT$$C$crossbeam_channel..flavors..array..Channel$LT$pyo3..instance..Py$LT$pyo3..types..any..PyAny$GT$$GT$..with_capacity..$u7b$$u7b$closure$u7d$$u7d$$GT$$GT$..$u7b$$u7b$closure$u7d$$u7d$$GT$..$u7b$$u7b$closure$u7d$$u7d$$GT$17ha79e70239e0e22efE', symObjAddr: 0x2730, symBinAddr: 0x1F36C, symSize: 0x24 }
  - { offset: 0x902D7, size: 0x8, addend: 0x0, symName: '__ZN4core3ptr60drop_in_place$LT$crossbeam_channel..flavors..zero..Inner$GT$17hae6775f617de8842E', symObjAddr: 0x2754, symBinAddr: 0x1F390, symSize: 0x60 }
  - { offset: 0x90306, size: 0x8, addend: 0x0, symName: '__ZN4core3ptr60drop_in_place$LT$std..thread..JoinHandle$LT$$LP$$RP$$GT$$GT$17h9262499e46eb8cfeE', symObjAddr: 0x27B4, symBinAddr: 0x1F3F0, symSize: 0x24 }
  - { offset: 0x90335, size: 0x8, addend: 0x0, symName: '__ZN4core3ptr60drop_in_place$LT$std..thread..spawnhook..ChildSpawnHooks$GT$17hd17ccd9256a9a748E', symObjAddr: 0x27D8, symBinAddr: 0x1F414, symSize: 0x5C }
  - { offset: 0x90364, size: 0x8, addend: 0x0, symName: '__ZN4core3ptr62drop_in_place$LT$$u5b$crossbeam_channel..waker..Entry$u5d$$GT$17hdd894d0ded43ba18E', symObjAddr: 0x2834, symBinAddr: 0x1F470, symSize: 0xC4 }
  - { offset: 0x90393, size: 0x8, addend: 0x0, symName: '__ZN4core3ptr62drop_in_place$LT$alloc..vec..set_len_on_drop..SetLenOnDrop$GT$17hf9d1a373f24efbddE', symObjAddr: 0x28F8, symBinAddr: 0x1F534, symSize: 0x24 }
  - { offset: 0x903C2, size: 0x8, addend: 0x0, symName: '__ZN4core3ptr68drop_in_place$LT$core..option..Option$LT$rust_core..Envelope$GT$$GT$17hd9a264b275ba1a01E', symObjAddr: 0x291C, symBinAddr: 0x1F558, symSize: 0x44 }
  - { offset: 0x903F1, size: 0x8, addend: 0x0, symName: '__ZN4core3ptr68drop_in_place$LT$pyo3..instance..Py$LT$rust_core..RustSystem$GT$$GT$17h634b2ad67c313663E', symObjAddr: 0x2960, symBinAddr: 0x1F59C, symSize: 0x2C }
  - { offset: 0x90420, size: 0x8, addend: 0x0, symName: '__ZN4core3ptr69drop_in_place$LT$alloc..borrow..Cow$LT$core..ffi..c_str..CStr$GT$$GT$17h7991ac658eda1fe7E', symObjAddr: 0x298C, symBinAddr: 0x1F5C8, symSize: 0x40 }
  - { offset: 0x9044F, size: 0x8, addend: 0x0, symName: '__ZN4core3ptr69drop_in_place$LT$pyo3..pycell..PyRef$LT$rust_core..RustSystem$GT$$GT$17hf56bffced3bdfa08E', symObjAddr: 0x29CC, symBinAddr: 0x1F608, symSize: 0x5C }
  - { offset: 0x9047E, size: 0x8, addend: 0x0, symName: '__ZN4core3ptr70drop_in_place$LT$alloc..sync..Arc$LT$rust_core..RustActorInner$GT$$GT$17h2545a40f911878f7E', symObjAddr: 0x2A28, symBinAddr: 0x1F664, symSize: 0x24 }
  - { offset: 0x904AD, size: 0x8, addend: 0x0, symName: '__ZN4core3ptr70drop_in_place$LT$core..option..Option$LT$alloc..string..String$GT$$GT$17h15d0600885ce35b0E', symObjAddr: 0x2A4C, symBinAddr: 0x1F688, symSize: 0x48 }
  - { offset: 0x904DC, size: 0x8, addend: 0x0, symName: '__ZN4core3ptr71drop_in_place$LT$pyo3..instance..Bound$LT$rust_core..RustSystem$GT$$GT$17h7f1c132e7d65fc6fE', symObjAddr: 0x2A94, symBinAddr: 0x1F6D0, symSize: 0x24 }
  - { offset: 0x9050B, size: 0x8, addend: 0x0, symName: '__ZN4core3ptr72drop_in_place$LT$core..cell..UnsafeCell$LT$rust_core..RustSystem$GT$$GT$17hbd5c2ce8c45e3982E', symObjAddr: 0x2AB8, symBinAddr: 0x1F6F4, symSize: 0x24 }
  - { offset: 0x9053A, size: 0x8, addend: 0x0, symName: '__ZN4core3ptr72drop_in_place$LT$core..result..Result$LT$bool$C$pyo3..err..PyErr$GT$$GT$17h38d1c7a21fa465e6E', symObjAddr: 0x2ADC, symBinAddr: 0x1F718, symSize: 0x40 }
  - { offset: 0x90569, size: 0x8, addend: 0x0, symName: '__ZN4core3ptr73drop_in_place$LT$crossbeam_utils..atomic..seq_lock..SeqLockWriteGuard$GT$17hf20a8d660d6f278eE', symObjAddr: 0x2B1C, symBinAddr: 0x1F758, symSize: 0x24 }
  - { offset: 0x90598, size: 0x8, addend: 0x0, symName: '__ZN4core3ptr75drop_in_place$LT$alloc..sync..Arc$LT$std..thread..scoped..ScopeData$GT$$GT$17ha653ff8965bb0684E', symObjAddr: 0x2B40, symBinAddr: 0x1F77C, symSize: 0x24 }
  - { offset: 0x905C7, size: 0x8, addend: 0x0, symName: '__ZN4core3ptr75drop_in_place$LT$alloc..sync..ArcInner$LT$rust_core..RustActorInner$GT$$GT$17h37170d0d7866d602E', symObjAddr: 0x2B64, symBinAddr: 0x1F7A0, symSize: 0x24 }
  - { offset: 0x905F6, size: 0x8, addend: 0x0, symName: '__ZN4core3ptr75drop_in_place$LT$alloc..vec..Vec$LT$crossbeam_channel..waker..Entry$GT$$GT$17h1e9a79a54d79f484E', symObjAddr: 0x2B88, symBinAddr: 0x1F7C4, symSize: 0x5C }
  - { offset: 0x90625, size: 0x8, addend: 0x0, symName: '__ZN4core3ptr789drop_in_place$LT$core..iter..adapters..map..map_fold$LT$usize$C$crossbeam_channel..flavors..array..Slot$LT$rust_core..Envelope$GT$$C$$LP$$RP$$C$crossbeam_channel..flavors..array..Channel$LT$rust_core..Envelope$GT$..with_capacity..$u7b$$u7b$closure$u7d$$u7d$$C$core..iter..traits..iterator..Iterator..for_each..call$LT$crossbeam_channel..flavors..array..Slot$LT$rust_core..Envelope$GT$$C$alloc..vec..Vec$LT$crossbeam_channel..flavors..array..Slot$LT$rust_core..Envelope$GT$$GT$..extend_trusted$LT$core..iter..adapters..map..Map$LT$core..ops..range..Range$LT$usize$GT$$C$crossbeam_channel..flavors..array..Channel$LT$rust_core..Envelope$GT$..with_capacity..$u7b$$u7b$closure$u7d$$u7d$$GT$$GT$..$u7b$$u7b$closure$u7d$$u7d$$GT$..$u7b$$u7b$closure$u7d$$u7d$$GT$..$u7b$$u7b$closure$u7d$$u7d$$GT$17h29730bae7cb71fe2E', symObjAddr: 0x2BE4, symBinAddr: 0x1F820, symSize: 0x24 }
  - { offset: 0x90654, size: 0x8, addend: 0x0, symName: '__ZN4core3ptr78drop_in_place$LT$alloc..sync..Arc$LT$std..thread..spawnhook..SpawnHook$GT$$GT$17h4f0c2024522c3078E', symObjAddr: 0x2C08, symBinAddr: 0x1F844, symSize: 0x24 }
  - { offset: 0x90683, size: 0x8, addend: 0x0, symName: '__ZN4core3ptr78drop_in_place$LT$rust_core..RustSystem..spawn..$u7b$$u7b$closure$u7d$$u7d$$GT$17h1d6556af462133cbE', symObjAddr: 0x2C2C, symBinAddr: 0x1F868, symSize: 0xEC }
  - { offset: 0x906B2, size: 0x8, addend: 0x0, symName: '__ZN4core3ptr799drop_in_place$LT$core..iter..adapters..map..map_fold$LT$usize$C$crossbeam_channel..flavors..array..Slot$LT$alloc..string..String$GT$$C$$LP$$RP$$C$crossbeam_channel..flavors..array..Channel$LT$alloc..string..String$GT$..with_capacity..$u7b$$u7b$closure$u7d$$u7d$$C$core..iter..traits..iterator..Iterator..for_each..call$LT$crossbeam_channel..flavors..array..Slot$LT$alloc..string..String$GT$$C$alloc..vec..Vec$LT$crossbeam_channel..flavors..array..Slot$LT$alloc..string..String$GT$$GT$..extend_trusted$LT$core..iter..adapters..map..Map$LT$core..ops..range..Range$LT$usize$GT$$C$crossbeam_channel..flavors..array..Channel$LT$alloc..string..String$GT$..with_capacity..$u7b$$u7b$closure$u7d$$u7d$$GT$$GT$..$u7b$$u7b$closure$u7d$$u7d$$GT$..$u7b$$u7b$closure$u7d$$u7d$$GT$..$u7b$$u7b$closure$u7d$$u7d$$GT$17h5a3d1e5cc88ca703E', symObjAddr: 0x2D18, symBinAddr: 0x1F954, symSize: 0x24 }
  - { offset: 0x906E1, size: 0x8, addend: 0x0, symName: '__ZN4core3ptr79drop_in_place$LT$core..result..Result$LT$$LP$$RP$$C$rust_core..Envelope$GT$$GT$17h016da1deb260bca8E', symObjAddr: 0x2D3C, symBinAddr: 0x1F978, symSize: 0x44 }
  - { offset: 0x90710, size: 0x8, addend: 0x0, symName: '__ZN4core3ptr80drop_in_place$LT$alloc..sync..Arc$LT$std..thread..Packet$LT$$LP$$RP$$GT$$GT$$GT$17h4e7ce0eaa4cbc433E', symObjAddr: 0x2D80, symBinAddr: 0x1F9BC, symSize: 0x24 }
  - { offset: 0x9073F, size: 0x8, addend: 0x0, symName: '__ZN4core3ptr80drop_in_place$LT$core..option..Option$LT$crossbeam_channel..waker..Entry$GT$$GT$17hbbe73529e35fa9c9E', symObjAddr: 0x2DA4, symBinAddr: 0x1F9E0, symSize: 0x44 }
  - { offset: 0x9076E, size: 0x8, addend: 0x0, symName: '__ZN4core3ptr81drop_in_place$LT$core..result..Result$LT$$LP$$RP$$C$alloc..string..String$GT$$GT$17h8205afd96aac6311E', symObjAddr: 0x2E48, symBinAddr: 0x1FA24, symSize: 0x48 }
  - { offset: 0x9079D, size: 0x8, addend: 0x0, symName: '__ZN4core3ptr81drop_in_place$LT$crossbeam_channel..err..SendError$LT$rust_core..Envelope$GT$$GT$17hac425fa2a91669c6E', symObjAddr: 0x2E90, symBinAddr: 0x1FA6C, symSize: 0x24 }
  - { offset: 0x907CC, size: 0x8, addend: 0x0, symName: '__ZN4core3ptr82drop_in_place$LT$alloc..raw_vec..RawVec$LT$crossbeam_channel..waker..Entry$GT$$GT$17h6dfcd90487e91b47E', symObjAddr: 0x2EB4, symBinAddr: 0x1FA90, symSize: 0x24 }
  - { offset: 0x907FB, size: 0x8, addend: 0x0, symName: '__ZN4core3ptr82drop_in_place$LT$core..cell..UnsafeCell$LT$crossbeam_channel..waker..Waker$GT$$GT$17h29db1ce901c8569eE', symObjAddr: 0x2ED8, symBinAddr: 0x1FAB4, symSize: 0x24 }
  - { offset: 0x9082A, size: 0x8, addend: 0x0, symName: '__ZN4core3ptr82drop_in_place$LT$crossbeam_channel..channel..Sender$LT$rust_core..Envelope$GT$$GT$17ha79ef4694730929eE', symObjAddr: 0x2EFC, symBinAddr: 0x1FAD8, symSize: 0x24 }
  - { offset: 0x90859, size: 0x8, addend: 0x0, symName: '__ZN4core3ptr82drop_in_place$LT$rust_core..bench_rust_actor_tell..$u7b$$u7b$closure$u7d$$u7d$$GT$17hc1e28815d44beaf8E', symObjAddr: 0x2F20, symBinAddr: 0x1FAFC, symSize: 0x24 }
  - { offset: 0x90888, size: 0x8, addend: 0x0, symName: '__ZN4core3ptr83drop_in_place$LT$crossbeam_channel..err..SendError$LT$alloc..string..String$GT$$GT$17h7db804a341df4f40E', symObjAddr: 0x2F44, symBinAddr: 0x1FB20, symSize: 0x24 }
  - { offset: 0x908B7, size: 0x8, addend: 0x0, symName: '__ZN4core3ptr84drop_in_place$LT$alloc..sync..Arc$LT$crossbeam_channel..flavors..at..Channel$GT$$GT$17he7a58ae4516a1c5fE', symObjAddr: 0x2F68, symBinAddr: 0x1FB44, symSize: 0x24 }
  - { offset: 0x908E6, size: 0x8, addend: 0x0, symName: '__ZN4core3ptr84drop_in_place$LT$alloc..vec..drain..Drain$LT$crossbeam_channel..waker..Entry$GT$$GT$17hc9b414d8836ad853E', symObjAddr: 0x2F8C, symBinAddr: 0x1FB68, symSize: 0x24 }
  - { offset: 0x90915, size: 0x8, addend: 0x0, symName: '__ZN4core3ptr84drop_in_place$LT$crossbeam_channel..channel..Receiver$LT$rust_core..Envelope$GT$$GT$17h6834720533ca5377E', symObjAddr: 0x2FB0, symBinAddr: 0x1FB8C, symSize: 0x5C }
  - { offset: 0x90944, size: 0x8, addend: 0x0, symName: '__ZN4core3ptr84drop_in_place$LT$crossbeam_channel..channel..Sender$LT$alloc..string..String$GT$$GT$17hb999b4372db63fddE', symObjAddr: 0x300C, symBinAddr: 0x1FBE8, symSize: 0x24 }
  - { offset: 0x90973, size: 0x8, addend: 0x0, symName: '__ZN4core3ptr85drop_in_place$LT$alloc..sync..ArcInner$LT$std..thread..Packet$LT$$LP$$RP$$GT$$GT$$GT$17h659c239146bc600bE', symObjAddr: 0x3030, symBinAddr: 0x1FC0C, symSize: 0x24 }
  - { offset: 0x909A2, size: 0x8, addend: 0x0, symName: '__ZN4core3ptr86drop_in_place$LT$alloc..sync..Arc$LT$crossbeam_channel..flavors..tick..Channel$GT$$GT$17h062e79a8da20d085E', symObjAddr: 0x3054, symBinAddr: 0x1FC30, symSize: 0x24 }
  - { offset: 0x909D1, size: 0x8, addend: 0x0, symName: '__ZN4core3ptr86drop_in_place$LT$crossbeam_channel..channel..Receiver$LT$alloc..string..String$GT$$GT$17h47a986c8d64b5d9bE', symObjAddr: 0x3078, symBinAddr: 0x1FC54, symSize: 0x5C }
  - { offset: 0x90A00, size: 0x8, addend: 0x0, symName: '__ZN4core3ptr88drop_in_place$LT$crossbeam_channel..err..SendTimeoutError$LT$rust_core..Envelope$GT$$GT$17h891f7ac831ab9abaE', symObjAddr: 0x30D4, symBinAddr: 0x1FCB0, symSize: 0x50 }
  - { offset: 0x90A2F, size: 0x8, addend: 0x0, symName: '__ZN4core3ptr88drop_in_place$LT$crossbeam_channel..flavors..zero..Packet$LT$rust_core..Envelope$GT$$GT$17hd515a0ac80b2210aE', symObjAddr: 0x3124, symBinAddr: 0x1FD00, symSize: 0x24 }
  - { offset: 0x90A5E, size: 0x8, addend: 0x0, symName: '__ZN4core3ptr88drop_in_place$LT$pyo3..pyclass_init..PyClassInitializer$LT$rust_core..RustSystem$GT$$GT$17h73ea849801560223E', symObjAddr: 0x3148, symBinAddr: 0x1FD24, symSize: 0x24 }
  - { offset: 0x90A8D, size: 0x8, addend: 0x0, symName: '__ZN4core3ptr89drop_in_place$LT$core..result..Result$LT$alloc..string..String$C$pyo3..err..PyErr$GT$$GT$17h10120bef8f72a1b1E', symObjAddr: 0x316C, symBinAddr: 0x1FD48, symSize: 0x50 }
  - { offset: 0x90ABC, size: 0x8, addend: 0x0, symName: '__ZN4core3ptr89drop_in_place$LT$crossbeam_channel..flavors..list..Channel$LT$rust_core..Envelope$GT$$GT$17h43c3388664dc14e5E', symObjAddr: 0x31BC, symBinAddr: 0x1FD98, symSize: 0x60 }
  - { offset: 0x90AEB, size: 0x8, addend: 0x0, symName: '__ZN4core3ptr89drop_in_place$LT$crossbeam_channel..flavors..zero..Channel$LT$rust_core..Envelope$GT$$GT$17h9b9cccc6e1ce0993E', symObjAddr: 0x321C, symBinAddr: 0x1FDF8, symSize: 0x24 }
  - { offset: 0x90B1A, size: 0x8, addend: 0x0, symName: '__ZN4core3ptr90drop_in_place$LT$core..cell..UnsafeCell$LT$crossbeam_channel..flavors..zero..Inner$GT$$GT$17h295454481a7f0aceE', symObjAddr: 0x3240, symBinAddr: 0x1FE1C, symSize: 0x24 }
  - { offset: 0x90B49, size: 0x8, addend: 0x0, symName: '__ZN4core3ptr90drop_in_place$LT$crossbeam_channel..channel..ReceiverFlavor$LT$rust_core..Envelope$GT$$GT$17h97254fce4d4561a6E', symObjAddr: 0x3264, symBinAddr: 0x1FE40, symSize: 0x68 }
  - { offset: 0x90B78, size: 0x8, addend: 0x0, symName: '__ZN4core3ptr90drop_in_place$LT$crossbeam_channel..err..SendTimeoutError$LT$alloc..string..String$GT$$GT$17h917abcfe14ed26aaE', symObjAddr: 0x32CC, symBinAddr: 0x1FEA8, symSize: 0x50 }
  - { offset: 0x90BA7, size: 0x8, addend: 0x0, symName: '__ZN4core3ptr90drop_in_place$LT$crossbeam_channel..flavors..array..Channel$LT$rust_core..Envelope$GT$$GT$17h8f85b9bef6e86be3E', symObjAddr: 0x331C, symBinAddr: 0x1FEF8, symSize: 0xC0 }
  - { offset: 0x90BD6, size: 0x8, addend: 0x0, symName: '__ZN4core3ptr90drop_in_place$LT$crossbeam_channel..flavors..zero..Packet$LT$alloc..string..String$GT$$GT$17h5eca0ab4d6a23eb3E', symObjAddr: 0x33DC, symBinAddr: 0x1FFB8, symSize: 0x24 }
  - { offset: 0x90C05, size: 0x8, addend: 0x0, symName: '__ZN4core3ptr90drop_in_place$LT$rust_core..bench_rust_mailbox_throughput..$u7b$$u7b$closure$u7d$$u7d$$GT$17he1e02e8fa6a85b3eE', symObjAddr: 0x3400, symBinAddr: 0x1FFDC, symSize: 0x24 }
  - { offset: 0x90C34, size: 0x8, addend: 0x0, symName: '__ZN4core3ptr91drop_in_place$LT$crossbeam_channel..flavors..list..Channel$LT$alloc..string..String$GT$$GT$17hdeba32186f1d7e4dE', symObjAddr: 0x3424, symBinAddr: 0x20000, symSize: 0x60 }
  - { offset: 0x90C63, size: 0x8, addend: 0x0, symName: '__ZN4core3ptr91drop_in_place$LT$crossbeam_channel..flavors..zero..Channel$LT$alloc..string..String$GT$$GT$17h68db870f6d3e55f2E', symObjAddr: 0x3484, symBinAddr: 0x20060, symSize: 0x24 }
  - { offset: 0x90C92, size: 0x8, addend: 0x0, symName: '__ZN4core3ptr91drop_in_place$LT$std..sync..poison..mutex..Mutex$LT$crossbeam_channel..waker..Waker$GT$$GT$17hb17d87b0896d1acbE', symObjAddr: 0x34A8, symBinAddr: 0x20084, symSize: 0x60 }
  - { offset: 0x90CC1, size: 0x8, addend: 0x0, symName: '__ZN4core3ptr92drop_in_place$LT$crossbeam_channel..channel..ReceiverFlavor$LT$alloc..string..String$GT$$GT$17hc05eb10ead2c9224E', symObjAddr: 0x352C, symBinAddr: 0x200E4, symSize: 0x68 }
  - { offset: 0x90CF0, size: 0x8, addend: 0x0, symName: '__ZN4core3ptr92drop_in_place$LT$crossbeam_channel..flavors..array..Channel$LT$alloc..string..String$GT$$GT$17he45e93f01252fac6E', symObjAddr: 0x3594, symBinAddr: 0x2014C, symSize: 0xC0 }
  - { offset: 0x90D1F, size: 0x8, addend: 0x0, symName: '__ZN4core3ptr92drop_in_place$LT$pyo3..pyclass_init..PyClassInitializerImpl$LT$rust_core..RustSystem$GT$$GT$17h50485fa77e4cc7b4E', symObjAddr: 0x3654, symBinAddr: 0x2020C, symSize: 0x50 }
  - { offset: 0x90D4E, size: 0x8, addend: 0x0, symName: '__ZN4core3ptr939drop_in_place$LT$core..iter..adapters..map..map_fold$LT$usize$C$crossbeam_channel..flavors..array..Slot$LT$pyo3..instance..Py$LT$pyo3..types..any..PyAny$GT$$GT$$C$$LP$$RP$$C$crossbeam_channel..flavors..array..Channel$LT$pyo3..instance..Py$LT$pyo3..types..any..PyAny$GT$$GT$..with_capacity..$u7b$$u7b$closure$u7d$$u7d$$C$core..iter..traits..iterator..Iterator..for_each..call$LT$crossbeam_channel..flavors..array..Slot$LT$pyo3..instance..Py$LT$pyo3..types..any..PyAny$GT$$GT$$C$alloc..vec..Vec$LT$crossbeam_channel..flavors..array..Slot$LT$pyo3..instance..Py$LT$pyo3..types..any..PyAny$GT$$GT$$GT$..extend_trusted$LT$core..iter..adapters..map..Map$LT$core..ops..range..Range$LT$usize$GT$$C$crossbeam_channel..flavors..array..Channel$LT$pyo3..instance..Py$LT$pyo3..types..any..PyAny$GT$$GT$..with_capacity..$u7b$$u7b$closure$u7d$$u7d$$GT$$GT$..$u7b$$u7b$closure$u7d$$u7d$$GT$..$u7b$$u7b$closure$u7d$$u7d$$GT$..$u7b$$u7b$closure$u7d$$u7d$$GT$17h68090aab53d1f06dE', symObjAddr: 0x36A4, symBinAddr: 0x2025C, symSize: 0x24 }
  - { offset: 0x90D7D, size: 0x8, addend: 0x0, symName: '__ZN4core3ptr96drop_in_place$LT$std..sync..poison..mutex..MutexGuard$LT$crossbeam_channel..waker..Waker$GT$$GT$17h5f7f38fb36e40c53E', symObjAddr: 0x36EC, symBinAddr: 0x20280, symSize: 0x24 }
  - { offset: 0x90DAC, size: 0x8, addend: 0x0, symName: '__ZN4core3ptr97drop_in_place$LT$core..option..Option$LT$alloc..borrow..Cow$LT$core..ffi..c_str..CStr$GT$$GT$$GT$17h20fed7f5ce0a1ef9E', symObjAddr: 0x3710, symBinAddr: 0x202A4, symSize: 0x44 }
  - { offset: 0x90DDB, size: 0x8, addend: 0x0, symName: '__ZN4core3ptr97drop_in_place$LT$core..option..Option$LT$pyo3..pycell..PyRef$LT$rust_core..RustSystem$GT$$GT$$GT$17h7d64155dfa4d39e2E', symObjAddr: 0x3754, symBinAddr: 0x202E8, symSize: 0x44 }
  - { offset: 0x90E0A, size: 0x8, addend: 0x0, symName: '__ZN4core3ptr98drop_in_place$LT$alloc..sync..Weak$LT$rust_core..RustActorInner$C$$RF$alloc..alloc..Global$GT$$GT$17h4fa10b6fd8e53bb3E', symObjAddr: 0x3798, symBinAddr: 0x2032C, symSize: 0x24 }
  - { offset: 0x90E39, size: 0x8, addend: 0x0, symName: '__ZN4core3ptr98drop_in_place$LT$core..cell..UnsafeCell$LT$core..option..Option$LT$rust_core..Envelope$GT$$GT$$GT$17ha9ab65a1d60ed3b4E', symObjAddr: 0x37BC, symBinAddr: 0x20350, symSize: 0x24 }
  - { offset: 0x90E68, size: 0x8, addend: 0x0, symName: '__ZN4core3ptr98drop_in_place$LT$core..option..Option$LT$alloc..sync..Arc$LT$rust_core..RustActorInner$GT$$GT$$GT$17he9b303461b433d4bE', symObjAddr: 0x37E0, symBinAddr: 0x20374, symSize: 0x44 }
  - { offset: 0x90E97, size: 0x8, addend: 0x0, symName: '__ZN4core3ptr99drop_in_place$LT$std..sync..poison..mutex..Mutex$LT$crossbeam_channel..flavors..zero..Inner$GT$$GT$17h2732e98459565b74E', symObjAddr: 0x3824, symBinAddr: 0x203B8, symSize: 0x60 }
  - { offset: 0x937A6, size: 0x8, addend: 0x0, symName: '__ZN4core3ops8function6FnOnce40call_once$u7b$$u7b$vtable.shim$u7d$$u7d$17h5d57fd2d5017e558E', symObjAddr: 0x208, symBinAddr: 0x1CFF4, symSize: 0x30 }
  - { offset: 0x937EA, size: 0x8, addend: 0x0, symName: '__ZN4core3ops8function6FnOnce40call_once$u7b$$u7b$vtable.shim$u7d$$u7d$17h63d311fd809d8559E', symObjAddr: 0x238, symBinAddr: 0x1D024, symSize: 0x38 }
  - { offset: 0x9382E, size: 0x8, addend: 0x0, symName: '__ZN4core3ops8function6FnOnce40call_once$u7b$$u7b$vtable.shim$u7d$$u7d$17h68f4058b17fb5b54E', symObjAddr: 0x270, symBinAddr: 0x1D05C, symSize: 0x24 }
  - { offset: 0x9386E, size: 0x8, addend: 0x0, symName: '__ZN4core3ops8function6FnOnce40call_once$u7b$$u7b$vtable.shim$u7d$$u7d$17h95e7cd8e7a531d02E', symObjAddr: 0x294, symBinAddr: 0x1D080, symSize: 0x24 }
  - { offset: 0x938AE, size: 0x8, addend: 0x0, symName: '__ZN4core3ops8function6FnOnce40call_once$u7b$$u7b$vtable.shim$u7d$$u7d$17hbce520c373621432E', symObjAddr: 0x2B8, symBinAddr: 0x1D0A4, symSize: 0x38 }
  - { offset: 0x938F2, size: 0x8, addend: 0x0, symName: '__ZN4core3ops8function6FnOnce40call_once$u7b$$u7b$vtable.shim$u7d$$u7d$17hf7a6b26414757eceE', symObjAddr: 0x2F0, symBinAddr: 0x1D0DC, symSize: 0x38 }
  - { offset: 0x93936, size: 0x8, addend: 0x0, symName: __ZN4core3ops8function6FnOnce9call_once17h039ff1c0b8098bfaE, symObjAddr: 0x328, symBinAddr: 0x1D114, symSize: 0x4C }
  - { offset: 0x9397A, size: 0x8, addend: 0x0, symName: __ZN4core3ops8function6FnOnce9call_once17h173dfb0e352669e1E, symObjAddr: 0x374, symBinAddr: 0x1D160, symSize: 0x24 }
  - { offset: 0x939BE, size: 0x8, addend: 0x0, symName: __ZN4core3ops8function6FnOnce9call_once17h334518b534c79c08E, symObjAddr: 0x398, symBinAddr: 0x1D184, symSize: 0x24 }
  - { offset: 0x93A02, size: 0x8, addend: 0x0, symName: __ZN4core3ops8function6FnOnce9call_once17h348a5e688407c4b5E, symObjAddr: 0x3BC, symBinAddr: 0x1D1A8, symSize: 0x44 }
  - { offset: 0x93A42, size: 0x8, addend: 0x0, symName: __ZN4core3ops8function6FnOnce9call_once17h53c1d0a50f55c11cE, symObjAddr: 0x400, symBinAddr: 0x1D1EC, symSize: 0x4C }
  - { offset: 0x93A86, size: 0x8, addend: 0x0, symName: __ZN4core3ops8function6FnOnce9call_once17h62dc69044ac01e6eE, symObjAddr: 0x44C, symBinAddr: 0x1D238, symSize: 0x34 }
  - { offset: 0x93ACA, size: 0x8, addend: 0x0, symName: __ZN4core3ops8function6FnOnce9call_once17h654afc851adb9b59E, symObjAddr: 0x480, symBinAddr: 0x1D26C, symSize: 0x58 }
  - { offset: 0x93B0E, size: 0x8, addend: 0x0, symName: __ZN4core3ops8function6FnOnce9call_once17h6844968c83218278E, symObjAddr: 0x4D8, symBinAddr: 0x1D2C4, symSize: 0x3C }
  - { offset: 0x93B52, size: 0x8, addend: 0x0, symName: __ZN4core3ops8function6FnOnce9call_once17h80ba5919b8e13129E, symObjAddr: 0x514, symBinAddr: 0x1D300, symSize: 0x58 }
  - { offset: 0x93B96, size: 0x8, addend: 0x0, symName: __ZN4core3ops8function6FnOnce9call_once17h999ecb34322c0e74E, symObjAddr: 0x56C, symBinAddr: 0x1D358, symSize: 0x44 }
  - { offset: 0x93BD6, size: 0x8, addend: 0x0, symName: __ZN4core3ops8function6FnOnce9call_once17h9c901537557f7629E, symObjAddr: 0x5B0, symBinAddr: 0x1D39C, symSize: 0x4C }
  - { offset: 0x93C1A, size: 0x8, addend: 0x0, symName: __ZN4core3ops8function6FnOnce9call_once17hb57d151500683ce6E, symObjAddr: 0x620, symBinAddr: 0x1D3E8, symSize: 0x3C }
  - { offset: 0x93C5E, size: 0x8, addend: 0x0, symName: __ZN4core3ops8function6FnOnce9call_once17hd282c6056af703d4E, symObjAddr: 0x65C, symBinAddr: 0x1D424, symSize: 0x5C }
  - { offset: 0x93CA2, size: 0x8, addend: 0x0, symName: __ZN4core3ops8function6FnOnce9call_once17hddc19a14db566a12E, symObjAddr: 0x6B8, symBinAddr: 0x1D480, symSize: 0x1C }
  - { offset: 0x93CE6, size: 0x8, addend: 0x0, symName: __ZN4core3ops8function6FnOnce9call_once17he1cdccb85bd08a30E, symObjAddr: 0x6D4, symBinAddr: 0x1D49C, symSize: 0x24 }
  - { offset: 0x93D2A, size: 0x8, addend: 0x0, symName: __ZN4core3ops8function6FnOnce9call_once17he1e4ea6851ff3887E, symObjAddr: 0x6F8, symBinAddr: 0x1D4C0, symSize: 0x40 }
  - { offset: 0x93D6E, size: 0x8, addend: 0x0, symName: __ZN4core3ops8function6FnOnce9call_once17he6f0c688a72c5114E, symObjAddr: 0x738, symBinAddr: 0x1D500, symSize: 0x3C }
  - { offset: 0x93DB2, size: 0x8, addend: 0x0, symName: __ZN4core3ops8function6FnOnce9call_once17heefb24f72069491eE, symObjAddr: 0x774, symBinAddr: 0x1D53C, symSize: 0x1C }
  - { offset: 0x954C1, size: 0x8, addend: 0x0, symName: '__ZN85_$LT$crossbeam_channel..channel..Sender$LT$T$GT$$u20$as$u20$core..ops..drop..Drop$GT$4drop17h1660dd7fae15c7f1E', symObjAddr: 0x5F80, symBinAddr: 0x22B14, symSize: 0x90 }
  - { offset: 0x9554E, size: 0x8, addend: 0x0, symName: '__ZN85_$LT$crossbeam_channel..channel..Sender$LT$T$GT$$u20$as$u20$core..ops..drop..Drop$GT$4drop17h95b464309cb5a0ccE', symObjAddr: 0x6010, symBinAddr: 0x22BA4, symSize: 0x90 }
  - { offset: 0x955DB, size: 0x8, addend: 0x0, symName: '__ZN85_$LT$crossbeam_channel..channel..Sender$LT$T$GT$$u20$as$u20$core..ops..drop..Drop$GT$4drop17hb9528843b16f4905E', symObjAddr: 0x60A0, symBinAddr: 0x22C34, symSize: 0x90 }
  - { offset: 0x9566E, size: 0x8, addend: 0x0, symName: '__ZN87_$LT$crossbeam_channel..channel..Receiver$LT$T$GT$$u20$as$u20$core..ops..drop..Drop$GT$4drop17h596a6a9aa802a28dE', symObjAddr: 0x6130, symBinAddr: 0x22CC4, symSize: 0xA0 }
  - { offset: 0x956FB, size: 0x8, addend: 0x0, symName: '__ZN87_$LT$crossbeam_channel..channel..Receiver$LT$T$GT$$u20$as$u20$core..ops..drop..Drop$GT$4drop17ha2fa27fad45e27f5E', symObjAddr: 0x61D0, symBinAddr: 0x22D64, symSize: 0xA0 }
  - { offset: 0x95788, size: 0x8, addend: 0x0, symName: '__ZN87_$LT$crossbeam_channel..channel..Receiver$LT$T$GT$$u20$as$u20$core..ops..drop..Drop$GT$4drop17hb024ed95ed651c54E', symObjAddr: 0x6270, symBinAddr: 0x22E04, symSize: 0xA0 }
  - { offset: 0x960A4, size: 0x8, addend: 0x0, symName: '__ZN93_$LT$crossbeam_channel..flavors..array..Channel$LT$T$GT$$u20$as$u20$core..ops..drop..Drop$GT$4drop17h07024281a4ec073cE', symObjAddr: 0x6B58, symBinAddr: 0x236EC, symSize: 0x39C }
  - { offset: 0x961C2, size: 0x8, addend: 0x0, symName: '__ZN93_$LT$crossbeam_channel..flavors..array..Channel$LT$T$GT$$u20$as$u20$core..ops..drop..Drop$GT$4drop17h6c8f305f406c9483E', symObjAddr: 0x6EF4, symBinAddr: 0x23A88, symSize: 0x39C }
  - { offset: 0x962E0, size: 0x8, addend: 0x0, symName: '__ZN93_$LT$crossbeam_channel..flavors..array..Channel$LT$T$GT$$u20$as$u20$core..ops..drop..Drop$GT$4drop17hfdd5a8e7b85376c5E', symObjAddr: 0x7290, symBinAddr: 0x23E24, symSize: 0x39C }
  - { offset: 0x966A4, size: 0x8, addend: 0x0, symName: '__ZN92_$LT$crossbeam_channel..flavors..list..Channel$LT$T$GT$$u20$as$u20$core..ops..drop..Drop$GT$4drop17h366836ab7dc86115E', symObjAddr: 0x6480, symBinAddr: 0x23014, symSize: 0x248 }
  - { offset: 0x9678B, size: 0x8, addend: 0x0, symName: '__ZN92_$LT$crossbeam_channel..flavors..list..Channel$LT$T$GT$$u20$as$u20$core..ops..drop..Drop$GT$4drop17h7af1062c0bdef628E', symObjAddr: 0x66C8, symBinAddr: 0x2325C, symSize: 0x248 }
  - { offset: 0x96872, size: 0x8, addend: 0x0, symName: '__ZN92_$LT$crossbeam_channel..flavors..list..Channel$LT$T$GT$$u20$as$u20$core..ops..drop..Drop$GT$4drop17hf29f126a3c341f6eE', symObjAddr: 0x6910, symBinAddr: 0x234A4, symSize: 0x248 }
  - { offset: 0x96D38, size: 0x8, addend: 0x0, symName: '__ZN73_$LT$crossbeam_channel..waker..Waker$u20$as$u20$core..ops..drop..Drop$GT$4drop17hd0cab4add0699ca5E', symObjAddr: 0x5A9C, symBinAddr: 0x22630, symSize: 0xE0 }
  - { offset: 0x96DF8, size: 0x8, addend: 0x0, symName: '__ZN77_$LT$crossbeam_channel..waker..SyncWaker$u20$as$u20$core..ops..drop..Drop$GT$4drop17hd899ded614b6b914E', symObjAddr: 0x5C80, symBinAddr: 0x22814, symSize: 0x4C }
  - { offset: 0x97528, size: 0x8, addend: 0x0, symName: '__ZN71_$LT$alloc..sync..Arc$LT$T$C$A$GT$$u20$as$u20$core..ops..drop..Drop$GT$4drop17h3b5876be3eb9ebb8E', symObjAddr: 0x3BC0, symBinAddr: 0x20754, symSize: 0xA8 }
  - { offset: 0x97652, size: 0x8, addend: 0x0, symName: '__ZN71_$LT$alloc..sync..Arc$LT$T$C$A$GT$$u20$as$u20$core..ops..drop..Drop$GT$4drop17h5e5635bfbc67675cE', symObjAddr: 0x3C68, symBinAddr: 0x207FC, symSize: 0xA8 }
  - { offset: 0x9777C, size: 0x8, addend: 0x0, symName: '__ZN71_$LT$alloc..sync..Arc$LT$T$C$A$GT$$u20$as$u20$core..ops..drop..Drop$GT$4drop17h7e4037afd886eb44E', symObjAddr: 0x3D10, symBinAddr: 0x208A4, symSize: 0xA8 }
  - { offset: 0x978A6, size: 0x8, addend: 0x0, symName: '__ZN71_$LT$alloc..sync..Arc$LT$T$C$A$GT$$u20$as$u20$core..ops..drop..Drop$GT$4drop17h99fd53d149a74fdbE', symObjAddr: 0x3DB8, symBinAddr: 0x2094C, symSize: 0xA8 }
  - { offset: 0x979D0, size: 0x8, addend: 0x0, symName: '__ZN71_$LT$alloc..sync..Arc$LT$T$C$A$GT$$u20$as$u20$core..ops..drop..Drop$GT$4drop17h9fa63ca4e4accfa9E', symObjAddr: 0x3E60, symBinAddr: 0x209F4, symSize: 0xA8 }
  - { offset: 0x97AFA, size: 0x8, addend: 0x0, symName: '__ZN71_$LT$alloc..sync..Arc$LT$T$C$A$GT$$u20$as$u20$core..ops..drop..Drop$GT$4drop17hb0e2c50ce5030a73E', symObjAddr: 0x3F08, symBinAddr: 0x20A9C, symSize: 0xA8 }
  - { offset: 0x97C24, size: 0x8, addend: 0x0, symName: '__ZN71_$LT$alloc..sync..Arc$LT$T$C$A$GT$$u20$as$u20$core..ops..drop..Drop$GT$4drop17hb43405a56a2e779dE', symObjAddr: 0x3FB0, symBinAddr: 0x20B44, symSize: 0xA8 }
  - { offset: 0x97D4E, size: 0x8, addend: 0x0, symName: '__ZN71_$LT$alloc..sync..Arc$LT$T$C$A$GT$$u20$as$u20$core..ops..drop..Drop$GT$4drop17hb942b63773a7c8feE', symObjAddr: 0x4058, symBinAddr: 0x20BEC, symSize: 0xA8 }
  - { offset: 0x98034, size: 0x8, addend: 0x0, symName: '__ZN72_$LT$alloc..sync..Weak$LT$T$C$A$GT$$u20$as$u20$core..ops..drop..Drop$GT$4drop17h180e5e99ab24ebc9E', symObjAddr: 0x4EE4, symBinAddr: 0x21A78, symSize: 0x170 }
  - { offset: 0x9825A, size: 0x8, addend: 0x0, symName: '__ZN72_$LT$alloc..sync..Weak$LT$T$C$A$GT$$u20$as$u20$core..ops..drop..Drop$GT$4drop17h1b5b2b9fe98a54b6E', symObjAddr: 0x5054, symBinAddr: 0x21BE8, symSize: 0x170 }
  - { offset: 0x98480, size: 0x8, addend: 0x0, symName: '__ZN72_$LT$alloc..sync..Weak$LT$T$C$A$GT$$u20$as$u20$core..ops..drop..Drop$GT$4drop17h4ed244075a4a6c67E', symObjAddr: 0x51C4, symBinAddr: 0x21D58, symSize: 0x170 }
  - { offset: 0x986A6, size: 0x8, addend: 0x0, symName: '__ZN72_$LT$alloc..sync..Weak$LT$T$C$A$GT$$u20$as$u20$core..ops..drop..Drop$GT$4drop17h6830fbcf9d6a1afdE', symObjAddr: 0x5334, symBinAddr: 0x21EC8, symSize: 0x170 }
  - { offset: 0x988CC, size: 0x8, addend: 0x0, symName: '__ZN72_$LT$alloc..sync..Weak$LT$T$C$A$GT$$u20$as$u20$core..ops..drop..Drop$GT$4drop17h692b635ec0da424aE', symObjAddr: 0x54A4, symBinAddr: 0x22038, symSize: 0x170 }
  - { offset: 0x98AF2, size: 0x8, addend: 0x0, symName: '__ZN72_$LT$alloc..sync..Weak$LT$T$C$A$GT$$u20$as$u20$core..ops..drop..Drop$GT$4drop17habbb039c36c42cf2E', symObjAddr: 0x5614, symBinAddr: 0x221A8, symSize: 0x170 }
  - { offset: 0x98D18, size: 0x8, addend: 0x0, symName: '__ZN72_$LT$alloc..sync..Weak$LT$T$C$A$GT$$u20$as$u20$core..ops..drop..Drop$GT$4drop17hbe6afa5bd2df12e3E', symObjAddr: 0x5784, symBinAddr: 0x22318, symSize: 0x170 }
  - { offset: 0x992C5, size: 0x8, addend: 0x0, symName: '__ZN150_$LT$$LT$alloc..vec..drain..Drain$LT$T$C$A$GT$$u20$as$u20$core..ops..drop..Drop$GT$..drop..DropGuard$LT$T$C$A$GT$$u20$as$u20$core..ops..drop..Drop$GT$4drop17h126cdb4507989675E', symObjAddr: 0x58, symBinAddr: 0x1CE44, symSize: 0x1B0 }
  - { offset: 0x995FC, size: 0x8, addend: 0x0, symName: '__ZN79_$LT$alloc..vec..drain..Drain$LT$T$C$A$GT$$u20$as$u20$core..ops..drop..Drop$GT$4drop17h8997a5db6b1f5a54E', symObjAddr: 0x5CCC, symBinAddr: 0x22860, symSize: 0x258 }
  - { offset: 0x99B67, size: 0x8, addend: 0x0, symName: '__ZN70_$LT$alloc..vec..Vec$LT$T$C$A$GT$$u20$as$u20$core..ops..drop..Drop$GT$4drop17h3ade3595e093e5d9E', symObjAddr: 0x38AC, symBinAddr: 0x20440, symSize: 0x38 }
  - { offset: 0x99C17, size: 0x8, addend: 0x0, symName: '__ZN70_$LT$alloc..vec..Vec$LT$T$C$A$GT$$u20$as$u20$core..ops..drop..Drop$GT$4drop17h5264ff595bbfe82eE', symObjAddr: 0x38E4, symBinAddr: 0x20478, symSize: 0x38 }
  - { offset: 0x99CC7, size: 0x8, addend: 0x0, symName: '__ZN70_$LT$alloc..vec..Vec$LT$T$C$A$GT$$u20$as$u20$core..ops..drop..Drop$GT$4drop17h579a1658b20718c8E', symObjAddr: 0x391C, symBinAddr: 0x204B0, symSize: 0x24 }
  - { offset: 0x99D77, size: 0x8, addend: 0x0, symName: '__ZN70_$LT$alloc..vec..Vec$LT$T$C$A$GT$$u20$as$u20$core..ops..drop..Drop$GT$4drop17h9c9249d67b6832acE', symObjAddr: 0x3940, symBinAddr: 0x204D4, symSize: 0x24 }
  - { offset: 0x99E27, size: 0x8, addend: 0x0, symName: '__ZN70_$LT$alloc..vec..Vec$LT$T$C$A$GT$$u20$as$u20$core..ops..drop..Drop$GT$4drop17hf17e33651018c23cE', symObjAddr: 0x3964, symBinAddr: 0x204F8, symSize: 0x24 }
  - { offset: 0x99FF3, size: 0x8, addend: 0x0, symName: '__ZN83_$LT$alloc..vec..set_len_on_drop..SetLenOnDrop$u20$as$u20$core..ops..drop..Drop$GT$4drop17h1722b6d84d3adfdcE', symObjAddr: 0x5F60, symBinAddr: 0x22AF4, symSize: 0x20 }
  - { offset: 0x9A4C9, size: 0x8, addend: 0x0, symName: '__ZN77_$LT$alloc..raw_vec..RawVec$LT$T$C$A$GT$$u20$as$u20$core..ops..drop..Drop$GT$4drop17h2c682f3634764d2dE', symObjAddr: 0x5B7C, symBinAddr: 0x22710, symSize: 0x34 }
  - { offset: 0x9A505, size: 0x8, addend: 0x0, symName: '__ZN77_$LT$alloc..raw_vec..RawVec$LT$T$C$A$GT$$u20$as$u20$core..ops..drop..Drop$GT$4drop17h8ab7decbefe73757E', symObjAddr: 0x5BB0, symBinAddr: 0x22744, symSize: 0x34 }
  - { offset: 0x9A541, size: 0x8, addend: 0x0, symName: '__ZN77_$LT$alloc..raw_vec..RawVec$LT$T$C$A$GT$$u20$as$u20$core..ops..drop..Drop$GT$4drop17hab5294db3612eb2eE', symObjAddr: 0x5BE4, symBinAddr: 0x22778, symSize: 0x34 }
  - { offset: 0x9A57D, size: 0x8, addend: 0x0, symName: '__ZN77_$LT$alloc..raw_vec..RawVec$LT$T$C$A$GT$$u20$as$u20$core..ops..drop..Drop$GT$4drop17hb5ecb68f6a99f2f6E', symObjAddr: 0x5C18, symBinAddr: 0x227AC, symSize: 0x34 }
  - { offset: 0x9A5B9, size: 0x8, addend: 0x0, symName: '__ZN77_$LT$alloc..raw_vec..RawVec$LT$T$C$A$GT$$u20$as$u20$core..ops..drop..Drop$GT$4drop17hbf3042010bba42f8E', symObjAddr: 0x5C4C, symBinAddr: 0x227E0, symSize: 0x34 }
  - { offset: 0x9A622, size: 0x8, addend: 0x0, symName: '__ZN72_$LT$alloc..boxed..Box$LT$T$C$A$GT$$u20$as$u20$core..ops..drop..Drop$GT$4drop17h0108984c417f37fdE', symObjAddr: 0x4100, symBinAddr: 0x20C94, symSize: 0xB8 }
  - { offset: 0x9A75D, size: 0x8, addend: 0x0, symName: '__ZN72_$LT$alloc..boxed..Box$LT$T$C$A$GT$$u20$as$u20$core..ops..drop..Drop$GT$4drop17h08d0e0d58720a983E', symObjAddr: 0x41B8, symBinAddr: 0x20D4C, symSize: 0xB8 }
  - { offset: 0x9A898, size: 0x8, addend: 0x0, symName: '__ZN72_$LT$alloc..boxed..Box$LT$T$C$A$GT$$u20$as$u20$core..ops..drop..Drop$GT$4drop17h0bc831e48fe2351dE', symObjAddr: 0x4270, symBinAddr: 0x20E04, symSize: 0xB8 }
  - { offset: 0x9A9D3, size: 0x8, addend: 0x0, symName: '__ZN72_$LT$alloc..boxed..Box$LT$T$C$A$GT$$u20$as$u20$core..ops..drop..Drop$GT$4drop17h10a68d1e4b27e06fE', symObjAddr: 0x4328, symBinAddr: 0x20EBC, symSize: 0xB8 }
  - { offset: 0x9AB0E, size: 0x8, addend: 0x0, symName: '__ZN72_$LT$alloc..boxed..Box$LT$T$C$A$GT$$u20$as$u20$core..ops..drop..Drop$GT$4drop17h3bbea50e49467766E', symObjAddr: 0x43E0, symBinAddr: 0x20F74, symSize: 0xC4 }
  - { offset: 0x9AC49, size: 0x8, addend: 0x0, symName: '__ZN72_$LT$alloc..boxed..Box$LT$T$C$A$GT$$u20$as$u20$core..ops..drop..Drop$GT$4drop17h4682f92ea0dbd783E', symObjAddr: 0x44A4, symBinAddr: 0x21038, symSize: 0xB8 }
  - { offset: 0x9AD84, size: 0x8, addend: 0x0, symName: '__ZN72_$LT$alloc..boxed..Box$LT$T$C$A$GT$$u20$as$u20$core..ops..drop..Drop$GT$4drop17h5bbde9dbc6c8d356E', symObjAddr: 0x455C, symBinAddr: 0x210F0, symSize: 0xB8 }
  - { offset: 0x9AEBF, size: 0x8, addend: 0x0, symName: '__ZN72_$LT$alloc..boxed..Box$LT$T$C$A$GT$$u20$as$u20$core..ops..drop..Drop$GT$4drop17h729dbda0c50c59d1E', symObjAddr: 0x4614, symBinAddr: 0x211A8, symSize: 0xB8 }
  - { offset: 0x9AFFA, size: 0x8, addend: 0x0, symName: '__ZN72_$LT$alloc..boxed..Box$LT$T$C$A$GT$$u20$as$u20$core..ops..drop..Drop$GT$4drop17h80de4b0c05056095E', symObjAddr: 0x46CC, symBinAddr: 0x21260, symSize: 0xC8 }
  - { offset: 0x9B135, size: 0x8, addend: 0x0, symName: '__ZN72_$LT$alloc..boxed..Box$LT$T$C$A$GT$$u20$as$u20$core..ops..drop..Drop$GT$4drop17h9c4a3eb0d45eb9e0E', symObjAddr: 0x4794, symBinAddr: 0x21328, symSize: 0xB8 }
  - { offset: 0x9B270, size: 0x8, addend: 0x0, symName: '__ZN72_$LT$alloc..boxed..Box$LT$T$C$A$GT$$u20$as$u20$core..ops..drop..Drop$GT$4drop17h9c80e490586c8b82E', symObjAddr: 0x484C, symBinAddr: 0x213E0, symSize: 0xB8 }
  - { offset: 0x9B3AB, size: 0x8, addend: 0x0, symName: '__ZN72_$LT$alloc..boxed..Box$LT$T$C$A$GT$$u20$as$u20$core..ops..drop..Drop$GT$4drop17ha438e2e59c4343e1E', symObjAddr: 0x4904, symBinAddr: 0x21498, symSize: 0xB8 }
  - { offset: 0x9B4E6, size: 0x8, addend: 0x0, symName: '__ZN72_$LT$alloc..boxed..Box$LT$T$C$A$GT$$u20$as$u20$core..ops..drop..Drop$GT$4drop17hae1e3f3022925820E', symObjAddr: 0x49BC, symBinAddr: 0x21550, symSize: 0xB8 }
  - { offset: 0x9B621, size: 0x8, addend: 0x0, symName: '__ZN72_$LT$alloc..boxed..Box$LT$T$C$A$GT$$u20$as$u20$core..ops..drop..Drop$GT$4drop17hc5be3a7cddf79f02E', symObjAddr: 0x4A74, symBinAddr: 0x21608, symSize: 0xCC }
  - { offset: 0x9B75C, size: 0x8, addend: 0x0, symName: '__ZN72_$LT$alloc..boxed..Box$LT$T$C$A$GT$$u20$as$u20$core..ops..drop..Drop$GT$4drop17hd8d50705ab2d3ac7E', symObjAddr: 0x4B40, symBinAddr: 0x216D4, symSize: 0xC4 }
  - { offset: 0x9B897, size: 0x8, addend: 0x0, symName: '__ZN72_$LT$alloc..boxed..Box$LT$T$C$A$GT$$u20$as$u20$core..ops..drop..Drop$GT$4drop17hdcfcd6026dbc2cb2E', symObjAddr: 0x4C04, symBinAddr: 0x21798, symSize: 0xB8 }
  - { offset: 0x9B9D2, size: 0x8, addend: 0x0, symName: '__ZN72_$LT$alloc..boxed..Box$LT$T$C$A$GT$$u20$as$u20$core..ops..drop..Drop$GT$4drop17he5c2d5ea30e7cc65E', symObjAddr: 0x4CBC, symBinAddr: 0x21850, symSize: 0xB8 }
  - { offset: 0x9BB0D, size: 0x8, addend: 0x0, symName: '__ZN72_$LT$alloc..boxed..Box$LT$T$C$A$GT$$u20$as$u20$core..ops..drop..Drop$GT$4drop17hf8ec0cca5c79c288E', symObjAddr: 0x4D74, symBinAddr: 0x21908, symSize: 0xB8 }
  - { offset: 0x9BC48, size: 0x8, addend: 0x0, symName: '__ZN72_$LT$alloc..boxed..Box$LT$T$C$A$GT$$u20$as$u20$core..ops..drop..Drop$GT$4drop17hfded8383453715a7E', symObjAddr: 0x4E2C, symBinAddr: 0x219C0, symSize: 0xB8 }
  - { offset: 0x9BEBB, size: 0x8, addend: 0x0, symName: '__ZN69_$LT$pyo3..instance..Py$LT$T$GT$$u20$as$u20$core..ops..drop..Drop$GT$4drop17h3f025c90c7e84b8bE', symObjAddr: 0x3884, symBinAddr: 0x20418, symSize: 0x28 }
  - { offset: 0x9BEF4, size: 0x8, addend: 0x0, symName: '__ZN72_$LT$pyo3..instance..Bound$LT$T$GT$$u20$as$u20$core..ops..drop..Drop$GT$4drop17h12ef553b355b13adE', symObjAddr: 0x58F4, symBinAddr: 0x22488, symSize: 0x1A8 }
  - { offset: 0x9C089, size: 0x8, addend: 0x0, symName: '__ZN70_$LT$pyo3..pycell..PyRef$LT$T$GT$$u20$as$u20$core..ops..drop..Drop$GT$4drop17habbee073782ab4d0E', symObjAddr: 0x3988, symBinAddr: 0x2051C, symSize: 0x2C }
  - { offset: 0x9C855, size: 0x8, addend: 0x0, symName: '__ZN94_$LT$crossbeam_utils..atomic..seq_lock..SeqLockWriteGuard$u20$as$u20$core..ops..drop..Drop$GT$4drop17he44f6a220985c474E', symObjAddr: 0x762C, symBinAddr: 0x241C0, symSize: 0x44 }
  - { offset: 0x9C98F, size: 0x8, addend: 0x0, symName: '__ZN87_$LT$std..sync..poison..mutex..MutexGuard$LT$T$GT$$u20$as$u20$core..ops..drop..Drop$GT$4drop17h52861a60961f1379E', symObjAddr: 0x6310, symBinAddr: 0x22EA4, symSize: 0x68 }
  - { offset: 0x9CA0A, size: 0x8, addend: 0x0, symName: '__ZN87_$LT$std..sync..poison..mutex..MutexGuard$LT$T$GT$$u20$as$u20$core..ops..drop..Drop$GT$4drop17hfd289daadc6032c0E', symObjAddr: 0x6378, symBinAddr: 0x22F0C, symSize: 0x68 }
  - { offset: 0x9CBC9, size: 0x8, addend: 0x0, symName: '__ZN104_$LT$std..thread..Builder..spawn_unchecked_..MaybeDangling$LT$T$GT$$u20$as$u20$core..ops..drop..Drop$GT$4drop17h1a3908b19c8a0056E', symObjAddr: 0x0, symBinAddr: 0x1CDEC, symSize: 0x2C }
  - { offset: 0x9CC1A, size: 0x8, addend: 0x0, symName: '__ZN104_$LT$std..thread..Builder..spawn_unchecked_..MaybeDangling$LT$T$GT$$u20$as$u20$core..ops..drop..Drop$GT$4drop17h7708e900e35d9515E', symObjAddr: 0x2C, symBinAddr: 0x1CE18, symSize: 0x2C }
  - { offset: 0x9CD30, size: 0x8, addend: 0x0, symName: '__ZN70_$LT$std..thread..Packet$LT$T$GT$$u20$as$u20$core..ops..drop..Drop$GT$4drop17haeb4edd9e8877d08E', symObjAddr: 0x39B4, symBinAddr: 0x20548, symSize: 0x20C }
  - { offset: 0x9D433, size: 0x8, addend: 0x0, symName: '__ZN88_$LT$lock_api..rwlock..RwLockReadGuard$LT$R$C$T$GT$$u20$as$u20$core..ops..drop..Drop$GT$4drop17h08b583bcc2aa2143E', symObjAddr: 0x63E0, symBinAddr: 0x22F74, symSize: 0x28 }
  - { offset: 0x9D46F, size: 0x8, addend: 0x0, symName: '__ZN88_$LT$lock_api..rwlock..RwLockReadGuard$LT$R$C$T$GT$$u20$as$u20$core..ops..drop..Drop$GT$4drop17hd2bd51130bcebfc0E', symObjAddr: 0x6408, symBinAddr: 0x22F9C, symSize: 0x28 }
  - { offset: 0x9D4B1, size: 0x8, addend: 0x0, symName: '__ZN89_$LT$lock_api..rwlock..RwLockWriteGuard$LT$R$C$T$GT$$u20$as$u20$core..ops..drop..Drop$GT$4drop17hce462427b766a3e1E', symObjAddr: 0x6430, symBinAddr: 0x22FC4, symSize: 0x28 }
  - { offset: 0x9D4ED, size: 0x8, addend: 0x0, symName: '__ZN89_$LT$lock_api..rwlock..RwLockWriteGuard$LT$R$C$T$GT$$u20$as$u20$core..ops..drop..Drop$GT$4drop17hece8100164546f78E', symObjAddr: 0x6458, symBinAddr: 0x22FEC, symSize: 0x28 }
  - { offset: 0x9D766, size: 0x8, addend: 0x0, symName: '__ZN79_$LT$hashbrown..raw..RawTable$LT$T$C$A$GT$$u20$as$u20$core..ops..drop..Drop$GT$4drop17h036301cedc55df5aE', symObjAddr: 0x5F24, symBinAddr: 0x22AB8, symSize: 0x3C }
  - { offset: 0xA10D3, size: 0x8, addend: 0x0, symName: __ZN17crossbeam_channel7context7Context10try_select17h55c9edf0213b0f0aE, symObjAddr: 0x0, symBinAddr: 0x24258, symSize: 0x7C }
  - { offset: 0xA14DD, size: 0x8, addend: 0x0, symName: '__ZN74_$LT$crossbeam_channel..context..Context$u20$as$u20$core..clone..Clone$GT$5clone17h89b9d73b578a4084E', symObjAddr: 0x2F0, symBinAddr: 0x24548, symSize: 0x24 }
  - { offset: 0xA1865, size: 0x8, addend: 0x0, symName: __ZN17crossbeam_channel7context7Context10try_select17h55c9edf0213b0f0aE, symObjAddr: 0x0, symBinAddr: 0x24258, symSize: 0x7C }
  - { offset: 0xA18A3, size: 0x8, addend: 0x0, symName: __ZN17crossbeam_channel7context7Context10wait_until17hdd2fe231906086ccE, symObjAddr: 0x7C, symBinAddr: 0x242D4, symSize: 0x160 }
  - { offset: 0xA1930, size: 0x8, addend: 0x0, symName: __ZN17crossbeam_channel7context7Context12store_packet17h96be8b8128d9c0e7E, symObjAddr: 0x1DC, symBinAddr: 0x24434, symSize: 0x5C }
  - { offset: 0xA1960, size: 0x8, addend: 0x0, symName: __ZN17crossbeam_channel7context7Context5reset17h6d794d1aca64f3c1E, symObjAddr: 0x238, symBinAddr: 0x24490, symSize: 0x68 }
  - { offset: 0xA1982, size: 0x8, addend: 0x0, symName: __ZN17crossbeam_channel7context7Context6unpark17h3a603419e989fbbcE, symObjAddr: 0x2A0, symBinAddr: 0x244F8, symSize: 0x28 }
  - { offset: 0xA19A4, size: 0x8, addend: 0x0, symName: __ZN17crossbeam_channel7context7Context9thread_id17hcbe06a7ae84e7b90E, symObjAddr: 0x2C8, symBinAddr: 0x24520, symSize: 0x28 }
  - { offset: 0xA19E4, size: 0x8, addend: 0x0, symName: '__ZN115_$LT$core..panic..unwind_safe..AssertUnwindSafe$LT$F$GT$$u20$as$u20$core..ops..function..FnOnce$LT$$LP$$RP$$GT$$GT$9call_once17h2299f13064caf786E', symObjAddr: 0x0, symBinAddr: 0x2456C, symSize: 0x38 }
  - { offset: 0xA1A23, size: 0x8, addend: 0x0, symName: '__ZN115_$LT$core..panic..unwind_safe..AssertUnwindSafe$LT$F$GT$$u20$as$u20$core..ops..function..FnOnce$LT$$LP$$RP$$GT$$GT$9call_once17h2299f13064caf786E', symObjAddr: 0x0, symBinAddr: 0x2456C, symSize: 0x38 }
  - { offset: 0xA1A7B, size: 0x8, addend: 0x0, symName: '__ZN115_$LT$core..panic..unwind_safe..AssertUnwindSafe$LT$F$GT$$u20$as$u20$core..ops..function..FnOnce$LT$$LP$$RP$$GT$$GT$9call_once17h42073fbdf55debcbE', symObjAddr: 0x38, symBinAddr: 0x245A4, symSize: 0x38 }
  - { offset: 0xA1AD3, size: 0x8, addend: 0x0, symName: '__ZN115_$LT$core..panic..unwind_safe..AssertUnwindSafe$LT$F$GT$$u20$as$u20$core..ops..function..FnOnce$LT$$LP$$RP$$GT$$GT$9call_once17h956163e1be94c7d5E', symObjAddr: 0x70, symBinAddr: 0x245DC, symSize: 0x24 }
  - { offset: 0xA57D9, size: 0x8, addend: 0x0, symName: '__ZN4pyo36pycell14PyRef$LT$T$GT$10try_borrow17hd1d71e1a53de1e7eE', symObjAddr: 0x0, symBinAddr: 0x24600, symSize: 0x4C }
  - { offset: 0xA720B, size: 0x8, addend: 0x0, symName: '__ZN50_$LT$T$u20$as$u20$core..convert..Into$LT$U$GT$$GT$4into17h0fa85d2cc0db8291E', symObjAddr: 0x70, symBinAddr: 0x24670, symSize: 0x1C }
  - { offset: 0xA72C5, size: 0x8, addend: 0x0, symName: '__ZN4pyo36pycell14PyRef$LT$T$GT$10try_borrow28_$u7b$$u7b$closure$u7d$$u7d$17h1969a7c037c48033E', symObjAddr: 0x4C, symBinAddr: 0x2464C, symSize: 0x24 }
  - { offset: 0xA7310, size: 0x8, addend: 0x0, symName: '__ZN72_$LT$pyo3..pycell..PyRef$LT$T$GT$$u20$as$u20$core..ops..deref..Deref$GT$5deref17h05aaf7de071f17b3E', symObjAddr: 0xC0, symBinAddr: 0x246C0, symSize: 0x74 }
  - { offset: 0xA7604, size: 0x8, addend: 0x0, symName: '__ZN57_$LT$T$u20$as$u20$pyo3..conversion..FromPyObjectBound$GT$20from_py_object_bound17hc4d084a5c4043f3bE', symObjAddr: 0x8C, symBinAddr: 0x2468C, symSize: 0x34 }
  - { offset: 0xA7641, size: 0x8, addend: 0x0, symName: '__ZN79_$LT$pyo3..pycell..PyRef$LT$T$GT$$u20$as$u20$pyo3..conversion..FromPyObject$GT$13extract_bound17h8a3f2cf68c8b63a6E', symObjAddr: 0x134, symBinAddr: 0x24734, symSize: 0x94 }
  - { offset: 0xA8EB2, size: 0x8, addend: 0x0, symName: '__ZN4pyo36pycell14PyRef$LT$T$GT$10try_borrow17hd1d71e1a53de1e7eE', symObjAddr: 0x0, symBinAddr: 0x24600, symSize: 0x4C }
  - { offset: 0xA8FC1, size: 0x8, addend: 0x0, symName: '__ZN3std4sync6poison5mutex14Mutex$LT$T$GT$3new17h56a89d45b4403f41E', symObjAddr: 0x0, symBinAddr: 0x247C8, symSize: 0x7C }
  - { offset: 0xA97C9, size: 0x8, addend: 0x0, symName: '__ZN3std4sync6poison5mutex19MutexGuard$LT$T$GT$3new28_$u7b$$u7b$closure$u7d$$u7d$17h34854a89ff7c1bb6E', symObjAddr: 0x190, symBinAddr: 0x24958, symSize: 0x18 }
  - { offset: 0xA9811, size: 0x8, addend: 0x0, symName: '__ZN3std4sync6poison5mutex19MutexGuard$LT$T$GT$3new28_$u7b$$u7b$closure$u7d$$u7d$17hc7f92a4acf6e44cbE', symObjAddr: 0x1A8, symBinAddr: 0x24970, symSize: 0x18 }
  - { offset: 0xA9860, size: 0x8, addend: 0x0, symName: '__ZN89_$LT$std..sync..poison..mutex..MutexGuard$LT$T$GT$$u20$as$u20$core..ops..deref..Deref$GT$5deref17h6915fee1ee255a61E', symObjAddr: 0x1C0, symBinAddr: 0x24988, symSize: 0x1C }
  - { offset: 0xA98AC, size: 0x8, addend: 0x0, symName: '__ZN89_$LT$std..sync..poison..mutex..MutexGuard$LT$T$GT$$u20$as$u20$core..ops..deref..Deref$GT$5deref17hc46cf0e03fa56c15E', symObjAddr: 0x1DC, symBinAddr: 0x249A4, symSize: 0x1C }
  - { offset: 0xA98FE, size: 0x8, addend: 0x0, symName: '__ZN92_$LT$std..sync..poison..mutex..MutexGuard$LT$T$GT$$u20$as$u20$core..ops..deref..DerefMut$GT$9deref_mut17h164376ae1ad8735dE', symObjAddr: 0x1F8, symBinAddr: 0x249C0, symSize: 0x1C }
  - { offset: 0xA994A, size: 0x8, addend: 0x0, symName: '__ZN92_$LT$std..sync..poison..mutex..MutexGuard$LT$T$GT$$u20$as$u20$core..ops..deref..DerefMut$GT$9deref_mut17h8f6bfce380a62f71E', symObjAddr: 0x214, symBinAddr: 0x249DC, symSize: 0x1C }
  - { offset: 0xA9E61, size: 0x8, addend: 0x0, symName: '__ZN3std4sync6poison5mutex14Mutex$LT$T$GT$3new17h56a89d45b4403f41E', symObjAddr: 0x0, symBinAddr: 0x247C8, symSize: 0x7C }
  - { offset: 0xA9F4E, size: 0x8, addend: 0x0, symName: '__ZN3std4sync6poison5mutex14Mutex$LT$T$GT$3new17h83731ada02a87a8dE', symObjAddr: 0x7C, symBinAddr: 0x24844, symSize: 0x7C }
  - { offset: 0xAA060, size: 0x8, addend: 0x0, symName: '__ZN3std4sync6poison5mutex14Mutex$LT$T$GT$4lock17h3e16e40397f75f95E', symObjAddr: 0xF8, symBinAddr: 0x248C0, symSize: 0x4C }
  - { offset: 0xAA132, size: 0x8, addend: 0x0, symName: '__ZN3std4sync6poison5mutex14Mutex$LT$T$GT$4lock17h8330517721c534f6E', symObjAddr: 0x144, symBinAddr: 0x2490C, symSize: 0x4C }
  - { offset: 0xAA2B1, size: 0x8, addend: 0x0, symName: __ZN4pyo33err5PyErr3new17h966af823b9d4cf0cE, symObjAddr: 0x0, symBinAddr: 0x249F8, symSize: 0x98 }
  - { offset: 0xAA2F3, size: 0x8, addend: 0x0, symName: '__ZN4pyo33err5PyErr3new28_$u7b$$u7b$closure$u7d$$u7d$17h4a04d7f7ac9087baE', symObjAddr: 0x98, symBinAddr: 0x24A90, symSize: 0xC0 }
  - { offset: 0xAB761, size: 0x8, addend: 0x0, symName: '__ZN50_$LT$T$u20$as$u20$core..convert..Into$LT$U$GT$$GT$4into17h7e6d829007aff51cE', symObjAddr: 0x158, symBinAddr: 0x24B50, symSize: 0x18 }
  - { offset: 0xABCAE, size: 0x8, addend: 0x0, symName: __ZN4pyo33err5PyErr3new17h966af823b9d4cf0cE, symObjAddr: 0x0, symBinAddr: 0x249F8, symSize: 0x98 }
  - { offset: 0xABD55, size: 0x8, addend: 0x0, symName: '__ZN17crossbeam_channel7flavors5array16Channel$LT$T$GT$10disconnect17h9c198d98afb4dcbfE', symObjAddr: 0x0, symBinAddr: 0x24B68, symSize: 0x88 }
  - { offset: 0xADF56, size: 0x8, addend: 0x0, symName: '__ZN4core5slice29_$LT$impl$u20$$u5b$T$u5d$$GT$13get_unchecked17h03d5f0438496e965E', symObjAddr: 0x3554, symBinAddr: 0x280BC, symSize: 0x44 }
  - { offset: 0xADFA5, size: 0x8, addend: 0x0, symName: '__ZN4core5slice29_$LT$impl$u20$$u5b$T$u5d$$GT$13get_unchecked17h5594bbe45bf1e742E', symObjAddr: 0x3598, symBinAddr: 0x28100, symSize: 0x44 }
  - { offset: 0xADFF4, size: 0x8, addend: 0x0, symName: '__ZN4core5slice29_$LT$impl$u20$$u5b$T$u5d$$GT$13get_unchecked17hc6eb12819c727aacE', symObjAddr: 0x35DC, symBinAddr: 0x28144, symSize: 0x44 }
  - { offset: 0xAE043, size: 0x8, addend: 0x0, symName: '__ZN4core5slice29_$LT$impl$u20$$u5b$T$u5d$$GT$17get_unchecked_mut17h619102a6eb6b8514E', symObjAddr: 0x3620, symBinAddr: 0x28188, symSize: 0x44 }
  - { offset: 0xAE092, size: 0x8, addend: 0x0, symName: '__ZN4core5slice29_$LT$impl$u20$$u5b$T$u5d$$GT$17get_unchecked_mut17h62b3cb1d33d9d1c9E', symObjAddr: 0x3664, symBinAddr: 0x281CC, symSize: 0x44 }
  - { offset: 0xAE0E1, size: 0x8, addend: 0x0, symName: '__ZN4core5slice29_$LT$impl$u20$$u5b$T$u5d$$GT$17get_unchecked_mut17hc7da3c45df950a77E', symObjAddr: 0x36A8, symBinAddr: 0x28210, symSize: 0x44 }
  - { offset: 0xAE838, size: 0x8, addend: 0x0, symName: '__ZN17crossbeam_channel7flavors5array16Channel$LT$T$GT$13with_capacity28_$u7b$$u7b$closure$u7d$$u7d$17h0e5d868627a2c3c6E', symObjAddr: 0x1A14, symBinAddr: 0x2657C, symSize: 0x54 }
  - { offset: 0xAE877, size: 0x8, addend: 0x0, symName: '__ZN17crossbeam_channel7flavors5array16Channel$LT$T$GT$13with_capacity28_$u7b$$u7b$closure$u7d$$u7d$17h56cca246de5be658E', symObjAddr: 0x1A68, symBinAddr: 0x265D0, symSize: 0x68 }
  - { offset: 0xAE8D3, size: 0x8, addend: 0x0, symName: '__ZN17crossbeam_channel7flavors5array16Channel$LT$T$GT$13with_capacity28_$u7b$$u7b$closure$u7d$$u7d$17h98484860408418a7E', symObjAddr: 0x1AD0, symBinAddr: 0x26638, symSize: 0x74 }
  - { offset: 0xAE94B, size: 0x8, addend: 0x0, symName: '__ZN17crossbeam_channel7flavors5array16Channel$LT$T$GT$4recv28_$u7b$$u7b$closure$u7d$$u7d$17h02fe730a6d287297E', symObjAddr: 0x23E8, symBinAddr: 0x26F50, symSize: 0x14 }
  - { offset: 0xAE989, size: 0x8, addend: 0x0, symName: '__ZN17crossbeam_channel7flavors5array16Channel$LT$T$GT$4recv28_$u7b$$u7b$closure$u7d$$u7d$17h0c25acbc981e12a8E', symObjAddr: 0x23FC, symBinAddr: 0x26F64, symSize: 0x140 }
  - { offset: 0xAEA4A, size: 0x8, addend: 0x0, symName: '__ZN17crossbeam_channel7flavors5array16Channel$LT$T$GT$4recv28_$u7b$$u7b$closure$u7d$$u7d$17h366e8f721acee612E', symObjAddr: 0x253C, symBinAddr: 0x270A4, symSize: 0x140 }
  - { offset: 0xAEB0B, size: 0x8, addend: 0x0, symName: '__ZN17crossbeam_channel7flavors5array16Channel$LT$T$GT$4recv28_$u7b$$u7b$closure$u7d$$u7d$17h45274e32dde85ff3E', symObjAddr: 0x267C, symBinAddr: 0x271E4, symSize: 0x14 }
  - { offset: 0xAEB49, size: 0x8, addend: 0x0, symName: '__ZN17crossbeam_channel7flavors5array16Channel$LT$T$GT$4recv28_$u7b$$u7b$closure$u7d$$u7d$17h700f957c3116a2f6E', symObjAddr: 0x2690, symBinAddr: 0x271F8, symSize: 0x140 }
  - { offset: 0xAEC0A, size: 0x8, addend: 0x0, symName: '__ZN17crossbeam_channel7flavors5array16Channel$LT$T$GT$4recv28_$u7b$$u7b$closure$u7d$$u7d$17h9920b5df4fe151e6E', symObjAddr: 0x27D0, symBinAddr: 0x27338, symSize: 0x14 }
  - { offset: 0xAEC63, size: 0x8, addend: 0x0, symName: '__ZN17crossbeam_channel7flavors5array16Channel$LT$T$GT$4send28_$u7b$$u7b$closure$u7d$$u7d$17h72307c5e53965270E', symObjAddr: 0x2CB8, symBinAddr: 0x27820, symSize: 0x140 }
  - { offset: 0xAED24, size: 0x8, addend: 0x0, symName: '__ZN17crossbeam_channel7flavors5array16Channel$LT$T$GT$4send28_$u7b$$u7b$closure$u7d$$u7d$17hf401c9ac5df655f7E', symObjAddr: 0x2DF8, symBinAddr: 0x27960, symSize: 0x140 }
  - { offset: 0xAFD64, size: 0x8, addend: 0x0, symName: '__ZN17crossbeam_channel7flavors5array16Channel$LT$T$GT$10disconnect17h9c198d98afb4dcbfE', symObjAddr: 0x0, symBinAddr: 0x24B68, symSize: 0x88 }
  - { offset: 0xAFE62, size: 0x8, addend: 0x0, symName: '__ZN17crossbeam_channel7flavors5array16Channel$LT$T$GT$10disconnect17hbf6deefae78ba98cE', symObjAddr: 0x88, symBinAddr: 0x24BF0, symSize: 0x88 }
  - { offset: 0xAFEE0, size: 0x8, addend: 0x0, symName: '__ZN17crossbeam_channel7flavors5array16Channel$LT$T$GT$10disconnect17hc82db9e052887aa3E', symObjAddr: 0x110, symBinAddr: 0x24C78, symSize: 0x88 }
  - { offset: 0xAFF37, size: 0x8, addend: 0x0, symName: '__ZN17crossbeam_channel7flavors5array16Channel$LT$T$GT$10start_recv17h3f1f87c6b280c7ffE', symObjAddr: 0x198, symBinAddr: 0x24D00, symSize: 0x368 }
  - { offset: 0xB008B, size: 0x8, addend: 0x0, symName: '__ZN17crossbeam_channel7flavors5array16Channel$LT$T$GT$10start_recv17h5913439b05049558E', symObjAddr: 0x500, symBinAddr: 0x25068, symSize: 0x368 }
  - { offset: 0xB01DF, size: 0x8, addend: 0x0, symName: '__ZN17crossbeam_channel7flavors5array16Channel$LT$T$GT$10start_recv17h85eeae65f3ba413bE', symObjAddr: 0x868, symBinAddr: 0x253D0, symSize: 0x368 }
  - { offset: 0xB0333, size: 0x8, addend: 0x0, symName: '__ZN17crossbeam_channel7flavors5array16Channel$LT$T$GT$10start_send17h733b862577747bceE', symObjAddr: 0xBD0, symBinAddr: 0x25738, symSize: 0x3B0 }
  - { offset: 0xB04AB, size: 0x8, addend: 0x0, symName: '__ZN17crossbeam_channel7flavors5array16Channel$LT$T$GT$10start_send17he7b5fa3d03c3b532E', symObjAddr: 0xF80, symBinAddr: 0x25AE8, symSize: 0x3B0 }
  - { offset: 0xB0623, size: 0x8, addend: 0x0, symName: '__ZN17crossbeam_channel7flavors5array16Channel$LT$T$GT$13with_capacity17h0ce03b74f5a9b146E', symObjAddr: 0x1330, symBinAddr: 0x25E98, symSize: 0x24C }
  - { offset: 0xB06BD, size: 0x8, addend: 0x0, symName: '__ZN17crossbeam_channel7flavors5array16Channel$LT$T$GT$13with_capacity17h283c4815a79cf377E', symObjAddr: 0x157C, symBinAddr: 0x260E4, symSize: 0x24C }
  - { offset: 0xB0757, size: 0x8, addend: 0x0, symName: '__ZN17crossbeam_channel7flavors5array16Channel$LT$T$GT$13with_capacity17h65b1c48e8f230c1cE', symObjAddr: 0x17C8, symBinAddr: 0x26330, symSize: 0x24C }
  - { offset: 0xB0829, size: 0x8, addend: 0x0, symName: '__ZN17crossbeam_channel7flavors5array16Channel$LT$T$GT$15is_disconnected17h029a9386aa8020b6E', symObjAddr: 0x1B44, symBinAddr: 0x266AC, symSize: 0x44 }
  - { offset: 0xB0855, size: 0x8, addend: 0x0, symName: '__ZN17crossbeam_channel7flavors5array16Channel$LT$T$GT$15is_disconnected17h091cfe8dc18c7da3E', symObjAddr: 0x1B88, symBinAddr: 0x266F0, symSize: 0x44 }
  - { offset: 0xB0881, size: 0x8, addend: 0x0, symName: '__ZN17crossbeam_channel7flavors5array16Channel$LT$T$GT$15is_disconnected17h293c303e1c74b65eE', symObjAddr: 0x1BCC, symBinAddr: 0x26734, symSize: 0x44 }
  - { offset: 0xB0939, size: 0x8, addend: 0x0, symName: '__ZN17crossbeam_channel7flavors5array16Channel$LT$T$GT$4read17h6a12bfd8684984aaE', symObjAddr: 0x1C10, symBinAddr: 0x26778, symSize: 0x138 }
  - { offset: 0xB0A90, size: 0x8, addend: 0x0, symName: '__ZN17crossbeam_channel7flavors5array16Channel$LT$T$GT$4read17h994a0a4b4d45bfd7E', symObjAddr: 0x1D48, symBinAddr: 0x268B0, symSize: 0x16C }
  - { offset: 0xB0BE9, size: 0x8, addend: 0x0, symName: '__ZN17crossbeam_channel7flavors5array16Channel$LT$T$GT$4read17hb30dc56954f35cf9E', symObjAddr: 0x1EB4, symBinAddr: 0x26A1C, symSize: 0x180 }
  - { offset: 0xB0D01, size: 0x8, addend: 0x0, symName: '__ZN17crossbeam_channel7flavors5array16Channel$LT$T$GT$4recv17h7ede45006404fe35E', symObjAddr: 0x2034, symBinAddr: 0x26B9C, symSize: 0x134 }
  - { offset: 0xB0DAE, size: 0x8, addend: 0x0, symName: '__ZN17crossbeam_channel7flavors5array16Channel$LT$T$GT$4recv17hee3da4babad56198E', symObjAddr: 0x2168, symBinAddr: 0x26CD0, symSize: 0x140 }
  - { offset: 0xB0E5C, size: 0x8, addend: 0x0, symName: '__ZN17crossbeam_channel7flavors5array16Channel$LT$T$GT$4recv17hfe25210469f0400fE', symObjAddr: 0x22A8, symBinAddr: 0x26E10, symSize: 0x140 }
  - { offset: 0xB0F35, size: 0x8, addend: 0x0, symName: '__ZN17crossbeam_channel7flavors5array16Channel$LT$T$GT$4send17h4df7f9a9b713b5c3E', symObjAddr: 0x27E4, symBinAddr: 0x2734C, symSize: 0x268 }
  - { offset: 0xB0FE4, size: 0x8, addend: 0x0, symName: '__ZN17crossbeam_channel7flavors5array16Channel$LT$T$GT$4send17h94a0ee3ca275b767E', symObjAddr: 0x2A4C, symBinAddr: 0x275B4, symSize: 0x26C }
  - { offset: 0xB10F5, size: 0x8, addend: 0x0, symName: '__ZN17crossbeam_channel7flavors5array16Channel$LT$T$GT$5write17h491f601164a54ebdE', symObjAddr: 0x2F38, symBinAddr: 0x27AA0, symSize: 0x1E0 }
  - { offset: 0xB1268, size: 0x8, addend: 0x0, symName: '__ZN17crossbeam_channel7flavors5array16Channel$LT$T$GT$5write17hb89440a1349aea5aE', symObjAddr: 0x3118, symBinAddr: 0x27C80, symSize: 0x1D8 }
  - { offset: 0xB1379, size: 0x8, addend: 0x0, symName: '__ZN17crossbeam_channel7flavors5array16Channel$LT$T$GT$7is_full17h8655c51a6cefb713E', symObjAddr: 0x32F0, symBinAddr: 0x27E58, symSize: 0x84 }
  - { offset: 0xB1407, size: 0x8, addend: 0x0, symName: '__ZN17crossbeam_channel7flavors5array16Channel$LT$T$GT$7is_full17hddbd10f184c254cfE', symObjAddr: 0x3374, symBinAddr: 0x27EDC, symSize: 0x84 }
  - { offset: 0xB1495, size: 0x8, addend: 0x0, symName: '__ZN17crossbeam_channel7flavors5array16Channel$LT$T$GT$8is_empty17h6db2b3fb4019a919E', symObjAddr: 0x33F8, symBinAddr: 0x27F60, symSize: 0x74 }
  - { offset: 0xB14FD, size: 0x8, addend: 0x0, symName: '__ZN17crossbeam_channel7flavors5array16Channel$LT$T$GT$8is_empty17hb8cd1a9c0a2e6b38E', symObjAddr: 0x346C, symBinAddr: 0x27FD4, symSize: 0x74 }
  - { offset: 0xB1565, size: 0x8, addend: 0x0, symName: '__ZN17crossbeam_channel7flavors5array16Channel$LT$T$GT$8is_empty17hc8a6e912b23a3195E', symObjAddr: 0x34E0, symBinAddr: 0x28048, symSize: 0x74 }
  - { offset: 0xB1721, size: 0x8, addend: 0x0, symName: __ZN4pyo311type_object10PyTypeInfo16is_type_of_bound17h737ed808272a3810E, symObjAddr: 0x0, symBinAddr: 0x28254, symSize: 0x50 }
  - { offset: 0xB18C6, size: 0x8, addend: 0x0, symName: __ZN4pyo311type_object10PyTypeInfo16is_type_of_bound17h737ed808272a3810E, symObjAddr: 0x0, symBinAddr: 0x28254, symSize: 0x50 }
  - { offset: 0xB1901, size: 0x8, addend: 0x0, symName: '__ZN52_$LT$T$u20$as$u20$pyo3..type_object..PyTypeCheck$GT$10type_check17hc92aee9eb0904279E', symObjAddr: 0xC4, symBinAddr: 0x28318, symSize: 0x24 }
  - { offset: 0xB1942, size: 0x8, addend: 0x0, symName: '__ZN4pyo312pyclass_init123_$LT$impl$u20$pyo3..callback..IntoPyCallbackOutput$LT$pyo3..pyclass_init..PyClassInitializer$LT$T$GT$$GT$$u20$for$u20$U$GT$7convert17h1e0db5eae5a6e32eE', symObjAddr: 0x50, symBinAddr: 0x282A4, symSize: 0x40 }
  - { offset: 0xB1A64, size: 0x8, addend: 0x0, symName: __ZN4pyo35impl_7pyclass11PyClassImpl11dict_offset17h8aa30cd26dc99685E, symObjAddr: 0x90, symBinAddr: 0x282E4, symSize: 0x8 }
  - { offset: 0xB1A8B, size: 0x8, addend: 0x0, symName: __ZN4pyo35impl_7pyclass11PyClassImpl15weaklist_offset17h2ff1d79cbc6d5448E, symObjAddr: 0x98, symBinAddr: 0x282EC, symSize: 0x8 }
  - { offset: 0xB2B55, size: 0x8, addend: 0x0, symName: '__ZN50_$LT$T$u20$as$u20$core..convert..Into$LT$U$GT$$GT$4into17h9c9c32cfda360441E', symObjAddr: 0xA0, symBinAddr: 0x282F4, symSize: 0x24 }
  - { offset: 0xB3D5D, size: 0x8, addend: 0x0, symName: '__ZN75_$LT$rust_core..RustSystem$u20$as$u20$pyo3..impl_..pyclass..PyClassImpl$GT$3doc28_$u7b$$u7b$closure$u7d$$u7d$17h64ea09752907bfcbE', symObjAddr: 0xE8, symBinAddr: 0x2833C, symSize: 0x54 }
  - { offset: 0xB3DB5, size: 0x8, addend: 0x0, symName: '__ZN9rust_core10RustSystem10stop_actor28_$u7b$$u7b$closure$u7d$$u7d$17h007d881d85074df7E', symObjAddr: 0x13C, symBinAddr: 0x28390, symSize: 0x30 }
  - { offset: 0xB3DF8, size: 0x8, addend: 0x0, symName: '__ZN9rust_core10RustSystem5spawn28_$u7b$$u7b$closure$u7d$$u7d$17hd68a78d58f5026c8E', symObjAddr: 0x16C, symBinAddr: 0x283C0, symSize: 0x1F4 }
  - { offset: 0xB3E85, size: 0x8, addend: 0x0, symName: '__ZN9rust_core10RustSystem5spawn28_$u7b$$u7b$closure$u7d$$u7d$28_$u7b$$u7b$closure$u7d$$u7d$17h2eeeb60a922e4ef1E', symObjAddr: 0x360, symBinAddr: 0x285B4, symSize: 0xB4 }
  - { offset: 0xB3F35, size: 0x8, addend: 0x0, symName: '__ZN9rust_core10RustSystem8is_alive28_$u7b$$u7b$closure$u7d$$u7d$17hca231eddb2df8862E', symObjAddr: 0x414, symBinAddr: 0x28668, symSize: 0x28 }
  - { offset: 0xB3F79, size: 0x8, addend: 0x0, symName: '__ZN9rust_core21bench_rust_actor_tell28_$u7b$$u7b$closure$u7d$$u7d$17h1580ba6cac5ab8a1E', symObjAddr: 0x43C, symBinAddr: 0x28690, symSize: 0x14C }
  - { offset: 0xB4006, size: 0x8, addend: 0x0, symName: '__ZN9rust_core21bench_rust_actor_tell28_$u7b$$u7b$closure$u7d$$u7d$17h92e7a36dfb5af3fcE', symObjAddr: 0x588, symBinAddr: 0x287DC, symSize: 0x19C }
  - { offset: 0xB40A8, size: 0x8, addend: 0x0, symName: '__ZN9rust_core29bench_rust_mailbox_throughput28_$u7b$$u7b$closure$u7d$$u7d$17h0d764f7efbba3437E', symObjAddr: 0x724, symBinAddr: 0x28978, symSize: 0xD8 }
  - { offset: 0xB5D01, size: 0x8, addend: 0x0, symName: __ZN4core4sync6atomic11atomic_load17h208f61c8a7511b46E, symObjAddr: 0x0, symBinAddr: 0x28A50, symSize: 0x150 }
  - { offset: 0xB5D47, size: 0x8, addend: 0x0, symName: __ZN4core4sync6atomic11atomic_load17h208f61c8a7511b46E, symObjAddr: 0x0, symBinAddr: 0x28A50, symSize: 0x150 }
  - { offset: 0xB5DB9, size: 0x8, addend: 0x0, symName: __ZN4core4sync6atomic11atomic_load17h2e32f5f13661c521E, symObjAddr: 0x150, symBinAddr: 0x28BA0, symSize: 0x150 }
  - { offset: 0xB5E2B, size: 0x8, addend: 0x0, symName: __ZN4core4sync6atomic11atomic_load17h6fb34e4147f7de70E, symObjAddr: 0x2A0, symBinAddr: 0x28CF0, symSize: 0x150 }
  - { offset: 0xB5E9D, size: 0x8, addend: 0x0, symName: __ZN4core4sync6atomic11atomic_load17hd89898c439d7d4baE, symObjAddr: 0x3F0, symBinAddr: 0x28E40, symSize: 0x150 }
  - { offset: 0xB5F0F, size: 0x8, addend: 0x0, symName: __ZN4core4sync6atomic11atomic_load17heb967fc8e2da5771E, symObjAddr: 0x540, symBinAddr: 0x28F90, symSize: 0x150 }
  - { offset: 0xB5F81, size: 0x8, addend: 0x0, symName: __ZN4core4sync6atomic11atomic_load17hfbeabff206dec73cE, symObjAddr: 0x690, symBinAddr: 0x290E0, symSize: 0x150 }
  - { offset: 0xB5FF3, size: 0x8, addend: 0x0, symName: __ZN4core4sync6atomic12atomic_store17h571045cbd191a089E, symObjAddr: 0x7E0, symBinAddr: 0x29230, symSize: 0x154 }
  - { offset: 0xB6070, size: 0x8, addend: 0x0, symName: __ZN4core4sync6atomic12atomic_store17haa632f4e92e806c6E, symObjAddr: 0x934, symBinAddr: 0x29384, symSize: 0x154 }
  - { offset: 0xB60ED, size: 0x8, addend: 0x0, symName: __ZN4core4sync6atomic12atomic_store17hb6de46682c418e01E, symObjAddr: 0xA88, symBinAddr: 0x294D8, symSize: 0x154 }
  - { offset: 0xB6515, size: 0x8, addend: 0x0, symName: __ZN4core4sync6atomic23atomic_compare_exchange17hdfa74f114d92481eE, symObjAddr: 0x1078, symBinAddr: 0x29AC8, symSize: 0x514 }
  - { offset: 0xB65DC, size: 0x8, addend: 0x0, symName: __ZN4core4sync6atomic23atomic_compare_exchange17hec008e89ded9cc0cE, symObjAddr: 0x158C, symBinAddr: 0x29FDC, symSize: 0x514 }
  - { offset: 0xB66A3, size: 0x8, addend: 0x0, symName: __ZN4core4sync6atomic28atomic_compare_exchange_weak17h094b8be601d9a933E, symObjAddr: 0x1AA0, symBinAddr: 0x2A4F0, symSize: 0x548 }
  - { offset: 0xB6768, size: 0x8, addend: 0x0, symName: __ZN4core4sync6atomic28atomic_compare_exchange_weak17h206cdda32640cf87E, symObjAddr: 0x1FE8, symBinAddr: 0x2AA38, symSize: 0x514 }
  - { offset: 0xB682F, size: 0x8, addend: 0x0, symName: __ZN4core4sync6atomic28atomic_compare_exchange_weak17h2652ee0757adfda5E, symObjAddr: 0x24FC, symBinAddr: 0x2AF4C, symSize: 0x514 }
  - { offset: 0xB8E9C, size: 0x8, addend: 0x0, symName: '__ZN4core4sync6atomic18AtomicPtr$LT$T$GT$16compare_exchange17h30be881374a50724E', symObjAddr: 0xBDC, symBinAddr: 0x2962C, symSize: 0x44 }
  - { offset: 0xB971E, size: 0x8, addend: 0x0, symName: '__ZN4core4sync6atomic18AtomicPtr$LT$T$GT$16compare_exchange17h926ca5c4f7617fb9E', symObjAddr: 0xC20, symBinAddr: 0x29670, symSize: 0x44 }
  - { offset: 0xB9786, size: 0x8, addend: 0x0, symName: '__ZN4core4sync6atomic18AtomicPtr$LT$T$GT$4load17h2ec6d799e51d576cE', symObjAddr: 0xC64, symBinAddr: 0x296B4, symSize: 0x30 }
  - { offset: 0xB97CE, size: 0x8, addend: 0x0, symName: '__ZN4core4sync6atomic18AtomicPtr$LT$T$GT$4load17h31c05e46aaf59ca0E', symObjAddr: 0xC94, symBinAddr: 0x296E4, symSize: 0x30 }
  - { offset: 0xB9809, size: 0x8, addend: 0x0, symName: '__ZN4core4sync6atomic18AtomicPtr$LT$T$GT$4load17h8af30931aca89f96E', symObjAddr: 0xCC4, symBinAddr: 0x29714, symSize: 0x30 }
  - { offset: 0xB987A, size: 0x8, addend: 0x0, symName: '__ZN4core4sync6atomic18AtomicPtr$LT$T$GT$4swap17h1493481a8098b328E', symObjAddr: 0xCF4, symBinAddr: 0x29744, symSize: 0xE0 }
  - { offset: 0xB9948, size: 0x8, addend: 0x0, symName: '__ZN4core4sync6atomic18AtomicPtr$LT$T$GT$4swap17h92b6656c767f3c9cE', symObjAddr: 0xDD4, symBinAddr: 0x29824, symSize: 0xE0 }
  - { offset: 0xB9A16, size: 0x8, addend: 0x0, symName: '__ZN4core4sync6atomic18AtomicPtr$LT$T$GT$4swap17h94ec7ade98edfeefE', symObjAddr: 0xEB4, symBinAddr: 0x29904, symSize: 0xE0 }
  - { offset: 0xB9AAE, size: 0x8, addend: 0x0, symName: '__ZN4core4sync6atomic18AtomicPtr$LT$T$GT$5store17h0a1790377493234aE', symObjAddr: 0xF94, symBinAddr: 0x299E4, symSize: 0x38 }
  - { offset: 0xB9AF8, size: 0x8, addend: 0x0, symName: '__ZN4core4sync6atomic18AtomicPtr$LT$T$GT$5store17h134756a8c863b1e6E', symObjAddr: 0xFCC, symBinAddr: 0x29A1C, symSize: 0x38 }
  - { offset: 0xB9B42, size: 0x8, addend: 0x0, symName: '__ZN4core4sync6atomic18AtomicPtr$LT$T$GT$5store17h4e6b4c1ef21a6006E', symObjAddr: 0x1004, symBinAddr: 0x29A54, symSize: 0x38 }
  - { offset: 0xB9BA6, size: 0x8, addend: 0x0, symName: '__ZN4core4sync6atomic18AtomicPtr$LT$T$GT$7get_mut17h3f9b2e672607faf6E', symObjAddr: 0x103C, symBinAddr: 0x29A8C, symSize: 0x14 }
  - { offset: 0xB9BEC, size: 0x8, addend: 0x0, symName: '__ZN4core4sync6atomic18AtomicPtr$LT$T$GT$7get_mut17h5b3210584cf6f478E', symObjAddr: 0x1050, symBinAddr: 0x29AA0, symSize: 0x14 }
  - { offset: 0xB9C32, size: 0x8, addend: 0x0, symName: '__ZN4core4sync6atomic18AtomicPtr$LT$T$GT$7get_mut17hbeac2fa83d87baf6E', symObjAddr: 0x1064, symBinAddr: 0x29AB4, symSize: 0x14 }
  - { offset: 0xB9D50, size: 0x8, addend: 0x0, symName: __ZN9hashbrown7control5group4neon5Group10match_full17hba5867642ffc9836E, symObjAddr: 0x0, symBinAddr: 0x2B460, symSize: 0x68 }
  - { offset: 0xB9E68, size: 0x8, addend: 0x0, symName: __ZN9hashbrown7control5group4neon5Group10match_full17hba5867642ffc9836E, symObjAddr: 0x0, symBinAddr: 0x2B460, symSize: 0x68 }
  - { offset: 0xB9EA0, size: 0x8, addend: 0x0, symName: __ZN9hashbrown7control5group4neon5Group22match_empty_or_deleted17h4bf3ef82cd096b4fE, symObjAddr: 0x68, symBinAddr: 0x2B4C8, symSize: 0x68 }
  - { offset: 0xB9ED8, size: 0x8, addend: 0x0, symName: __ZN9hashbrown7control5group4neon5Group44convert_special_to_empty_and_full_to_deleted17h941d9bffcc7c848fE, symObjAddr: 0xD0, symBinAddr: 0x2B530, symSize: 0x88 }
  - { offset: 0xB9F10, size: 0x8, addend: 0x0, symName: __ZN9hashbrown7control5group4neon5Group9match_tag17h8e0a61cc2ce6b959E, symObjAddr: 0x158, symBinAddr: 0x2B5B8, symSize: 0x7C }
  - { offset: 0xB9F7C, size: 0x8, addend: 0x0, symName: __ZN4pyo310exceptions14PyTimeoutError7new_err17h3f96f782101e488cE, symObjAddr: 0x0, symBinAddr: 0x2B634, symSize: 0x28 }
  - { offset: 0xBB6E6, size: 0x8, addend: 0x0, symName: __ZN4pyo310exceptions14PyTimeoutError7new_err17h3f96f782101e488cE, symObjAddr: 0x0, symBinAddr: 0x2B634, symSize: 0x28 }
  - { offset: 0xBB72F, size: 0x8, addend: 0x0, symName: __ZN17crossbeam_channel3err16SendTimeoutError12Disconnected17h0631d9898ac5b961E, symObjAddr: 0x0, symBinAddr: 0x2B65C, symSize: 0x20 }
  - { offset: 0xBCCD7, size: 0x8, addend: 0x0, symName: __ZN17crossbeam_channel3err16SendTimeoutError12Disconnected17h0631d9898ac5b961E, symObjAddr: 0x0, symBinAddr: 0x2B65C, symSize: 0x20 }
  - { offset: 0xBCD08, size: 0x8, addend: 0x0, symName: __ZN17crossbeam_channel3err16SendTimeoutError12Disconnected17h5db4d95f930c2622E, symObjAddr: 0x20, symBinAddr: 0x2B67C, symSize: 0x3C }
  - { offset: 0xBDD63, size: 0x8, addend: 0x0, symName: '__ZN63_$LT$I$u20$as$u20$core..iter..traits..collect..IntoIterator$GT$9into_iter17h094c1c9b20660edfE', symObjAddr: 0x0, symBinAddr: 0x2B6B8, symSize: 0x30 }
  - { offset: 0xBDDA7, size: 0x8, addend: 0x0, symName: '__ZN63_$LT$I$u20$as$u20$core..iter..traits..collect..IntoIterator$GT$9into_iter17h094c1c9b20660edfE', symObjAddr: 0x0, symBinAddr: 0x2B6B8, symSize: 0x30 }
  - { offset: 0xBE45C, size: 0x8, addend: 0x0, symName: '__ZN96_$LT$alloc..vec..drain..Drain$LT$T$C$A$GT$$u20$as$u20$core..iter..traits..iterator..Iterator$GT$4next17h66cb6eb3def43bb4E', symObjAddr: 0x30, symBinAddr: 0x2B6E8, symSize: 0x80 }
  - { offset: 0xBE7AD, size: 0x8, addend: 0x0, symName: '__ZN104_$LT$core..iter..adapters..copied..Copied$LT$I$GT$$u20$as$u20$core..iter..traits..iterator..Iterator$GT$4next17hb2c1cea065bcf163E', symObjAddr: 0x0, symBinAddr: 0x2B768, symSize: 0x5C }
  - { offset: 0xBF9FE, size: 0x8, addend: 0x0, symName: '__ZN104_$LT$core..iter..adapters..copied..Copied$LT$I$GT$$u20$as$u20$core..iter..traits..iterator..Iterator$GT$4next17hb2c1cea065bcf163E', symObjAddr: 0x0, symBinAddr: 0x2B768, symSize: 0x5C }
  - { offset: 0xBFAA3, size: 0x8, addend: 0x0, symName: '__ZN63_$LT$I$u20$as$u20$core..iter..traits..collect..IntoIterator$GT$9into_iter17hce0dc85c7624f968E', symObjAddr: 0x5C, symBinAddr: 0x2B7C4, symSize: 0x1C }
  - { offset: 0xC015F, size: 0x8, addend: 0x0, symName: '__ZN118_$LT$pyo3..impl_..pyclass..SendablePyClass$LT$T$GT$$u20$as$u20$pyo3..impl_..pyclass..PyClassThreadChecker$LT$T$GT$$GT$3new17he24ade51f425e469E', symObjAddr: 0x0, symBinAddr: 0x2B7E0, symSize: 0x4 }
  - { offset: 0xC192B, size: 0x8, addend: 0x0, symName: '__ZN118_$LT$pyo3..impl_..pyclass..SendablePyClass$LT$T$GT$$u20$as$u20$pyo3..impl_..pyclass..PyClassThreadChecker$LT$T$GT$$GT$3new17he24ade51f425e469E', symObjAddr: 0x0, symBinAddr: 0x2B7E0, symSize: 0x4 }
  - { offset: 0xC194F, size: 0x8, addend: 0x0, symName: '__ZN118_$LT$pyo3..impl_..pyclass..SendablePyClass$LT$T$GT$$u20$as$u20$pyo3..impl_..pyclass..PyClassThreadChecker$LT$T$GT$$GT$6ensure17h5d30c20dcb2aba71E', symObjAddr: 0x4, symBinAddr: 0x2B7E4, symSize: 0x10 }
  - { offset: 0xC1982, size: 0x8, addend: 0x0, symName: '__ZN118_$LT$pyo3..impl_..pyclass..SendablePyClass$LT$T$GT$$u20$as$u20$pyo3..impl_..pyclass..PyClassThreadChecker$LT$T$GT$$GT$8can_drop17h5bb2e560ea71a382E', symObjAddr: 0x14, symBinAddr: 0x2B7F4, symSize: 0x18 }
  - { offset: 0xC19D5, size: 0x8, addend: 0x0, symName: __ZN4pyo35impl_7pyclass10tp_dealloc17h8f0300b4f1bcbf45E, symObjAddr: 0x2C, symBinAddr: 0x2B80C, symSize: 0x34 }
  - { offset: 0xC1A0D, size: 0x8, addend: 0x0, symName: __ZN4pyo35impl_7pyclass11PyClassDict10clear_dict17h7c518ad818eeee05E, symObjAddr: 0x60, symBinAddr: 0x2B840, symSize: 0x10 }
  - { offset: 0xC1A5D, size: 0x8, addend: 0x0, symName: __ZN4pyo35impl_7pyclass14PyClassWeakRef14clear_weakrefs17he97b354f8187569eE, symObjAddr: 0x70, symBinAddr: 0x2B850, symSize: 0x14 }
  - { offset: 0xC1AB6, size: 0x8, addend: 0x0, symName: __ZN4pyo35impl_7pyclass18tp_dealloc_with_gc17h121034d38966f7b0E, symObjAddr: 0x84, symBinAddr: 0x2B864, symSize: 0x4C }
  - { offset: 0xC32CB, size: 0x8, addend: 0x0, symName: '__ZN4pyo35impl_7pyclass29PyClassImplCollector$LT$T$GT$3new17hc595328d016da07cE', symObjAddr: 0xD0, symBinAddr: 0x2B8B0, symSize: 0x4 }
  - { offset: 0xC3358, size: 0x8, addend: 0x0, symName: __ZN4core5slice3raw14from_raw_parts18precondition_check17h5b893f7fcede1137E, symObjAddr: 0x0, symBinAddr: 0x2B8B4, symSize: 0x1D8 }
  - { offset: 0xC37C9, size: 0x8, addend: 0x0, symName: __ZN4core5slice3raw14from_raw_parts18precondition_check17h5b893f7fcede1137E, symObjAddr: 0x0, symBinAddr: 0x2B8B4, symSize: 0x1D8 }
  - { offset: 0xC3B28, size: 0x8, addend: 0x0, symName: '__ZN114_$LT$pyo3..pyclass_init..PyNativeTypeInitializer$LT$T$GT$$u20$as$u20$pyo3..pyclass_init..PyObjectInit$LT$T$GT$$GT$15into_new_object17h9de7ae4c8784ba3cE', symObjAddr: 0x0, symBinAddr: 0x2BA8C, symSize: 0x3C }
  - { offset: 0xC56B6, size: 0x8, addend: 0x0, symName: '__ZN114_$LT$pyo3..pyclass_init..PyNativeTypeInitializer$LT$T$GT$$u20$as$u20$pyo3..pyclass_init..PyObjectInit$LT$T$GT$$GT$15into_new_object17h9de7ae4c8784ba3cE', symObjAddr: 0x0, symBinAddr: 0x2BA8C, symSize: 0x3C }
  - { offset: 0xC573A, size: 0x8, addend: 0x0, symName: '__ZN114_$LT$pyo3..pyclass_init..PyNativeTypeInitializer$LT$T$GT$$u20$as$u20$pyo3..pyclass_init..PyObjectInit$LT$T$GT$$GT$17can_be_subclassed17hdeb909b82c152e4aE', symObjAddr: 0x3C, symBinAddr: 0x2BAC8, symSize: 0x18 }
  - { offset: 0xC58B1, size: 0x8, addend: 0x0, symName: '__ZN96_$LT$pyo3..pyclass_init..PyClassInitializer$LT$T$GT$$u20$as$u20$core..convert..From$LT$T$GT$$GT$4from17h4aef53fa94d13546E', symObjAddr: 0x338, symBinAddr: 0x2BDC4, symSize: 0x2C }
  - { offset: 0xC734B, size: 0x8, addend: 0x0, symName: '__ZN4pyo312pyclass_init27PyClassInitializer$LT$T$GT$27create_class_object_of_type17h175f1e3adb18769dE', symObjAddr: 0x54, symBinAddr: 0x2BAE0, symSize: 0x24C }
  - { offset: 0xC7504, size: 0x8, addend: 0x0, symName: '__ZN4pyo312pyclass_init27PyClassInitializer$LT$T$GT$3new17h1937adb6e106d580E', symObjAddr: 0x2A0, symBinAddr: 0x2BD2C, symSize: 0x98 }
  - { offset: 0xC7568, size: 0x8, addend: 0x0, symName: __ZN3std4sync6poison10map_result17h0aaba3e693c807f0E, symObjAddr: 0x0, symBinAddr: 0x2BDF0, symSize: 0xC4 }
  - { offset: 0xC7B57, size: 0x8, addend: 0x0, symName: __ZN3std4sync6poison10map_result17h0aaba3e693c807f0E, symObjAddr: 0x0, symBinAddr: 0x2BDF0, symSize: 0xC4 }
  - { offset: 0xC7BEB, size: 0x8, addend: 0x0, symName: __ZN3std4sync6poison10map_result17h700f536daaee86caE, symObjAddr: 0xC4, symBinAddr: 0x2BEB4, symSize: 0xC4 }
  - { offset: 0xC7C84, size: 0x8, addend: 0x0, symName: '__ZN76_$LT$std..sync..poison..PoisonError$LT$T$GT$$u20$as$u20$core..fmt..Debug$GT$3fmt17h589ffd04fd085a47E', symObjAddr: 0x188, symBinAddr: 0x2BF78, symSize: 0x50 }
  - { offset: 0xC7CC7, size: 0x8, addend: 0x0, symName: '__ZN76_$LT$std..sync..poison..PoisonError$LT$T$GT$$u20$as$u20$core..fmt..Debug$GT$3fmt17h78f85f1fa01fa177E', symObjAddr: 0x1D8, symBinAddr: 0x2BFC8, symSize: 0x50 }
  - { offset: 0xC841D, size: 0x8, addend: 0x0, symName: '__ZN4core3num23_$LT$impl$u20$usize$GT$11checked_add17hd72c792440cd62a5E', symObjAddr: 0x0, symBinAddr: 0x2C018, symSize: 0x7C }
  - { offset: 0xC847E, size: 0x8, addend: 0x0, symName: '__ZN4core3num23_$LT$impl$u20$usize$GT$11checked_add17hd72c792440cd62a5E', symObjAddr: 0x0, symBinAddr: 0x2C018, symSize: 0x7C }
  - { offset: 0xC85CB, size: 0x8, addend: 0x0, symName: '__ZN4core3num23_$LT$impl$u20$usize$GT$17next_power_of_two17h9fac0f0c20e69c02E', symObjAddr: 0x5F8, symBinAddr: 0x2C610, symSize: 0x8C }
  - { offset: 0xC8691, size: 0x8, addend: 0x0, symName: '__ZN4core3num23_$LT$impl$u20$usize$GT$16from_ascii_radix17h19cf0ed227733c65E', symObjAddr: 0x7C, symBinAddr: 0x2C094, symSize: 0x57C }
  - { offset: 0xC8A9F, size: 0x8, addend: 0x0, symName: '__ZN8lock_api6rwlock19RwLock$LT$R$C$T$GT$25make_read_guard_unchecked17h7fae36dedfb68138E', symObjAddr: 0x0, symBinAddr: 0x2C69C, symSize: 0x14 }
  - { offset: 0xCA553, size: 0x8, addend: 0x0, symName: '__ZN90_$LT$lock_api..rwlock..RwLockReadGuard$LT$R$C$T$GT$$u20$as$u20$core..ops..deref..Deref$GT$5deref17h8b1138945b1dc1b6E', symObjAddr: 0x18C, symBinAddr: 0x2C828, symSize: 0x24 }
  - { offset: 0xCA593, size: 0x8, addend: 0x0, symName: '__ZN90_$LT$lock_api..rwlock..RwLockReadGuard$LT$R$C$T$GT$$u20$as$u20$core..ops..deref..Deref$GT$5deref17hf650b141e1c92bd6E', symObjAddr: 0x1B0, symBinAddr: 0x2C84C, symSize: 0x24 }
  - { offset: 0xCA5D9, size: 0x8, addend: 0x0, symName: '__ZN94_$LT$lock_api..rwlock..RwLockWriteGuard$LT$R$C$T$GT$$u20$as$u20$core..ops..deref..DerefMut$GT$9deref_mut17h1ddbbec773f5f1e7E', symObjAddr: 0x1D4, symBinAddr: 0x2C870, symSize: 0x24 }
  - { offset: 0xCA619, size: 0x8, addend: 0x0, symName: '__ZN94_$LT$lock_api..rwlock..RwLockWriteGuard$LT$R$C$T$GT$$u20$as$u20$core..ops..deref..DerefMut$GT$9deref_mut17haa77155c1e0a1f80E', symObjAddr: 0x1F8, symBinAddr: 0x2C894, symSize: 0x24 }
  - { offset: 0xCBC8B, size: 0x8, addend: 0x0, symName: '__ZN8lock_api6rwlock19RwLock$LT$R$C$T$GT$25make_read_guard_unchecked17h7fae36dedfb68138E', symObjAddr: 0x0, symBinAddr: 0x2C69C, symSize: 0x14 }
  - { offset: 0xCBCF8, size: 0x8, addend: 0x0, symName: '__ZN8lock_api6rwlock19RwLock$LT$R$C$T$GT$25make_read_guard_unchecked17h7fd66cce08666de4E', symObjAddr: 0x14, symBinAddr: 0x2C6B0, symSize: 0x14 }
  - { offset: 0xCBD58, size: 0x8, addend: 0x0, symName: '__ZN8lock_api6rwlock19RwLock$LT$R$C$T$GT$26make_write_guard_unchecked17h9869809bcaa864dfE', symObjAddr: 0x28, symBinAddr: 0x2C6C4, symSize: 0x14 }
  - { offset: 0xCBDB8, size: 0x8, addend: 0x0, symName: '__ZN8lock_api6rwlock19RwLock$LT$R$C$T$GT$26make_write_guard_unchecked17he9d062a7785e446eE', symObjAddr: 0x3C, symBinAddr: 0x2C6D8, symSize: 0x14 }
  - { offset: 0xCBE09, size: 0x8, addend: 0x0, symName: '__ZN8lock_api6rwlock19RwLock$LT$R$C$T$GT$3new17h3508c436b1177e07E', symObjAddr: 0x50, symBinAddr: 0x2C6EC, symSize: 0x58 }
  - { offset: 0xCBE5E, size: 0x8, addend: 0x0, symName: '__ZN8lock_api6rwlock19RwLock$LT$R$C$T$GT$3new17h7f6fe3143a71483eE', symObjAddr: 0xA8, symBinAddr: 0x2C744, symSize: 0x24 }
  - { offset: 0xCBEDC, size: 0x8, addend: 0x0, symName: '__ZN8lock_api6rwlock19RwLock$LT$R$C$T$GT$4read17ha3684c6e888beefdE', symObjAddr: 0xCC, symBinAddr: 0x2C768, symSize: 0x30 }
  - { offset: 0xCBF11, size: 0x8, addend: 0x0, symName: '__ZN8lock_api6rwlock19RwLock$LT$R$C$T$GT$4read17he630ce8dfa46081bE', symObjAddr: 0xFC, symBinAddr: 0x2C798, symSize: 0x30 }
  - { offset: 0xCBF46, size: 0x8, addend: 0x0, symName: '__ZN8lock_api6rwlock19RwLock$LT$R$C$T$GT$5write17h0f1154fead8a6938E', symObjAddr: 0x12C, symBinAddr: 0x2C7C8, symSize: 0x30 }
  - { offset: 0xCBF7B, size: 0x8, addend: 0x0, symName: '__ZN8lock_api6rwlock19RwLock$LT$R$C$T$GT$5write17h1be73362c7ad8613E', symObjAddr: 0x15C, symBinAddr: 0x2C7F8, symSize: 0x30 }
  - { offset: 0xCC002, size: 0x8, addend: 0x0, symName: __ZN9hashbrown3raw11TableLayout20calculate_layout_for17h400ee6d8d1f1d9a5E, symObjAddr: 0x0, symBinAddr: 0x2C8B8, symSize: 0x220 }
  - { offset: 0xCDB51, size: 0x8, addend: 0x0, symName: __ZN9hashbrown3raw11TableLayout20calculate_layout_for17h400ee6d8d1f1d9a5E, symObjAddr: 0x0, symBinAddr: 0x2C8B8, symSize: 0x220 }
  - { offset: 0xCE129, size: 0x8, addend: 0x0, symName: __ZN9hashbrown3raw13RawTableInner15fix_insert_slot17hef1762780ad655c2E, symObjAddr: 0x220, symBinAddr: 0x2CAD8, symSize: 0x124 }
  - { offset: 0xCE518, size: 0x8, addend: 0x0, symName: __ZN9hashbrown3raw13RawTableInner15rehash_in_place17h42e9da03a2c7ee4dE, symObjAddr: 0x344, symBinAddr: 0x2CBFC, symSize: 0x4AC }
  - { offset: 0xCED31, size: 0x8, addend: 0x0, symName: __ZN9hashbrown3raw13RawTableInner16find_insert_slot17hd7ab613374c8e3bdE, symObjAddr: 0x7F0, symBinAddr: 0x2D0A8, symSize: 0x10C }
  - { offset: 0xCEF2A, size: 0x8, addend: 0x0, symName: __ZN9hashbrown3raw13RawTableInner19prepare_insert_slot17h87e988b934fd43a5E, symObjAddr: 0x8FC, symBinAddr: 0x2D1B4, symSize: 0x74 }
  - { offset: 0xCF21B, size: 0x8, addend: 0x0, symName: __ZN9hashbrown3raw13RawTableInner23prepare_rehash_in_place17h92dcc6591b9f17ffE, symObjAddr: 0x970, symBinAddr: 0x2D228, symSize: 0x254 }
  - { offset: 0xCF93B, size: 0x8, addend: 0x0, symName: __ZN9hashbrown3raw13RawTableInner25find_insert_slot_in_group17h360440de5e59345fE, symObjAddr: 0xBC4, symBinAddr: 0x2D47C, symSize: 0x15C }
  - { offset: 0xCFC32, size: 0x8, addend: 0x0, symName: __ZN9hashbrown3raw13RawTableInner30find_or_find_insert_slot_inner17h78deb618f9035f4dE, symObjAddr: 0xD20, symBinAddr: 0x2D5D8, symSize: 0x2B8 }
  - { offset: 0xD007A, size: 0x8, addend: 0x0, symName: __ZN9hashbrown3raw13RawTableInner5erase17h7bc05f5522b28ee0E, symObjAddr: 0xFD8, symBinAddr: 0x2D890, symSize: 0x178 }
  - { offset: 0xD038A, size: 0x8, addend: 0x0, symName: '__ZN4pyo34sync20GILOnceCell$LT$T$GT$15get_or_try_init17hd459bc0c9d040f6dE', symObjAddr: 0x0, symBinAddr: 0x2DA08, symSize: 0xB4 }
  - { offset: 0xD20DE, size: 0x8, addend: 0x0, symName: '__ZN4pyo34sync20GILOnceCell$LT$T$GT$15get_or_try_init17hd459bc0c9d040f6dE', symObjAddr: 0x0, symBinAddr: 0x2DA08, symSize: 0xB4 }
  - { offset: 0xD2157, size: 0x8, addend: 0x0, symName: '__ZN4pyo34sync20GILOnceCell$LT$T$GT$3get17hb6c677b8501d458cE', symObjAddr: 0xB4, symBinAddr: 0x2DABC, symSize: 0x70 }
  - { offset: 0xD21D8, size: 0x8, addend: 0x0, symName: '__ZN4pyo34sync20GILOnceCell$LT$T$GT$3set17h0863161b996ed164E', symObjAddr: 0x124, symBinAddr: 0x2DB2C, symSize: 0x194 }
  - { offset: 0xD22D1, size: 0x8, addend: 0x0, symName: '__ZN4pyo34sync20GILOnceCell$LT$T$GT$4init17h46f39f4674f266baE', symObjAddr: 0x2B8, symBinAddr: 0xB6D00, symSize: 0x180 }
  - { offset: 0xD23CE, size: 0x8, addend: 0x0, symName: '__ZN4pyo35types10boolobject116_$LT$impl$u20$pyo3..conversion..IntoPy$LT$pyo3..instance..Py$LT$pyo3..types..any..PyAny$GT$$GT$$u20$for$u20$bool$GT$7into_py17h40a85b15e3b7d294E', symObjAddr: 0x0, symBinAddr: 0x2DCC0, symSize: 0x24 }
  - { offset: 0xD352F, size: 0x8, addend: 0x0, symName: '__ZN4pyo35types10boolobject116_$LT$impl$u20$pyo3..conversion..IntoPy$LT$pyo3..instance..Py$LT$pyo3..types..any..PyAny$GT$$GT$$u20$for$u20$bool$GT$7into_py17h40a85b15e3b7d294E', symObjAddr: 0x0, symBinAddr: 0x2DCC0, symSize: 0x24 }
  - { offset: 0xD3B8C, size: 0x8, addend: 0x0, symName: __ZN4pyo35types10boolobject6PyBool9new_bound17h0c5f58937680fe6aE, symObjAddr: 0x24, symBinAddr: 0x2DCE4, symSize: 0x50 }
  - { offset: 0xD3BE5, size: 0x8, addend: 0x0, symName: '__ZN87_$LT$$BP$mut$u20$pyo3_ffi..object..PyObject$u20$as$u20$pyo3..ffi_ptr_ext..FfiPtrExt$GT$12assume_owned17h4d7e38acc75dfaedE', symObjAddr: 0x0, symBinAddr: 0x2DD34, symSize: 0x24 }
  - { offset: 0xD3C38, size: 0x8, addend: 0x0, symName: __ZN8pyo3_ffi6object18PyObject_TypeCheck17h503b2242c7652f94E, symObjAddr: 0x90, symBinAddr: 0x2DDC4, symSize: 0x74 }
  - { offset: 0xD3C75, size: 0x8, addend: 0x0, symName: __ZN8pyo3_ffi6object7Py_None17hf7e4751f3cd173b7E, symObjAddr: 0x104, symBinAddr: 0x2DE38, symSize: 0xC }
  - { offset: 0xD3C93, size: 0x8, addend: 0x0, symName: __ZN8pyo3_ffi6object7Py_TYPE17h5be049e7f69ef8f8E, symObjAddr: 0x110, symBinAddr: 0x2DE44, symSize: 0x74 }
  - { offset: 0xD4E41, size: 0x8, addend: 0x0, symName: '__ZN87_$LT$$BP$mut$u20$pyo3_ffi..object..PyObject$u20$as$u20$pyo3..ffi_ptr_ext..FfiPtrExt$GT$12assume_owned17h4d7e38acc75dfaedE', symObjAddr: 0x0, symBinAddr: 0x2DD34, symSize: 0x24 }
  - { offset: 0xD4E86, size: 0x8, addend: 0x0, symName: '__ZN87_$LT$$BP$mut$u20$pyo3_ffi..object..PyObject$u20$as$u20$pyo3..ffi_ptr_ext..FfiPtrExt$GT$15assume_borrowed17hd70763ce640d8023E', symObjAddr: 0x24, symBinAddr: 0x2DD58, symSize: 0x24 }
  - { offset: 0xD4ECB, size: 0x8, addend: 0x0, symName: '__ZN87_$LT$$BP$mut$u20$pyo3_ffi..object..PyObject$u20$as$u20$pyo3..ffi_ptr_ext..FfiPtrExt$GT$22assume_borrowed_or_opt17h6a4311696a45a56aE', symObjAddr: 0x48, symBinAddr: 0x2DD7C, symSize: 0x24 }
  - { offset: 0xD4F10, size: 0x8, addend: 0x0, symName: '__ZN87_$LT$$BP$mut$u20$pyo3_ffi..object..PyObject$u20$as$u20$pyo3..ffi_ptr_ext..FfiPtrExt$GT$25assume_borrowed_unchecked17h1004cf598000ecbaE', symObjAddr: 0x6C, symBinAddr: 0x2DDA0, symSize: 0x24 }
  - { offset: 0xD555A, size: 0x8, addend: 0x0, symName: __ZN4core3ptr13read_volatile17h99a525990dac5cefE, symObjAddr: 0x0, symBinAddr: 0x2DEB8, symSize: 0x5C }
  - { offset: 0xD654E, size: 0x8, addend: 0x0, symName: __ZN4core3ptr13read_volatile17h99a525990dac5cefE, symObjAddr: 0x0, symBinAddr: 0x2DEB8, symSize: 0x5C }
  - { offset: 0xD66AB, size: 0x8, addend: 0x0, symName: __ZN4core3ptr4read17h9d62f70bcb233af4E, symObjAddr: 0x600, symBinAddr: 0x2DF14, symSize: 0x20 }
  - { offset: 0xD66E2, size: 0x8, addend: 0x0, symName: __ZN4core3ptr5write17hb30c946c8fc2731cE, symObjAddr: 0x620, symBinAddr: 0x2DF34, symSize: 0x28 }
  - { offset: 0xD6724, size: 0x8, addend: 0x0, symName: __ZN4core3ptr7replace17h75453a9ad27e222eE, symObjAddr: 0x648, symBinAddr: 0x2DF5C, symSize: 0x74 }
  - { offset: 0xD87E3, size: 0x8, addend: 0x0, symName: __ZN4pyo35types4none6PyNone9get_bound17h5d1d8584c3e07359E, symObjAddr: 0x0, symBinAddr: 0x2DFD0, symSize: 0x2C }
  - { offset: 0xD9F0E, size: 0x8, addend: 0x0, symName: __ZN4pyo35types4none6PyNone9get_bound17h5d1d8584c3e07359E, symObjAddr: 0x0, symBinAddr: 0x2DFD0, symSize: 0x2C }
  - { offset: 0xD9F59, size: 0x8, addend: 0x0, symName: '__ZN17crossbeam_channel7channel15Sender$LT$T$GT$4send17h59d6a0ac25e90954E', symObjAddr: 0x0, symBinAddr: 0x2DFFC, symSize: 0x1B0 }
  - { offset: 0xDBF20, size: 0x8, addend: 0x0, symName: '__ZN17crossbeam_channel7channel15Sender$LT$T$GT$4send28_$u7b$$u7b$closure$u7d$$u7d$17h15917b4df2c6c8e8E', symObjAddr: 0x36C, symBinAddr: 0x2E368, symSize: 0xCC }
  - { offset: 0xDBF81, size: 0x8, addend: 0x0, symName: '__ZN17crossbeam_channel7channel15Sender$LT$T$GT$4send28_$u7b$$u7b$closure$u7d$$u7d$17h70f20cad0f318ddbE', symObjAddr: 0x438, symBinAddr: 0x2E434, symSize: 0xD8 }
  - { offset: 0xDC49D, size: 0x8, addend: 0x0, symName: '__ZN17crossbeam_channel7channel17Receiver$LT$T$GT$4recv28_$u7b$$u7b$closure$u7d$$u7d$17h00e35f7afa114f2dE', symObjAddr: 0xED4, symBinAddr: 0x2EED0, symSize: 0x10 }
  - { offset: 0xDC4D7, size: 0x8, addend: 0x0, symName: '__ZN17crossbeam_channel7channel17Receiver$LT$T$GT$4recv28_$u7b$$u7b$closure$u7d$$u7d$17h65f4615b0983fa35E', symObjAddr: 0xEE4, symBinAddr: 0x2EEE0, symSize: 0x10 }
  - { offset: 0xDC511, size: 0x8, addend: 0x0, symName: '__ZN17crossbeam_channel7channel17Receiver$LT$T$GT$4recv28_$u7b$$u7b$closure$u7d$$u7d$17h82f18cde2f183b5dE', symObjAddr: 0xEF4, symBinAddr: 0x2EEF0, symSize: 0x10 }
  - { offset: 0xDC562, size: 0x8, addend: 0x0, symName: __ZN17crossbeam_channel7channel7bounded17h284a5aa3b83cfe47E, symObjAddr: 0xF04, symBinAddr: 0x2EF00, symSize: 0xEC }
  - { offset: 0xDC66C, size: 0x8, addend: 0x0, symName: __ZN17crossbeam_channel7channel7bounded17h69a354ddae6d3f3dE, symObjAddr: 0xFF0, symBinAddr: 0x2EFEC, symSize: 0xEC }
  - { offset: 0xDC776, size: 0x8, addend: 0x0, symName: __ZN17crossbeam_channel7channel7bounded17hee1ff4e80267177eE, symObjAddr: 0x10DC, symBinAddr: 0x2F0D8, symSize: 0xEC }
  - { offset: 0xDC885, size: 0x8, addend: 0x0, symName: '__ZN82_$LT$crossbeam_channel..channel..Sender$LT$T$GT$$u20$as$u20$core..clone..Clone$GT$5clone17h80c5c7544586dad6E', symObjAddr: 0x11C8, symBinAddr: 0x2F1C4, symSize: 0xB8 }
  - { offset: 0xDC93F, size: 0x8, addend: 0x0, symName: '__ZN85_$LT$crossbeam_channel..channel..Sender$LT$T$GT$$u20$as$u20$core..ops..drop..Drop$GT$4drop28_$u7b$$u7b$closure$u7d$$u7d$17h092e9d8ecaa8caa1E', symObjAddr: 0x1280, symBinAddr: 0x2F27C, symSize: 0x24 }
  - { offset: 0xDC981, size: 0x8, addend: 0x0, symName: '__ZN85_$LT$crossbeam_channel..channel..Sender$LT$T$GT$$u20$as$u20$core..ops..drop..Drop$GT$4drop28_$u7b$$u7b$closure$u7d$$u7d$17h176a75288a6e3785E', symObjAddr: 0x12A4, symBinAddr: 0x2F2A0, symSize: 0x24 }
  - { offset: 0xDC9C3, size: 0x8, addend: 0x0, symName: '__ZN85_$LT$crossbeam_channel..channel..Sender$LT$T$GT$$u20$as$u20$core..ops..drop..Drop$GT$4drop28_$u7b$$u7b$closure$u7d$$u7d$17h1e8f18989aa9279aE', symObjAddr: 0x12C8, symBinAddr: 0x2F2C4, symSize: 0x24 }
  - { offset: 0xDCA05, size: 0x8, addend: 0x0, symName: '__ZN85_$LT$crossbeam_channel..channel..Sender$LT$T$GT$$u20$as$u20$core..ops..drop..Drop$GT$4drop28_$u7b$$u7b$closure$u7d$$u7d$17h6c66e134d03df51eE', symObjAddr: 0x12EC, symBinAddr: 0x2F2E8, symSize: 0x24 }
  - { offset: 0xDCA47, size: 0x8, addend: 0x0, symName: '__ZN85_$LT$crossbeam_channel..channel..Sender$LT$T$GT$$u20$as$u20$core..ops..drop..Drop$GT$4drop28_$u7b$$u7b$closure$u7d$$u7d$17h842eabcf9ffbacfdE', symObjAddr: 0x1310, symBinAddr: 0x2F30C, symSize: 0x24 }
  - { offset: 0xDCA89, size: 0x8, addend: 0x0, symName: '__ZN85_$LT$crossbeam_channel..channel..Sender$LT$T$GT$$u20$as$u20$core..ops..drop..Drop$GT$4drop28_$u7b$$u7b$closure$u7d$$u7d$17h8fc0bdbb2b856f7fE', symObjAddr: 0x1334, symBinAddr: 0x2F330, symSize: 0x24 }
  - { offset: 0xDCACB, size: 0x8, addend: 0x0, symName: '__ZN85_$LT$crossbeam_channel..channel..Sender$LT$T$GT$$u20$as$u20$core..ops..drop..Drop$GT$4drop28_$u7b$$u7b$closure$u7d$$u7d$17h98ebf97fc5c5e620E', symObjAddr: 0x1358, symBinAddr: 0x2F354, symSize: 0x24 }
  - { offset: 0xDCB0D, size: 0x8, addend: 0x0, symName: '__ZN85_$LT$crossbeam_channel..channel..Sender$LT$T$GT$$u20$as$u20$core..ops..drop..Drop$GT$4drop28_$u7b$$u7b$closure$u7d$$u7d$17hb3b7f3036ef896e5E', symObjAddr: 0x137C, symBinAddr: 0x2F378, symSize: 0x24 }
  - { offset: 0xDCB4F, size: 0x8, addend: 0x0, symName: '__ZN85_$LT$crossbeam_channel..channel..Sender$LT$T$GT$$u20$as$u20$core..ops..drop..Drop$GT$4drop28_$u7b$$u7b$closure$u7d$$u7d$17hf3f995e16c065207E', symObjAddr: 0x13A0, symBinAddr: 0x2F39C, symSize: 0x24 }
  - { offset: 0xDCBDC, size: 0x8, addend: 0x0, symName: '__ZN87_$LT$crossbeam_channel..channel..Receiver$LT$T$GT$$u20$as$u20$core..ops..drop..Drop$GT$4drop28_$u7b$$u7b$closure$u7d$$u7d$17h18ffdf6659f228ddE', symObjAddr: 0x13C4, symBinAddr: 0x2F3C0, symSize: 0x24 }
  - { offset: 0xDCC1E, size: 0x8, addend: 0x0, symName: '__ZN87_$LT$crossbeam_channel..channel..Receiver$LT$T$GT$$u20$as$u20$core..ops..drop..Drop$GT$4drop28_$u7b$$u7b$closure$u7d$$u7d$17h4fbd301edc9ce92dE', symObjAddr: 0x13E8, symBinAddr: 0x2F3E4, symSize: 0x24 }
  - { offset: 0xDCC60, size: 0x8, addend: 0x0, symName: '__ZN87_$LT$crossbeam_channel..channel..Receiver$LT$T$GT$$u20$as$u20$core..ops..drop..Drop$GT$4drop28_$u7b$$u7b$closure$u7d$$u7d$17h61d6512b8be8f006E', symObjAddr: 0x140C, symBinAddr: 0x2F408, symSize: 0x24 }
  - { offset: 0xDCCA2, size: 0x8, addend: 0x0, symName: '__ZN87_$LT$crossbeam_channel..channel..Receiver$LT$T$GT$$u20$as$u20$core..ops..drop..Drop$GT$4drop28_$u7b$$u7b$closure$u7d$$u7d$17h8cf84692be9e4f17E', symObjAddr: 0x1430, symBinAddr: 0x2F42C, symSize: 0x24 }
  - { offset: 0xDCCE4, size: 0x8, addend: 0x0, symName: '__ZN87_$LT$crossbeam_channel..channel..Receiver$LT$T$GT$$u20$as$u20$core..ops..drop..Drop$GT$4drop28_$u7b$$u7b$closure$u7d$$u7d$17h92ded58c5da3444cE', symObjAddr: 0x1454, symBinAddr: 0x2F450, symSize: 0x24 }
  - { offset: 0xDCD26, size: 0x8, addend: 0x0, symName: '__ZN87_$LT$crossbeam_channel..channel..Receiver$LT$T$GT$$u20$as$u20$core..ops..drop..Drop$GT$4drop28_$u7b$$u7b$closure$u7d$$u7d$17h986adfd463ef99daE', symObjAddr: 0x1478, symBinAddr: 0x2F474, symSize: 0x24 }
  - { offset: 0xDCD68, size: 0x8, addend: 0x0, symName: '__ZN87_$LT$crossbeam_channel..channel..Receiver$LT$T$GT$$u20$as$u20$core..ops..drop..Drop$GT$4drop28_$u7b$$u7b$closure$u7d$$u7d$17had432081bf260fa6E', symObjAddr: 0x149C, symBinAddr: 0x2F498, symSize: 0x24 }
  - { offset: 0xDCDAA, size: 0x8, addend: 0x0, symName: '__ZN87_$LT$crossbeam_channel..channel..Receiver$LT$T$GT$$u20$as$u20$core..ops..drop..Drop$GT$4drop28_$u7b$$u7b$closure$u7d$$u7d$17hb65cb37e90b46e33E', symObjAddr: 0x14C0, symBinAddr: 0x2F4BC, symSize: 0x24 }
  - { offset: 0xDCDEC, size: 0x8, addend: 0x0, symName: '__ZN87_$LT$crossbeam_channel..channel..Receiver$LT$T$GT$$u20$as$u20$core..ops..drop..Drop$GT$4drop28_$u7b$$u7b$closure$u7d$$u7d$17he6e19ca7e7702928E', symObjAddr: 0x14E4, symBinAddr: 0x2F4E0, symSize: 0x24 }
  - { offset: 0xDE106, size: 0x8, addend: 0x0, symName: '__ZN17crossbeam_channel7channel15Sender$LT$T$GT$4send17h59d6a0ac25e90954E', symObjAddr: 0x0, symBinAddr: 0x2DFFC, symSize: 0x1B0 }
  - { offset: 0xDE733, size: 0x8, addend: 0x0, symName: '__ZN17crossbeam_channel7channel15Sender$LT$T$GT$4send17ha4cd91280f8320f3E', symObjAddr: 0x1B0, symBinAddr: 0x2E1AC, symSize: 0x1BC }
  - { offset: 0xDE7D8, size: 0x8, addend: 0x0, symName: '__ZN17crossbeam_channel7channel17Receiver$LT$T$GT$12recv_timeout17h536882565e82508eE', symObjAddr: 0x510, symBinAddr: 0x2E50C, symSize: 0xB0 }
  - { offset: 0xDE83E, size: 0x8, addend: 0x0, symName: '__ZN17crossbeam_channel7channel17Receiver$LT$T$GT$12recv_timeout17hcd353726f3ee3c57E', symObjAddr: 0x5C0, symBinAddr: 0x2E5BC, symSize: 0xBC }
  - { offset: 0xDE897, size: 0x8, addend: 0x0, symName: '__ZN17crossbeam_channel7channel17Receiver$LT$T$GT$13recv_deadline17h180febce6a3e3ae2E', symObjAddr: 0x67C, symBinAddr: 0x2E678, symSize: 0x1A8 }
  - { offset: 0xDE9C4, size: 0x8, addend: 0x0, symName: '__ZN17crossbeam_channel7channel17Receiver$LT$T$GT$13recv_deadline17h84eb4839c472c19bE', symObjAddr: 0x824, symBinAddr: 0x2E820, symSize: 0x1A8 }
  - { offset: 0xDEAFE, size: 0x8, addend: 0x0, symName: '__ZN17crossbeam_channel7channel17Receiver$LT$T$GT$4recv17h03e93c86f20b7c7bE', symObjAddr: 0x9CC, symBinAddr: 0x2E9C8, symSize: 0x1B0 }
  - { offset: 0xDEC1C, size: 0x8, addend: 0x0, symName: '__ZN17crossbeam_channel7channel17Receiver$LT$T$GT$4recv17haf47ef962451336aE', symObjAddr: 0xB7C, symBinAddr: 0x2EB78, symSize: 0x1B0 }
  - { offset: 0xDED3A, size: 0x8, addend: 0x0, symName: '__ZN17crossbeam_channel7channel17Receiver$LT$T$GT$4recv17hb1b2c5a725f713fcE', symObjAddr: 0xD2C, symBinAddr: 0x2ED28, symSize: 0x1A8 }
  - { offset: 0xDF049, size: 0x8, addend: 0x0, symName: '__ZN73_$LT$pyo3..types..any..PyAny$u20$as$u20$pyo3..type_object..PyTypeInfo$GT$15type_object_raw17hcf6861d42a131435E', symObjAddr: 0x0, symBinAddr: 0x2F504, symSize: 0x24 }
  - { offset: 0xE0126, size: 0x8, addend: 0x0, symName: '__ZN73_$LT$pyo3..types..any..PyAny$u20$as$u20$pyo3..type_object..PyTypeInfo$GT$15type_object_raw17hcf6861d42a131435E', symObjAddr: 0x0, symBinAddr: 0x2F504, symSize: 0x24 }
  - { offset: 0xE069B, size: 0x8, addend: 0x0, symName: '__ZN4core4iter6traits8iterator8Iterator4find5check28_$u7b$$u7b$closure$u7d$$u7d$17h5561f6a864a64a38E', symObjAddr: 0x0, symBinAddr: 0x2F528, symSize: 0x84 }
  - { offset: 0xE06E9, size: 0x8, addend: 0x0, symName: '__ZN4core4iter6traits8iterator8Iterator4find5check28_$u7b$$u7b$closure$u7d$$u7d$17h5561f6a864a64a38E', symObjAddr: 0x0, symBinAddr: 0x2F528, symSize: 0x84 }
  - { offset: 0xE0751, size: 0x8, addend: 0x0, symName: '__ZN4core4iter6traits8iterator8Iterator8for_each4call28_$u7b$$u7b$closure$u7d$$u7d$17h9a74aabaa7be348dE', symObjAddr: 0x84, symBinAddr: 0x2F5AC, symSize: 0x3C }
  - { offset: 0xE07AA, size: 0x8, addend: 0x0, symName: '__ZN4core4iter6traits8iterator8Iterator8for_each4call28_$u7b$$u7b$closure$u7d$$u7d$17ha4ce52247606191bE', symObjAddr: 0xC0, symBinAddr: 0x2F5E8, symSize: 0x40 }
  - { offset: 0xE0803, size: 0x8, addend: 0x0, symName: '__ZN4core4iter6traits8iterator8Iterator8for_each4call28_$u7b$$u7b$closure$u7d$$u7d$17hb586ccb0218fcb38E', symObjAddr: 0x100, symBinAddr: 0x2F628, symSize: 0x30 }
  - { offset: 0xE2FD2, size: 0x8, addend: 0x0, symName: '__ZN103_$LT$pyo3..instance..Bound$LT$pyo3..types..any..PyAny$GT$$u20$as$u20$pyo3..types..any..PyAnyMethods$GT$18downcast_unchecked17h252fa4aed45cfd22E', symObjAddr: 0x0, symBinAddr: 0x2F658, symSize: 0x74 }
  - { offset: 0xE37EE, size: 0x8, addend: 0x0, symName: '__ZN4core5slice29_$LT$impl$u20$$u5b$T$u5d$$GT$4iter17h1214ae6d59ad8fd3E', symObjAddr: 0x4FC, symBinAddr: 0x2FB54, symSize: 0x28 }
  - { offset: 0xE4F11, size: 0x8, addend: 0x0, symName: '__ZN50_$LT$T$u20$as$u20$core..convert..Into$LT$U$GT$$GT$4into17hfe6242bf678720d4E', symObjAddr: 0xA60, symBinAddr: 0x300B8, symSize: 0x1C }
  - { offset: 0xE4F79, size: 0x8, addend: 0x0, symName: '__ZN103_$LT$pyo3..instance..Bound$LT$pyo3..types..any..PyAny$GT$$u20$as$u20$pyo3..types..any..PyAnyMethods$GT$18downcast_unchecked17h252fa4aed45cfd22E', symObjAddr: 0x0, symBinAddr: 0x2F658, symSize: 0x74 }
  - { offset: 0xE4FB0, size: 0x8, addend: 0x0, symName: '__ZN103_$LT$pyo3..instance..Bound$LT$pyo3..types..any..PyAny$GT$$u20$as$u20$pyo3..types..any..PyAnyMethods$GT$18downcast_unchecked17h90806585792ac7a0E', symObjAddr: 0x74, symBinAddr: 0x2F6CC, symSize: 0x74 }
  - { offset: 0xE4FE7, size: 0x8, addend: 0x0, symName: '__ZN103_$LT$pyo3..instance..Bound$LT$pyo3..types..any..PyAny$GT$$u20$as$u20$pyo3..types..any..PyAnyMethods$GT$23downcast_into_unchecked17h6ec7215b0b9e6b77E', symObjAddr: 0xE8, symBinAddr: 0x2F740, symSize: 0x14 }
  - { offset: 0xE501E, size: 0x8, addend: 0x0, symName: '__ZN103_$LT$pyo3..instance..Bound$LT$pyo3..types..any..PyAny$GT$$u20$as$u20$pyo3..types..any..PyAnyMethods$GT$7extract17hbf62d29a04e6c0b3E', symObjAddr: 0xFC, symBinAddr: 0x2F754, symSize: 0x30 }
  - { offset: 0xE5055, size: 0x8, addend: 0x0, symName: '__ZN103_$LT$pyo3..instance..Bound$LT$pyo3..types..any..PyAny$GT$$u20$as$u20$pyo3..types..any..PyAnyMethods$GT$7extract17hd00b5445f0a3a711E', symObjAddr: 0x12C, symBinAddr: 0x2F784, symSize: 0x30 }
  - { offset: 0xE508C, size: 0x8, addend: 0x0, symName: '__ZN103_$LT$pyo3..instance..Bound$LT$pyo3..types..any..PyAny$GT$$u20$as$u20$pyo3..types..any..PyAnyMethods$GT$7extract17hda4ca5283f7ae089E', symObjAddr: 0x15C, symBinAddr: 0x2F7B4, symSize: 0x30 }
  - { offset: 0xE50C3, size: 0x8, addend: 0x0, symName: '__ZN103_$LT$pyo3..instance..Bound$LT$pyo3..types..any..PyAny$GT$$u20$as$u20$pyo3..types..any..PyAnyMethods$GT$7extract17he715681ee45022fdE', symObjAddr: 0x18C, symBinAddr: 0x2F7E4, symSize: 0x30 }
  - { offset: 0xE50FA, size: 0x8, addend: 0x0, symName: '__ZN103_$LT$pyo3..instance..Bound$LT$pyo3..types..any..PyAny$GT$$u20$as$u20$pyo3..types..any..PyAnyMethods$GT$8downcast17h1981c3e69b2a2019E', symObjAddr: 0x1BC, symBinAddr: 0x2F814, symSize: 0x84 }
  - { offset: 0xE5131, size: 0x8, addend: 0x0, symName: '__ZN103_$LT$pyo3..instance..Bound$LT$pyo3..types..any..PyAny$GT$$u20$as$u20$pyo3..types..any..PyAnyMethods$GT$8downcast17hd766d0817497e529E', symObjAddr: 0x240, symBinAddr: 0x2F898, symSize: 0x84 }
  - { offset: 0xE5189, size: 0x8, addend: 0x0, symName: '__ZN115_$LT$pyo3..instance..Bound$LT$pyo3..types..module..PyModule$GT$$u20$as$u20$pyo3..types..module..PyModuleMethods$GT$3add17hb085484f4edc52f0E', symObjAddr: 0x2C4, symBinAddr: 0x2F91C, symSize: 0x140 }
  - { offset: 0xE51FD, size: 0x8, addend: 0x0, symName: '__ZN115_$LT$pyo3..instance..Bound$LT$pyo3..types..module..PyModule$GT$$u20$as$u20$pyo3..types..module..PyModuleMethods$GT$9add_class17h15f91c1a91002ba7E', symObjAddr: 0x404, symBinAddr: 0x2FA5C, symSize: 0xA8 }
  - { offset: 0xE52FE, size: 0x8, addend: 0x0, symName: '__ZN132_$LT$pyo3..instance..Bound$LT$T$GT$$u20$as$u20$pyo3..conversion..IntoPy$LT$pyo3..instance..Py$LT$pyo3..types..any..PyAny$GT$$GT$$GT$7into_py17h2dd5fe6aa27cb5d8E', symObjAddr: 0x4AC, symBinAddr: 0x2FB04, symSize: 0x28 }
  - { offset: 0xE5356, size: 0x8, addend: 0x0, symName: '__ZN135_$LT$pyo3..instance..Borrowed$LT$T$GT$$u20$as$u20$pyo3..conversion..IntoPy$LT$pyo3..instance..Py$LT$pyo3..types..any..PyAny$GT$$GT$$GT$7into_py17he726da453e72520fE', symObjAddr: 0x4D4, symBinAddr: 0x2FB2C, symSize: 0x28 }
  - { offset: 0xE570E, size: 0x8, addend: 0x0, symName: '__ZN4pyo38instance39Borrowed$LT$pyo3..types..any..PyAny$GT$15from_ptr_or_opt28_$u7b$$u7b$closure$u7d$$u7d$17h6604d73a4a58bc77E', symObjAddr: 0x9DC, symBinAddr: 0x30034, symSize: 0x20 }
  - { offset: 0xE5932, size: 0x8, addend: 0x0, symName: '__ZN69_$LT$pyo3..instance..Bound$LT$T$GT$$u20$as$u20$core..clone..Clone$GT$5clone17h5e074db7927e159eE', symObjAddr: 0xAE4, symBinAddr: 0x3013C, symSize: 0x34 }
  - { offset: 0xE5969, size: 0x8, addend: 0x0, symName: '__ZN69_$LT$pyo3..instance..Bound$LT$T$GT$$u20$as$u20$core..clone..Clone$GT$5clone17hf8f05bb1233e7187E', symObjAddr: 0xB18, symBinAddr: 0x30170, symSize: 0x34 }
  - { offset: 0xE59A6, size: 0x8, addend: 0x0, symName: '__ZN77_$LT$pyo3..instance..Borrowed$LT$T$GT$$u20$as$u20$core..ops..deref..Deref$GT$5deref17h3ce7d61a42c1efe9E', symObjAddr: 0xB74, symBinAddr: 0x301CC, symSize: 0x74 }
  - { offset: 0xE59E3, size: 0x8, addend: 0x0, symName: '__ZN78_$LT$pyo3..instance..Py$LT$T$GT$$u20$as$u20$pyo3..conversion..FromPyObject$GT$13extract_bound17hf072f451bcecbc32E', symObjAddr: 0xBE8, symBinAddr: 0x30240, symSize: 0x3C }
  - { offset: 0xE5A20, size: 0x8, addend: 0x0, symName: '__ZN81_$LT$pyo3..instance..Bound$LT$T$GT$$u20$as$u20$pyo3..conversion..FromPyObject$GT$13extract_bound17hc50c71650e0bd80dE', symObjAddr: 0xC24, symBinAddr: 0x3027C, symSize: 0x4C }
  - { offset: 0xE5ABC, size: 0x8, addend: 0x0, symName: '__ZN4pyo35impl_9pymethods133_$LT$impl$u20$core..convert..From$LT$pyo3..impl_..pymethods..BoundRef$LT$T$GT$$GT$$u20$for$u20$$RF$pyo3..instance..Bound$LT$T$GT$$GT$4from17hda2d970ab2558c75E', symObjAddr: 0x524, symBinAddr: 0x2FB7C, symSize: 0x14 }
  - { offset: 0xE5B64, size: 0x8, addend: 0x0, symName: '__ZN71_$LT$T$u20$as$u20$pyo3..impl_..extract_argument..PyFunctionArgument$GT$7extract17h2ac3ede56a3fb396E', symObjAddr: 0xB4C, symBinAddr: 0x301A4, symSize: 0x28 }
  - { offset: 0xE5D32, size: 0x8, addend: 0x0, symName: '__ZN57_$LT$T$u20$as$u20$pyo3..conversion..FromPyObjectBound$GT$20from_py_object_bound17h030daa0ca07658a9E', symObjAddr: 0xA7C, symBinAddr: 0x300D4, symSize: 0x34 }
  - { offset: 0xE5D69, size: 0x8, addend: 0x0, symName: '__ZN57_$LT$T$u20$as$u20$pyo3..conversion..FromPyObjectBound$GT$20from_py_object_bound17h5b0617608cb075aeE', symObjAddr: 0xAB0, symBinAddr: 0x30108, symSize: 0x34 }
  - { offset: 0xE75AF, size: 0x8, addend: 0x0, symName: '__ZN4pyo38instance11Py$LT$T$GT$10into_bound17he7946cb37932837dE', symObjAddr: 0x538, symBinAddr: 0x2FB90, symSize: 0x1C }
  - { offset: 0xE75F6, size: 0x8, addend: 0x0, symName: '__ZN4pyo38instance11Py$LT$T$GT$13from_non_null17h97f71f782f4254f1E', symObjAddr: 0x554, symBinAddr: 0x2FBAC, symSize: 0x14 }
  - { offset: 0xE7622, size: 0x8, addend: 0x0, symName: '__ZN4pyo38instance11Py$LT$T$GT$13from_non_null17hef618ed6681a38deE', symObjAddr: 0x568, symBinAddr: 0x2FBC0, symSize: 0x14 }
  - { offset: 0xE7668, size: 0x8, addend: 0x0, symName: '__ZN4pyo38instance11Py$LT$T$GT$16get_class_object17h0c0a4eca28c7ff2dE', symObjAddr: 0x57C, symBinAddr: 0x2FBD4, symSize: 0x78 }
  - { offset: 0xE76AA, size: 0x8, addend: 0x0, symName: '__ZN4pyo38instance11Py$LT$T$GT$6as_ptr17h1ea232d50cc12ef5E', symObjAddr: 0x5F4, symBinAddr: 0x2FC4C, symSize: 0x1C }
  - { offset: 0xE76D6, size: 0x8, addend: 0x0, symName: '__ZN4pyo38instance11Py$LT$T$GT$8into_any17h778cb76bf8105b4cE', symObjAddr: 0x610, symBinAddr: 0x2FC68, symSize: 0x3C }
  - { offset: 0xE7702, size: 0x8, addend: 0x0, symName: '__ZN4pyo38instance11Py$LT$T$GT$8into_ptr17h680c5e4d86fb5951E', symObjAddr: 0x64C, symBinAddr: 0x2FCA4, symSize: 0x30 }
  - { offset: 0xE773B, size: 0x8, addend: 0x0, symName: '__ZN4pyo38instance11Py$LT$T$GT$9clone_ref17h152a4107664a67abE', symObjAddr: 0x67C, symBinAddr: 0x2FCD4, symSize: 0x100 }
  - { offset: 0xE77EA, size: 0x8, addend: 0x0, symName: '__ZN4pyo38instance11Py$LT$T$GT$9clone_ref17h4442f48c64406a96E', symObjAddr: 0x77C, symBinAddr: 0x2FDD4, symSize: 0x100 }
  - { offset: 0xE78A6, size: 0x8, addend: 0x0, symName: '__ZN4pyo38instance14Bound$LT$T$GT$10try_borrow17h32d6df51a3039befE', symObjAddr: 0x87C, symBinAddr: 0x2FED4, symSize: 0x24 }
  - { offset: 0xE78D2, size: 0x8, addend: 0x0, symName: '__ZN4pyo38instance14Bound$LT$T$GT$16get_class_object17haf1f7fbb111b04d5E', symObjAddr: 0x8A0, symBinAddr: 0x2FEF8, symSize: 0x2C }
  - { offset: 0xE78FE, size: 0x8, addend: 0x0, symName: '__ZN4pyo38instance14Bound$LT$T$GT$6as_ptr17h4d237c5ec3b04875E', symObjAddr: 0x8CC, symBinAddr: 0x2FF24, symSize: 0x2C }
  - { offset: 0xE792A, size: 0x8, addend: 0x0, symName: '__ZN4pyo38instance14Bound$LT$T$GT$6unbind17h745995f2c0e57c88E', symObjAddr: 0x8F8, symBinAddr: 0x2FF50, symSize: 0x48 }
  - { offset: 0xE7974, size: 0x8, addend: 0x0, symName: '__ZN4pyo38instance14Bound$LT$T$GT$8into_any17hb84f0d6965b7e372E', symObjAddr: 0x940, symBinAddr: 0x2FF98, symSize: 0x30 }
  - { offset: 0xE79A0, size: 0x8, addend: 0x0, symName: '__ZN4pyo38instance14Bound$LT$T$GT$8into_ptr17h07e9004954ea9fabE', symObjAddr: 0x970, symBinAddr: 0x2FFC8, symSize: 0x40 }
  - { offset: 0xE79CC, size: 0x8, addend: 0x0, symName: '__ZN4pyo38instance17Borrowed$LT$T$GT$8to_owned17h88a8f0716dbbb56fE', symObjAddr: 0x9B0, symBinAddr: 0x30008, symSize: 0x2C }
  - { offset: 0xE7A12, size: 0x8, addend: 0x0, symName: '__ZN4pyo38instance39Borrowed$LT$pyo3..types..any..PyAny$GT$18downcast_unchecked17h02b2972a86fbbe50E', symObjAddr: 0x9FC, symBinAddr: 0x30054, symSize: 0x14 }
  - { offset: 0xE7A4B, size: 0x8, addend: 0x0, symName: '__ZN4pyo38instance39Borrowed$LT$pyo3..types..any..PyAny$GT$18downcast_unchecked17h17f41fe688486626E', symObjAddr: 0xA10, symBinAddr: 0x30068, symSize: 0x14 }
  - { offset: 0xE7A77, size: 0x8, addend: 0x0, symName: '__ZN4pyo38instance39Borrowed$LT$pyo3..types..any..PyAny$GT$18downcast_unchecked17h2cbeaaf1a80e8bf9E', symObjAddr: 0xA24, symBinAddr: 0x3007C, symSize: 0x14 }
  - { offset: 0xE7AB0, size: 0x8, addend: 0x0, symName: '__ZN4pyo38internal8get_slot78_$LT$impl$u20$pyo3..instance..Bound$LT$pyo3..types..typeobject..PyType$GT$$GT$8get_slot17heba72fc2cbc58490E', symObjAddr: 0xA38, symBinAddr: 0x30090, symSize: 0x28 }
  - { offset: 0xE7C0B, size: 0x8, addend: 0x0, symName: __ZN4core5alloc6layout6Layout25from_size_align_unchecked18precondition_check17h3681d18439525659E, symObjAddr: 0x0, symBinAddr: 0x302C8, symSize: 0xBC }
  - { offset: 0xE7F37, size: 0x8, addend: 0x0, symName: __ZN4core5alloc6layout6Layout25from_size_align_unchecked18precondition_check17h3681d18439525659E, symObjAddr: 0x0, symBinAddr: 0x302C8, symSize: 0xBC }
  - { offset: 0xE8147, size: 0x8, addend: 0x0, symName: __ZN8pyo3_ffi7cpython11tupleobject16PyTuple_SET_ITEM17h3a52ba013f9fb83aE, symObjAddr: 0x0, symBinAddr: 0x30384, symSize: 0x118 }
  - { offset: 0xE8729, size: 0x8, addend: 0x0, symName: __ZN8pyo3_ffi7cpython11tupleobject16PyTuple_SET_ITEM17h3a52ba013f9fb83aE, symObjAddr: 0x0, symBinAddr: 0x30384, symSize: 0x118 }
  - { offset: 0xE96EB, size: 0x8, addend: 0x0, symName: '__ZN9rust_core162_$LT$impl$u20$pyo3..impl_..pyclass..PyMethods$LT$rust_core..RustSystem$GT$$u20$for$u20$pyo3..impl_..pyclass..PyClassImplCollector$LT$rust_core..RustSystem$GT$$GT$10py_methods17h9eb87b40a456f70cE', symObjAddr: 0x0, symBinAddr: 0x3049C, symSize: 0x14 }
  - { offset: 0xEB128, size: 0x8, addend: 0x0, symName: '__ZN9rust_core162_$LT$impl$u20$pyo3..impl_..pyclass..PyMethods$LT$rust_core..RustSystem$GT$$u20$for$u20$pyo3..impl_..pyclass..PyClassImplCollector$LT$rust_core..RustSystem$GT$$GT$10py_methods17h9eb87b40a456f70cE', symObjAddr: 0x0, symBinAddr: 0x3049C, symSize: 0x14 }
  - { offset: 0xEB173, size: 0x8, addend: 0x0, symName: '__ZN9rust_core162_$LT$impl$u20$pyo3..impl_..pyclass..PyMethods$LT$rust_core..RustSystem$GT$$u20$for$u20$pyo3..impl_..pyclass..PyClassImplCollector$LT$rust_core..RustSystem$GT$$GT$10py_methods5ITEMS10trampoline176_$LT$impl$u20$pyo3..impl_..pyclass..PyClassNewTextSignature$LT$rust_core..RustSystem$GT$$u20$for$u20$pyo3..impl_..pyclass..PyClassImplCollector$LT$rust_core..RustSystem$GT$$GT$18new_text_signature17h7d4791ecfb8d44f0E', symObjAddr: 0x14, symBinAddr: 0x304B0, symSize: 0x1C }
  - { offset: 0xECE86, size: 0x8, addend: 0x0, symName: '__ZN59_$LT$alloc..alloc..Global$u20$as$u20$core..clone..Clone$GT$5clone17ha038f23c77292cbbE', symObjAddr: 0x0, symBinAddr: 0x304CC, symSize: 0x10 }
  - { offset: 0xED789, size: 0x8, addend: 0x0, symName: '__ZN59_$LT$alloc..alloc..Global$u20$as$u20$core..clone..Clone$GT$5clone17ha038f23c77292cbbE', symObjAddr: 0x0, symBinAddr: 0x304CC, symSize: 0x10 }
  - { offset: 0xED7B2, size: 0x8, addend: 0x0, symName: __ZN5alloc5alloc12alloc_zeroed17hade9116686a71266E, symObjAddr: 0x10, symBinAddr: 0x304DC, symSize: 0x48 }
  - { offset: 0xED845, size: 0x8, addend: 0x0, symName: '__ZN63_$LT$alloc..alloc..Global$u20$as$u20$core..alloc..Allocator$GT$10deallocate17h4e67be8cb52f7e69E', symObjAddr: 0x300, symBinAddr: 0x307CC, symSize: 0x80 }
  - { offset: 0xED935, size: 0x8, addend: 0x0, symName: __ZN5alloc5alloc15exchange_malloc17h6ebe7fde4d313211E, symObjAddr: 0x58, symBinAddr: 0x30524, symSize: 0xAC }
  - { offset: 0xEDC72, size: 0x8, addend: 0x0, symName: __ZN5alloc5alloc6Global10alloc_impl17hc32e27520753b745E, symObjAddr: 0x104, symBinAddr: 0x305D0, symSize: 0x1FC }
  - { offset: 0xEE062, size: 0x8, addend: 0x0, symName: __ZN16parking_lot_core11parking_lot8deadlock16acquire_resource17hc02ba3507f8356ebE, symObjAddr: 0x0, symBinAddr: 0x3084C, symSize: 0x10 }
  - { offset: 0xEE07E, size: 0x8, addend: 0x0, symName: __ZN16parking_lot_core11parking_lot8deadlock16acquire_resource17hc02ba3507f8356ebE, symObjAddr: 0x0, symBinAddr: 0x3084C, symSize: 0x10 }
  - { offset: 0xEE0A8, size: 0x8, addend: 0x0, symName: __ZN16parking_lot_core11parking_lot8deadlock16release_resource17h324e79bdb265afa5E, symObjAddr: 0x10, symBinAddr: 0x3085C, symSize: 0x10 }
  - { offset: 0xEE0FA, size: 0x8, addend: 0x0, symName: '__ZN5alloc5boxed12Box$LT$T$GT$8from_raw17h0575f277d930acb6E', symObjAddr: 0x0, symBinAddr: 0x3086C, symSize: 0x3C }
  - { offset: 0xF1ABB, size: 0x8, addend: 0x0, symName: '__ZN5alloc5boxed12Box$LT$T$GT$8from_raw17h0575f277d930acb6E', symObjAddr: 0x0, symBinAddr: 0x3086C, symSize: 0x3C }
  - { offset: 0xF1B53, size: 0x8, addend: 0x0, symName: '__ZN5alloc5boxed12Box$LT$T$GT$8from_raw17h0930a69973fc5cfaE', symObjAddr: 0x3C, symBinAddr: 0x308A8, symSize: 0x3C }
  - { offset: 0xF1BEB, size: 0x8, addend: 0x0, symName: '__ZN5alloc5boxed12Box$LT$T$GT$8from_raw17h135c061fd8e7dd03E', symObjAddr: 0x78, symBinAddr: 0x308E4, symSize: 0x3C }
  - { offset: 0xF1C83, size: 0x8, addend: 0x0, symName: '__ZN5alloc5boxed12Box$LT$T$GT$8from_raw17h273b886c8640f3feE', symObjAddr: 0xB4, symBinAddr: 0x30920, symSize: 0x3C }
  - { offset: 0xF1D1B, size: 0x8, addend: 0x0, symName: '__ZN5alloc5boxed12Box$LT$T$GT$8from_raw17h30fdbd59dc8da385E', symObjAddr: 0xF0, symBinAddr: 0x3095C, symSize: 0x3C }
  - { offset: 0xF1DB3, size: 0x8, addend: 0x0, symName: '__ZN5alloc5boxed12Box$LT$T$GT$8from_raw17h471531eac8479f58E', symObjAddr: 0x12C, symBinAddr: 0x30998, symSize: 0x3C }
  - { offset: 0xF1E4B, size: 0x8, addend: 0x0, symName: '__ZN5alloc5boxed12Box$LT$T$GT$8from_raw17h4f02900bc9807445E', symObjAddr: 0x168, symBinAddr: 0x309D4, symSize: 0x3C }
  - { offset: 0xF1EE3, size: 0x8, addend: 0x0, symName: '__ZN5alloc5boxed12Box$LT$T$GT$8from_raw17h54df5b105d78b44bE', symObjAddr: 0x1A4, symBinAddr: 0x30A10, symSize: 0x3C }
  - { offset: 0xF1F7B, size: 0x8, addend: 0x0, symName: '__ZN5alloc5boxed12Box$LT$T$GT$8from_raw17h709238adffa5ca50E', symObjAddr: 0x1E0, symBinAddr: 0x30A4C, symSize: 0x3C }
  - { offset: 0xF2013, size: 0x8, addend: 0x0, symName: '__ZN5alloc5boxed12Box$LT$T$GT$8from_raw17h8f965b9a7a77067fE', symObjAddr: 0x21C, symBinAddr: 0x30A88, symSize: 0x3C }
  - { offset: 0xF20AB, size: 0x8, addend: 0x0, symName: '__ZN5alloc5boxed12Box$LT$T$GT$8from_raw17h9e7a8c785fca8658E', symObjAddr: 0x258, symBinAddr: 0x30AC4, symSize: 0x3C }
  - { offset: 0xF2143, size: 0x8, addend: 0x0, symName: '__ZN5alloc5boxed12Box$LT$T$GT$8from_raw17hbb8b2e1eed2fcc85E', symObjAddr: 0x294, symBinAddr: 0x30B00, symSize: 0x3C }
  - { offset: 0xF21DB, size: 0x8, addend: 0x0, symName: '__ZN5alloc5boxed12Box$LT$T$GT$8from_raw17hce4ffdf9ebbc17a2E', symObjAddr: 0x2D0, symBinAddr: 0x30B3C, symSize: 0x3C }
  - { offset: 0xF2273, size: 0x8, addend: 0x0, symName: '__ZN5alloc5boxed12Box$LT$T$GT$8from_raw17hd0e628bc87d5332aE', symObjAddr: 0x30C, symBinAddr: 0x30B78, symSize: 0x3C }
  - { offset: 0xF230B, size: 0x8, addend: 0x0, symName: '__ZN5alloc5boxed12Box$LT$T$GT$8from_raw17hd530b526ab1cb17bE', symObjAddr: 0x348, symBinAddr: 0x30BB4, symSize: 0x3C }
  - { offset: 0xF23A3, size: 0x8, addend: 0x0, symName: '__ZN5alloc5boxed12Box$LT$T$GT$8into_raw17h388d83b2105c09ebE', symObjAddr: 0x384, symBinAddr: 0x30BF0, symSize: 0x14 }
  - { offset: 0xF23DA, size: 0x8, addend: 0x0, symName: '__ZN5alloc5boxed12Box$LT$T$GT$8into_raw17h428f004f953d2ee6E', symObjAddr: 0x398, symBinAddr: 0x30C04, symSize: 0x14 }
  - { offset: 0xF2411, size: 0x8, addend: 0x0, symName: '__ZN5alloc5boxed12Box$LT$T$GT$8into_raw17h5b205004f049487dE', symObjAddr: 0x3AC, symBinAddr: 0x30C18, symSize: 0x14 }
  - { offset: 0xF2448, size: 0x8, addend: 0x0, symName: '__ZN5alloc5boxed12Box$LT$T$GT$8into_raw17h7aee48661a9b8f4eE', symObjAddr: 0x3C0, symBinAddr: 0x30C2C, symSize: 0x14 }
  - { offset: 0xF247F, size: 0x8, addend: 0x0, symName: '__ZN5alloc5boxed12Box$LT$T$GT$8into_raw17h7eccb1f02fd1f9fbE', symObjAddr: 0x3D4, symBinAddr: 0x30C40, symSize: 0x14 }
  - { offset: 0xF24B6, size: 0x8, addend: 0x0, symName: '__ZN5alloc5boxed12Box$LT$T$GT$8into_raw17h85436886624dc30eE', symObjAddr: 0x3E8, symBinAddr: 0x30C54, symSize: 0x14 }
  - { offset: 0xF24ED, size: 0x8, addend: 0x0, symName: '__ZN5alloc5boxed12Box$LT$T$GT$8into_raw17haa2fffe36bcd1f22E', symObjAddr: 0x3FC, symBinAddr: 0x30C68, symSize: 0x14 }
  - { offset: 0xF2524, size: 0x8, addend: 0x0, symName: '__ZN5alloc5boxed12Box$LT$T$GT$8into_raw17haf7230c5293d24e5E', symObjAddr: 0x410, symBinAddr: 0x30C7C, symSize: 0x14 }
  - { offset: 0xF2566, size: 0x8, addend: 0x0, symName: '__ZN5alloc5boxed4iter117_$LT$impl$u20$core..iter..traits..collect..FromIterator$LT$I$GT$$u20$for$u20$alloc..boxed..Box$LT$$u5b$I$u5d$$GT$$GT$9from_iter17ha39244217d01f763E', symObjAddr: 0x424, symBinAddr: 0x30C90, symSize: 0x40 }
  - { offset: 0xF25A4, size: 0x8, addend: 0x0, symName: '__ZN5alloc5boxed4iter117_$LT$impl$u20$core..iter..traits..collect..FromIterator$LT$I$GT$$u20$for$u20$alloc..boxed..Box$LT$$u5b$I$u5d$$GT$$GT$9from_iter17hb7a2519574b1bf82E', symObjAddr: 0x464, symBinAddr: 0x30CD0, symSize: 0x40 }
  - { offset: 0xF25E2, size: 0x8, addend: 0x0, symName: '__ZN5alloc5boxed4iter117_$LT$impl$u20$core..iter..traits..collect..FromIterator$LT$I$GT$$u20$for$u20$alloc..boxed..Box$LT$$u5b$I$u5d$$GT$$GT$9from_iter17hc117516ff0a96da0E', symObjAddr: 0x4A4, symBinAddr: 0x30D10, symSize: 0x40 }
  - { offset: 0xF2D96, size: 0x8, addend: 0x0, symName: '__ZN109_$LT$pyo3..types..dict..borrowed_iter..BorrowedDictIter$u20$as$u20$core..iter..traits..iterator..Iterator$GT$4next17h540186931c824dc9E', symObjAddr: 0x0, symBinAddr: 0x30D50, symSize: 0xE4 }
  - { offset: 0xF3F6F, size: 0x8, addend: 0x0, symName: '__ZN109_$LT$pyo3..types..dict..borrowed_iter..BorrowedDictIter$u20$as$u20$core..iter..traits..iterator..Iterator$GT$4next17h540186931c824dc9E', symObjAddr: 0x0, symBinAddr: 0x30D50, symSize: 0xE4 }
  - { offset: 0xF4690, size: 0x8, addend: 0x0, symName: __ZN15crossbeam_utils6atomic8seq_lock17SeqLockWriteGuard5abort17h70441839880b712bE, symObjAddr: 0x0, symBinAddr: 0x30E34, symSize: 0x88 }
  - { offset: 0xF4858, size: 0x8, addend: 0x0, symName: __ZN15crossbeam_utils6atomic8seq_lock17SeqLockWriteGuard5abort17h70441839880b712bE, symObjAddr: 0x0, symBinAddr: 0x30E34, symSize: 0x88 }
  - { offset: 0xF4881, size: 0x8, addend: 0x0, symName: __ZN15crossbeam_utils6atomic8seq_lock7SeqLock13validate_read17h295c31ae1820362fE, symObjAddr: 0x88, symBinAddr: 0x30EBC, symSize: 0x48 }
  - { offset: 0xF48B8, size: 0x8, addend: 0x0, symName: __ZN15crossbeam_utils6atomic8seq_lock7SeqLock15optimistic_read17h1c4d42c647996b48E, symObjAddr: 0xD0, symBinAddr: 0x30F04, symSize: 0x60 }
  - { offset: 0xF48F7, size: 0x8, addend: 0x0, symName: __ZN15crossbeam_utils6atomic8seq_lock7SeqLock5write17hcb46ea7f2f865723E, symObjAddr: 0x130, symBinAddr: 0x30F64, symSize: 0x78 }
  - { offset: 0xF4978, size: 0x8, addend: 0x0, symName: __ZN4core3mem10needs_drop17h672f88b742906abeE, symObjAddr: 0x0, symBinAddr: 0x30FDC, symSize: 0xC }
  - { offset: 0xF5132, size: 0x8, addend: 0x0, symName: __ZN4core3mem10needs_drop17h672f88b742906abeE, symObjAddr: 0x0, symBinAddr: 0x30FDC, symSize: 0xC }
  - { offset: 0xF515A, size: 0x8, addend: 0x0, symName: __ZN4core3mem10needs_drop17h9c3b5e5e9fb0acc6E, symObjAddr: 0xC, symBinAddr: 0x30FE8, symSize: 0xC }
  - { offset: 0xF5182, size: 0x8, addend: 0x0, symName: __ZN4core3mem10needs_drop17hce83eaa6423b2c70E, symObjAddr: 0x18, symBinAddr: 0x30FF4, symSize: 0xC }
  - { offset: 0xF51AA, size: 0x8, addend: 0x0, symName: __ZN4core3mem14transmute_copy17h0d96b5ff82ccaa6dE, symObjAddr: 0x24, symBinAddr: 0x31000, symSize: 0x6C }
  - { offset: 0xF5200, size: 0x8, addend: 0x0, symName: __ZN4core3mem14transmute_copy17h264fea2a3a531bf5E, symObjAddr: 0x90, symBinAddr: 0x3106C, symSize: 0x6C }
  - { offset: 0xF5256, size: 0x8, addend: 0x0, symName: __ZN4core3mem14transmute_copy17h2a0a9d58db18c91bE, symObjAddr: 0xFC, symBinAddr: 0x310D8, symSize: 0x44 }
  - { offset: 0xF52D5, size: 0x8, addend: 0x0, symName: __ZN4core3mem14transmute_copy17h4df528bbf36dfe0fE, symObjAddr: 0x140, symBinAddr: 0x3111C, symSize: 0x44 }
  - { offset: 0xF5354, size: 0x8, addend: 0x0, symName: __ZN4core3mem14transmute_copy17h5800b236a1df1bbcE, symObjAddr: 0x184, symBinAddr: 0x31160, symSize: 0x6C }
  - { offset: 0xF53AA, size: 0x8, addend: 0x0, symName: __ZN4core3mem14transmute_copy17h6a0ac81974d5580bE, symObjAddr: 0x1F0, symBinAddr: 0x311CC, symSize: 0x34 }
  - { offset: 0xF5405, size: 0x8, addend: 0x0, symName: __ZN4core3mem14transmute_copy17h7355ad038e18fb35E, symObjAddr: 0x224, symBinAddr: 0x31200, symSize: 0x48 }
  - { offset: 0xF5484, size: 0x8, addend: 0x0, symName: __ZN4core3mem14transmute_copy17h866bb6231e39c94dE, symObjAddr: 0x26C, symBinAddr: 0x31248, symSize: 0x44 }
  - { offset: 0xF5503, size: 0x8, addend: 0x0, symName: __ZN4core3mem14transmute_copy17hab33998748842d22E, symObjAddr: 0x2B0, symBinAddr: 0x3128C, symSize: 0x6C }
  - { offset: 0xF5559, size: 0x8, addend: 0x0, symName: __ZN4core3mem14transmute_copy17he3fe492eb9a7d1f0E, symObjAddr: 0x31C, symBinAddr: 0x312F8, symSize: 0x6C }
  - { offset: 0xF55AF, size: 0x8, addend: 0x0, symName: __ZN4core3mem14transmute_copy17he7c53cb45128d749E, symObjAddr: 0x388, symBinAddr: 0x31364, symSize: 0x6C }
  - { offset: 0xF5605, size: 0x8, addend: 0x0, symName: __ZN4core3mem14transmute_copy17hf4d6a6dbb1f2b353E, symObjAddr: 0x3F4, symBinAddr: 0x313D0, symSize: 0x44 }
  - { offset: 0xF5684, size: 0x8, addend: 0x0, symName: __ZN4core3mem14transmute_copy17hff0dcc2d05d17ff5E, symObjAddr: 0x438, symBinAddr: 0x31414, symSize: 0x6C }
  - { offset: 0xF56DA, size: 0x8, addend: 0x0, symName: __ZN4core3mem4drop17h010115c85939bb82E, symObjAddr: 0x4A4, symBinAddr: 0x31480, symSize: 0x28 }
  - { offset: 0xF570D, size: 0x8, addend: 0x0, symName: __ZN4core3mem4drop17h23ca4ccbe39f00a4E, symObjAddr: 0x4CC, symBinAddr: 0x314A8, symSize: 0x28 }
  - { offset: 0xF5740, size: 0x8, addend: 0x0, symName: __ZN4core3mem4drop17h3a0cccd50ac08b07E, symObjAddr: 0x4F4, symBinAddr: 0x314D0, symSize: 0x28 }
  - { offset: 0xF5773, size: 0x8, addend: 0x0, symName: __ZN4core3mem4drop17h3ef63e82a1965831E, symObjAddr: 0x51C, symBinAddr: 0x314F8, symSize: 0x28 }
  - { offset: 0xF57A6, size: 0x8, addend: 0x0, symName: __ZN4core3mem4drop17h49bbebbd0cc52263E, symObjAddr: 0x544, symBinAddr: 0x31520, symSize: 0x28 }
  - { offset: 0xF57D9, size: 0x8, addend: 0x0, symName: __ZN4core3mem4drop17h5a5993e24882858cE, symObjAddr: 0x56C, symBinAddr: 0x31548, symSize: 0x28 }
  - { offset: 0xF580C, size: 0x8, addend: 0x0, symName: __ZN4core3mem4drop17h73e63a4ffa3ba54eE, symObjAddr: 0x594, symBinAddr: 0x31570, symSize: 0x28 }
  - { offset: 0xF583F, size: 0x8, addend: 0x0, symName: __ZN4core3mem4drop17h758b278b3e2f02acE, symObjAddr: 0x5BC, symBinAddr: 0x31598, symSize: 0x2C }
  - { offset: 0xF5872, size: 0x8, addend: 0x0, symName: __ZN4core3mem4drop17h79c1d47c31ba678fE, symObjAddr: 0x5E8, symBinAddr: 0x315C4, symSize: 0x28 }
  - { offset: 0xF58A5, size: 0x8, addend: 0x0, symName: __ZN4core3mem4drop17h8c732aa22c55a6f3E, symObjAddr: 0x610, symBinAddr: 0x315EC, symSize: 0x2C }
  - { offset: 0xF58D8, size: 0x8, addend: 0x0, symName: __ZN4core3mem4drop17h98c057cee15ab4fcE, symObjAddr: 0x63C, symBinAddr: 0x31618, symSize: 0x28 }
  - { offset: 0xF590B, size: 0x8, addend: 0x0, symName: __ZN4core3mem4drop17h9b40991fb7f16bbeE, symObjAddr: 0x664, symBinAddr: 0x31640, symSize: 0x28 }
  - { offset: 0xF593E, size: 0x8, addend: 0x0, symName: __ZN4core3mem4drop17haa5e7c683b4feae4E, symObjAddr: 0x68C, symBinAddr: 0x31668, symSize: 0x28 }
  - { offset: 0xF5971, size: 0x8, addend: 0x0, symName: __ZN4core3mem4drop17hb497397e419f8047E, symObjAddr: 0x6B4, symBinAddr: 0x31690, symSize: 0x28 }
  - { offset: 0xF59A4, size: 0x8, addend: 0x0, symName: __ZN4core3mem4drop17hb84748a485a8ba7fE, symObjAddr: 0x6DC, symBinAddr: 0x316B8, symSize: 0x28 }
  - { offset: 0xF59D7, size: 0x8, addend: 0x0, symName: __ZN4core3mem4drop17hbec6e70ff0a7ce15E, symObjAddr: 0x704, symBinAddr: 0x316E0, symSize: 0x28 }
  - { offset: 0xF5A0A, size: 0x8, addend: 0x0, symName: __ZN4core3mem4drop17hc3ffe1029648866cE, symObjAddr: 0x72C, symBinAddr: 0x31708, symSize: 0x28 }
  - { offset: 0xF5A3D, size: 0x8, addend: 0x0, symName: __ZN4core3mem4drop17hc7bfd6c79d1a3e8aE, symObjAddr: 0x754, symBinAddr: 0x31730, symSize: 0x28 }
  - { offset: 0xF5A70, size: 0x8, addend: 0x0, symName: __ZN4core3mem6forget17h3093545b062fe749E, symObjAddr: 0x77C, symBinAddr: 0x31758, symSize: 0x14 }
  - { offset: 0xF91DE, size: 0x8, addend: 0x0, symName: '__ZN4core5slice29_$LT$impl$u20$$u5b$T$u5d$$GT$18split_at_unchecked18precondition_check17h47faf6e1f006b4a9E', symObjAddr: 0x0, symBinAddr: 0x3176C, symSize: 0xAC }
  - { offset: 0xF9505, size: 0x8, addend: 0x0, symName: '__ZN4core5slice29_$LT$impl$u20$$u5b$T$u5d$$GT$18split_at_unchecked18precondition_check17h47faf6e1f006b4a9E', symObjAddr: 0x0, symBinAddr: 0x3176C, symSize: 0xAC }
  - { offset: 0xF9714, size: 0x8, addend: 0x0, symName: __ZN4core9ub_checks23maybe_is_nonoverlapping7runtime17h50af7527976d56cfE, symObjAddr: 0x0, symBinAddr: 0x31818, symSize: 0xD8 }
  - { offset: 0xF9899, size: 0x8, addend: 0x0, symName: __ZN4core9ub_checks23maybe_is_nonoverlapping7runtime17h50af7527976d56cfE, symObjAddr: 0x0, symBinAddr: 0x31818, symSize: 0xD8 }
  - { offset: 0xF9AAC, size: 0x8, addend: 0x0, symName: __ZN3std4sync6poison4Flag4done17hce86f97823c808dfE, symObjAddr: 0x0, symBinAddr: 0x318F0, symSize: 0xA4 }
  - { offset: 0xF9DE1, size: 0x8, addend: 0x0, symName: __ZN3std4sync6poison4Flag4done17hce86f97823c808dfE, symObjAddr: 0x0, symBinAddr: 0x318F0, symSize: 0xA4 }
  - { offset: 0xF9ECF, size: 0x8, addend: 0x0, symName: __ZN3std4sync6poison4Flag5guard17h18df945e8092bb7eE, symObjAddr: 0xA4, symBinAddr: 0x31994, symSize: 0xE4 }
  - { offset: 0xF9F9D, size: 0x8, addend: 0x0, symName: '__ZN102_$LT$core..iter..adapters..map..Map$LT$I$C$F$GT$$u20$as$u20$core..iter..traits..iterator..Iterator$GT$4fold17h4dff8089734c234dE', symObjAddr: 0x0, symBinAddr: 0x31A78, symSize: 0x3C }
  - { offset: 0xFA814, size: 0x8, addend: 0x0, symName: '__ZN4core4iter8adapters3map8map_fold28_$u7b$$u7b$closure$u7d$$u7d$17hb2dc1bb853b72cb8E', symObjAddr: 0x3FC, symBinAddr: 0x31E74, symSize: 0x80 }
  - { offset: 0xFA899, size: 0x8, addend: 0x0, symName: '__ZN4core4iter8adapters3map8map_fold28_$u7b$$u7b$closure$u7d$$u7d$17hf1aa84970f60e632E', symObjAddr: 0x47C, symBinAddr: 0x31EF4, symSize: 0x90 }
  - { offset: 0xFA91E, size: 0x8, addend: 0x0, symName: '__ZN4core4iter8adapters3map8map_fold28_$u7b$$u7b$closure$u7d$$u7d$17hf8d84debc9476f27E', symObjAddr: 0x50C, symBinAddr: 0x31F84, symSize: 0x88 }
  - { offset: 0xFA9A9, size: 0x8, addend: 0x0, symName: '__ZN102_$LT$core..iter..adapters..map..Map$LT$I$C$F$GT$$u20$as$u20$core..iter..traits..iterator..Iterator$GT$4fold17h4dff8089734c234dE', symObjAddr: 0x0, symBinAddr: 0x31A78, symSize: 0x3C }
  - { offset: 0xFAA41, size: 0x8, addend: 0x0, symName: '__ZN102_$LT$core..iter..adapters..map..Map$LT$I$C$F$GT$$u20$as$u20$core..iter..traits..iterator..Iterator$GT$4fold17h866120c5458a47e6E', symObjAddr: 0x3C, symBinAddr: 0x31AB4, symSize: 0x3C }
  - { offset: 0xFAAD9, size: 0x8, addend: 0x0, symName: '__ZN102_$LT$core..iter..adapters..map..Map$LT$I$C$F$GT$$u20$as$u20$core..iter..traits..iterator..Iterator$GT$4fold17h99a06e90ab2680a7E', symObjAddr: 0x78, symBinAddr: 0x31AF0, symSize: 0x3C }
  - { offset: 0xFAB71, size: 0x8, addend: 0x0, symName: '__ZN102_$LT$core..iter..adapters..map..Map$LT$I$C$F$GT$$u20$as$u20$core..iter..traits..iterator..Iterator$GT$9size_hint17h52156a41609849f8E', symObjAddr: 0xB4, symBinAddr: 0x31B2C, symSize: 0x24 }
  - { offset: 0xFABB8, size: 0x8, addend: 0x0, symName: '__ZN102_$LT$core..iter..adapters..map..Map$LT$I$C$F$GT$$u20$as$u20$core..iter..traits..iterator..Iterator$GT$9size_hint17hddf2c43a9a196a74E', symObjAddr: 0xD8, symBinAddr: 0x31B50, symSize: 0x24 }
  - { offset: 0xFABFF, size: 0x8, addend: 0x0, symName: '__ZN102_$LT$core..iter..adapters..map..Map$LT$I$C$F$GT$$u20$as$u20$core..iter..traits..iterator..Iterator$GT$9size_hint17he8f102950db665e9E', symObjAddr: 0xFC, symBinAddr: 0x31B74, symSize: 0x24 }
  - { offset: 0xFAE6E, size: 0x8, addend: 0x0, symName: __ZN4core4iter6traits8iterator8Iterator7collect17h22c553a7479f293bE, symObjAddr: 0x120, symBinAddr: 0x31B98, symSize: 0x58 }
  - { offset: 0xFAF03, size: 0x8, addend: 0x0, symName: __ZN4core4iter6traits8iterator8Iterator7collect17h5c6ea4400271a041E, symObjAddr: 0x178, symBinAddr: 0x31BF0, symSize: 0x58 }
  - { offset: 0xFAF98, size: 0x8, addend: 0x0, symName: __ZN4core4iter6traits8iterator8Iterator7collect17h9609cb25683ca021E, symObjAddr: 0x1D0, symBinAddr: 0x31C48, symSize: 0x60 }
  - { offset: 0xFB02D, size: 0x8, addend: 0x0, symName: __ZN4core4iter6traits8iterator8Iterator7collect17he1f6502a61f97807E, symObjAddr: 0x230, symBinAddr: 0x31CA8, symSize: 0x58 }
  - { offset: 0xFB0C2, size: 0x8, addend: 0x0, symName: __ZN4core4iter6traits8iterator8Iterator7collect17he35252083956c102E, symObjAddr: 0x288, symBinAddr: 0x31D00, symSize: 0x60 }
  - { offset: 0xFB157, size: 0x8, addend: 0x0, symName: __ZN4core4iter6traits8iterator8Iterator7collect17hf7098ac7d251f338E, symObjAddr: 0x2E8, symBinAddr: 0x31D60, symSize: 0x60 }
  - { offset: 0xFB1EC, size: 0x8, addend: 0x0, symName: __ZN4core4iter6traits8iterator8Iterator8for_each17h72a2bae436d07187E, symObjAddr: 0x348, symBinAddr: 0x31DC0, symSize: 0x3C }
  - { offset: 0xFB257, size: 0x8, addend: 0x0, symName: __ZN4core4iter6traits8iterator8Iterator8for_each17h8003f692f6362bb4E, symObjAddr: 0x384, symBinAddr: 0x31DFC, symSize: 0x3C }
  - { offset: 0xFB2C2, size: 0x8, addend: 0x0, symName: __ZN4core4iter6traits8iterator8Iterator8for_each17hf138e83c34636cacE, symObjAddr: 0x3C0, symBinAddr: 0x31E38, symSize: 0x3C }
  - { offset: 0xFB339, size: 0x8, addend: 0x0, symName: '__ZN63_$LT$I$u20$as$u20$core..iter..traits..collect..IntoIterator$GT$9into_iter17h0b7e21dcba3c93bfE', symObjAddr: 0x594, symBinAddr: 0x3200C, symSize: 0x14 }
  - { offset: 0xFB370, size: 0x8, addend: 0x0, symName: '__ZN63_$LT$I$u20$as$u20$core..iter..traits..collect..IntoIterator$GT$9into_iter17h1c26aed0fdf4c4efE', symObjAddr: 0x5A8, symBinAddr: 0x32020, symSize: 0x14 }
  - { offset: 0xFB3A7, size: 0x8, addend: 0x0, symName: '__ZN63_$LT$I$u20$as$u20$core..iter..traits..collect..IntoIterator$GT$9into_iter17h2858eedac5ae6954E', symObjAddr: 0x5BC, symBinAddr: 0x32034, symSize: 0x14 }
  - { offset: 0xFDAA0, size: 0x8, addend: 0x0, symName: '__ZN3std11collections4hash3map20HashMap$LT$K$C$V$GT$3new17h67a445d0d8b698c8E', symObjAddr: 0x0, symBinAddr: 0x32048, symSize: 0x7C }
  - { offset: 0x100AB6, size: 0x8, addend: 0x0, symName: '__ZN3std11collections4hash3map20HashMap$LT$K$C$V$GT$3new17h67a445d0d8b698c8E', symObjAddr: 0x0, symBinAddr: 0x32048, symSize: 0x7C }
  - { offset: 0x100BF4, size: 0x8, addend: 0x0, symName: '__ZN3std11collections4hash3map24HashMap$LT$K$C$V$C$S$GT$3get17h9f273067eb569eb4E', symObjAddr: 0x7C, symBinAddr: 0x320C4, symSize: 0x70 }
  - { offset: 0x100C97, size: 0x8, addend: 0x0, symName: '__ZN3std11collections4hash3map24HashMap$LT$K$C$V$C$S$GT$6insert17hba34d26d18bda559E', symObjAddr: 0xEC, symBinAddr: 0x32134, symSize: 0x2C }
  - { offset: 0x100CF4, size: 0x8, addend: 0x0, symName: '__ZN3std11collections4hash3map24HashMap$LT$K$C$V$C$S$GT$6remove17h09af7cbf2ef4b12cE', symObjAddr: 0x118, symBinAddr: 0x32160, symSize: 0x2C }
  - { offset: 0x100D68, size: 0x8, addend: 0x0, symName: __ZN15crossbeam_utils6atomic11atomic_cell11atomic_load17h0cf71146032bd58cE, symObjAddr: 0x0, symBinAddr: 0x3218C, symSize: 0x42C }
  - { offset: 0x101204, size: 0x8, addend: 0x0, symName: __ZN15crossbeam_utils6atomic11atomic_cell11atomic_load17h0cf71146032bd58cE, symObjAddr: 0x0, symBinAddr: 0x3218C, symSize: 0x42C }
  - { offset: 0x1013A1, size: 0x8, addend: 0x0, symName: __ZN15crossbeam_utils6atomic11atomic_cell13can_transmute17h6c548f93ad8ef206E, symObjAddr: 0x42C, symBinAddr: 0x325B8, symSize: 0xC }
  - { offset: 0x1013D2, size: 0x8, addend: 0x0, symName: __ZN15crossbeam_utils6atomic11atomic_cell13can_transmute17hc2a0eaafe61addb1E, symObjAddr: 0x438, symBinAddr: 0x325C4, symSize: 0xC }
  - { offset: 0x101403, size: 0x8, addend: 0x0, symName: __ZN15crossbeam_utils6atomic11atomic_cell13can_transmute17hd628f3707c5ad274E, symObjAddr: 0x444, symBinAddr: 0x325D0, symSize: 0xC }
  - { offset: 0x101434, size: 0x8, addend: 0x0, symName: __ZN15crossbeam_utils6atomic11atomic_cell13can_transmute17hdf6f08b885c6ab17E, symObjAddr: 0x450, symBinAddr: 0x325DC, symSize: 0xC }
  - { offset: 0x101465, size: 0x8, addend: 0x0, symName: __ZN15crossbeam_utils6atomic11atomic_cell13can_transmute17hfc66a00ac32deb5dE, symObjAddr: 0x45C, symBinAddr: 0x325E8, symSize: 0xC }
  - { offset: 0x1014FB, size: 0x8, addend: 0x0, symName: __ZN15crossbeam_utils6atomic11atomic_cell28atomic_compare_exchange_weak17h13e703a1c68107a7E, symObjAddr: 0x4F0, symBinAddr: 0x3267C, symSize: 0x80C }
  - { offset: 0x101845, size: 0x8, addend: 0x0, symName: '__ZN15crossbeam_utils6atomic11atomic_cell19AtomicCell$LT$T$GT$16compare_exchange17h2791f24b7c0fdc1eE', symObjAddr: 0x468, symBinAddr: 0x325F4, symSize: 0x60 }
  - { offset: 0x10188F, size: 0x8, addend: 0x0, symName: '__ZN15crossbeam_utils6atomic11atomic_cell19AtomicCell$LT$T$GT$4load17he78009b2701460c0E', symObjAddr: 0x4C8, symBinAddr: 0x32654, symSize: 0x28 }
  - { offset: 0x101941, size: 0x8, addend: 0x0, symName: __ZN4pyo33err5PyErr10from_state17h1badf2a5014b12faE, symObjAddr: 0x0, symBinAddr: 0x32E88, symSize: 0x44 }
  - { offset: 0x1032B7, size: 0x8, addend: 0x0, symName: __ZN4pyo33err5PyErr10from_state17h1badf2a5014b12faE, symObjAddr: 0x0, symBinAddr: 0x32E88, symSize: 0x44 }
  - { offset: 0x10333D, size: 0x8, addend: 0x0, symName: __ZN4pyo33err5PyErr22write_unraisable_bound17h95685089e4482a7cE, symObjAddr: 0x44, symBinAddr: 0x32ECC, symSize: 0x34 }
  - { offset: 0x1033A7, size: 0x8, addend: 0x0, symName: __ZN4pyo33err5PyErr7restore17h988d0b0b456b9d00E, symObjAddr: 0x78, symBinAddr: 0x32F00, symSize: 0x68 }
  - { offset: 0x103422, size: 0x8, addend: 0x0, symName: __ZN4core4sync6atomic10AtomicBool3new17h9922557bc749e4faE, symObjAddr: 0x0, symBinAddr: 0x32F68, symSize: 0x18 }
  - { offset: 0x10385E, size: 0x8, addend: 0x0, symName: __ZN4core4sync6atomic5fence17h9cb8bf030192fea5E, symObjAddr: 0x620, symBinAddr: 0x33588, symSize: 0xDC }
  - { offset: 0x104077, size: 0x8, addend: 0x0, symName: __ZN4core4sync6atomic10AtomicBool3new17h9922557bc749e4faE, symObjAddr: 0x0, symBinAddr: 0x32F68, symSize: 0x18 }
  - { offset: 0x1040A7, size: 0x8, addend: 0x0, symName: __ZN4core4sync6atomic10AtomicBool4load17hf11dd1c4f38faf1fE, symObjAddr: 0x18, symBinAddr: 0x32F80, symSize: 0x38 }
  - { offset: 0x104167, size: 0x8, addend: 0x0, symName: __ZN4core4sync6atomic10AtomicBool4swap17hddceb741cabbe9f1E, symObjAddr: 0x50, symBinAddr: 0x32FB8, symSize: 0x100 }
  - { offset: 0x10427E, size: 0x8, addend: 0x0, symName: __ZN4core4sync6atomic10AtomicBool5store17hf62536ab5ae87fe2E, symObjAddr: 0x150, symBinAddr: 0x330B8, symSize: 0x34 }
  - { offset: 0x1042DA, size: 0x8, addend: 0x0, symName: __ZN4core4sync6atomic11AtomicUsize16compare_exchange17haa9d0fc839095192E, symObjAddr: 0x184, symBinAddr: 0x330EC, symSize: 0x3C }
  - { offset: 0x104339, size: 0x8, addend: 0x0, symName: __ZN4core4sync6atomic11AtomicUsize21compare_exchange_weak17h4edc4c5461b19f68E, symObjAddr: 0x1C0, symBinAddr: 0x33128, symSize: 0x3C }
  - { offset: 0x104398, size: 0x8, addend: 0x0, symName: __ZN4core4sync6atomic11AtomicUsize3new17h7f207a5554d12a5bE, symObjAddr: 0x1FC, symBinAddr: 0x33164, symSize: 0x18 }
  - { offset: 0x1043BB, size: 0x8, addend: 0x0, symName: __ZN4core4sync6atomic11AtomicUsize4load17hf067fc9b17077699E, symObjAddr: 0x214, symBinAddr: 0x3317C, symSize: 0x30 }
  - { offset: 0x104423, size: 0x8, addend: 0x0, symName: __ZN4core4sync6atomic11AtomicUsize4swap17h709289cfe344219dE, symObjAddr: 0x244, symBinAddr: 0x331AC, symSize: 0xE0 }
  - { offset: 0x1044B2, size: 0x8, addend: 0x0, symName: __ZN4core4sync6atomic11AtomicUsize5store17hac533a9872735239E, symObjAddr: 0x324, symBinAddr: 0x3328C, symSize: 0x34 }
  - { offset: 0x10450D, size: 0x8, addend: 0x0, symName: __ZN4core4sync6atomic11AtomicUsize7get_mut17h5a3568b4c60bcd2cE, symObjAddr: 0x358, symBinAddr: 0x332C0, symSize: 0x14 }
  - { offset: 0x10454C, size: 0x8, addend: 0x0, symName: __ZN4core4sync6atomic11AtomicUsize8fetch_or17h7c04f1549f97630cE, symObjAddr: 0x36C, symBinAddr: 0x332D4, symSize: 0xE0 }
  - { offset: 0x1045F7, size: 0x8, addend: 0x0, symName: __ZN4core4sync6atomic11AtomicUsize9fetch_add17hd95d57dc30903479E, symObjAddr: 0x44C, symBinAddr: 0x333B4, symSize: 0xE0 }
  - { offset: 0x1046A2, size: 0x8, addend: 0x0, symName: __ZN4core4sync6atomic11AtomicUsize9fetch_sub17h68efda7f11603d24E, symObjAddr: 0x52C, symBinAddr: 0x33494, symSize: 0xF4 }
  - { offset: 0x1048AF, size: 0x8, addend: 0x0, symName: __ZN4core4sync6atomic8AtomicU821compare_exchange_weak17h5299d8c6be3125b1E, symObjAddr: 0x6FC, symBinAddr: 0x33664, symSize: 0x40 }
  - { offset: 0x10490E, size: 0x8, addend: 0x0, symName: __ZN4core4sync6atomic8AtomicU84load17h2f6dcc7b7c31a9bcE, symObjAddr: 0x73C, symBinAddr: 0x336A4, symSize: 0x30 }
  - { offset: 0x10494D, size: 0x8, addend: 0x0, symName: __ZN4core4sync6atomic9AtomicU1621compare_exchange_weak17h2636725b002f5930E, symObjAddr: 0x76C, symBinAddr: 0x336D4, symSize: 0x3C }
  - { offset: 0x1049AC, size: 0x8, addend: 0x0, symName: __ZN4core4sync6atomic9AtomicU164load17ha302a4844d920cb3E, symObjAddr: 0x7A8, symBinAddr: 0x33710, symSize: 0x30 }
  - { offset: 0x1049EB, size: 0x8, addend: 0x0, symName: __ZN4core4sync6atomic9AtomicU3221compare_exchange_weak17he71386dfc7e10e2bE, symObjAddr: 0x7D8, symBinAddr: 0x33740, symSize: 0x3C }
  - { offset: 0x104A4A, size: 0x8, addend: 0x0, symName: __ZN4core4sync6atomic9AtomicU324load17he08713c445d05e2bE, symObjAddr: 0x814, symBinAddr: 0x3377C, symSize: 0x30 }
  - { offset: 0x104A89, size: 0x8, addend: 0x0, symName: __ZN4core4sync6atomic9AtomicU6421compare_exchange_weak17h5a27414b48b8c15dE, symObjAddr: 0x844, symBinAddr: 0x337AC, symSize: 0x3C }
  - { offset: 0x104AE8, size: 0x8, addend: 0x0, symName: __ZN4core4sync6atomic9AtomicU644load17h305d80e703667b95E, symObjAddr: 0x880, symBinAddr: 0x337E8, symSize: 0x30 }
  - { offset: 0x104B29, size: 0x8, addend: 0x0, symName: '__ZN90_$LT$core..sync..atomic..AtomicUsize$u20$as$u20$parking_lot..elision..AtomicElisionExt$GT$25elision_fetch_sub_release17h1b4200c8b12ba781E', symObjAddr: 0x8B0, symBinAddr: 0x33818, symSize: 0x30 }
  - { offset: 0x104B5F, size: 0x8, addend: 0x0, symName: '__ZN90_$LT$core..sync..atomic..AtomicUsize$u20$as$u20$parking_lot..elision..AtomicElisionExt$GT$32elision_compare_exchange_acquire17h3fb350a84daba4e9E', symObjAddr: 0x8E0, symBinAddr: 0x33848, symSize: 0x34 }
  - { offset: 0x104BC0, size: 0x8, addend: 0x0, symName: __ZN11parking_lot10raw_rwlock9RawRwLock16deadlock_acquire17h1c3843fcd262f2e7E, symObjAddr: 0x0, symBinAddr: 0x3387C, symSize: 0x54 }
  - { offset: 0x104C30, size: 0x8, addend: 0x0, symName: '__ZN82_$LT$parking_lot..raw_rwlock..RawRwLock$u20$as$u20$lock_api..rwlock..RawRwLock$GT$11lock_shared17h16f9bf32b29ac668E', symObjAddr: 0xA8, symBinAddr: 0x33924, symSize: 0x158 }
  - { offset: 0x104CB6, size: 0x8, addend: 0x0, symName: '__ZN82_$LT$parking_lot..raw_rwlock..RawRwLock$u20$as$u20$lock_api..rwlock..RawRwLock$GT$13unlock_shared17hc8ed21373ba8aa38E', symObjAddr: 0x200, symBinAddr: 0x33A7C, symSize: 0x8C }
  - { offset: 0x104CF3, size: 0x8, addend: 0x0, symName: '__ZN82_$LT$parking_lot..raw_rwlock..RawRwLock$u20$as$u20$lock_api..rwlock..RawRwLock$GT$14lock_exclusive17hfc7d9b2d6f977823E', symObjAddr: 0x28C, symBinAddr: 0x33B08, symSize: 0x9C }
  - { offset: 0x104D38, size: 0x8, addend: 0x0, symName: '__ZN82_$LT$parking_lot..raw_rwlock..RawRwLock$u20$as$u20$lock_api..rwlock..RawRwLock$GT$16unlock_exclusive17hbfdaa5eb1b04d7eaE', symObjAddr: 0x328, symBinAddr: 0x33BA4, symSize: 0x74 }
  - { offset: 0x104DC2, size: 0x8, addend: 0x0, symName: __ZN11parking_lot10raw_rwlock9RawRwLock16deadlock_acquire17h1c3843fcd262f2e7E, symObjAddr: 0x0, symBinAddr: 0x3387C, symSize: 0x54 }
  - { offset: 0x104DE5, size: 0x8, addend: 0x0, symName: __ZN11parking_lot10raw_rwlock9RawRwLock16deadlock_release17h4f1249661bb211e2E, symObjAddr: 0x54, symBinAddr: 0x338D0, symSize: 0x54 }
  - { offset: 0x104E6A, size: 0x8, addend: 0x0, symName: '__ZN63_$LT$I$u20$as$u20$core..iter..traits..collect..IntoIterator$GT$9into_iter17hf3442bd127f2f964E', symObjAddr: 0x0, symBinAddr: 0x33C18, symSize: 0x18 }
  - { offset: 0x105651, size: 0x8, addend: 0x0, symName: '__ZN63_$LT$I$u20$as$u20$core..iter..traits..collect..IntoIterator$GT$9into_iter17hf3442bd127f2f964E', symObjAddr: 0x0, symBinAddr: 0x33C18, symSize: 0x18 }
  - { offset: 0x106620, size: 0x8, addend: 0x0, symName: __ZN11parking_lot7elision12have_elision17hde0adf7d51940726E, symObjAddr: 0x0, symBinAddr: 0x33C30, symSize: 0xC }
  - { offset: 0x106637, size: 0x8, addend: 0x0, symName: __ZN11parking_lot7elision12have_elision17hde0adf7d51940726E, symObjAddr: 0x0, symBinAddr: 0x33C30, symSize: 0xC }
  - { offset: 0x10667B, size: 0x8, addend: 0x0, symName: __ZN17crossbeam_channel7flavors2at7Channel4recv17h261457a8ec0355fcE, symObjAddr: 0x0, symBinAddr: 0x33C3C, symSize: 0x1C4 }
  - { offset: 0x1068E2, size: 0x8, addend: 0x0, symName: __ZN17crossbeam_channel7flavors2at7Channel4recv17h261457a8ec0355fcE, symObjAddr: 0x0, symBinAddr: 0x33C3C, symSize: 0x1C4 }
  - { offset: 0x1069C8, size: 0x8, addend: 0x0, symName: '__ZN3std6thread5local17LocalKey$LT$T$GT$8try_with17h01e9dac05d98ae97E', symObjAddr: 0x0, symBinAddr: 0x33E00, symSize: 0xEC }
  - { offset: 0x10BA03, size: 0x8, addend: 0x0, symName: '__ZN3std6thread5local17LocalKey$LT$T$GT$8try_with17h01e9dac05d98ae97E', symObjAddr: 0x0, symBinAddr: 0x33E00, symSize: 0xEC }
  - { offset: 0x10BBD3, size: 0x8, addend: 0x0, symName: '__ZN3std6thread5local17LocalKey$LT$T$GT$8try_with17h0cea43593def3857E', symObjAddr: 0xEC, symBinAddr: 0x33EEC, symSize: 0xD8 }
  - { offset: 0x10BD7C, size: 0x8, addend: 0x0, symName: '__ZN3std6thread5local17LocalKey$LT$T$GT$8try_with17h2e49cd577c07e812E', symObjAddr: 0x1C4, symBinAddr: 0x33FC4, symSize: 0xEC }
  - { offset: 0x10BF4C, size: 0x8, addend: 0x0, symName: '__ZN3std6thread5local17LocalKey$LT$T$GT$8try_with17h49cde6e70466843dE', symObjAddr: 0x2B0, symBinAddr: 0x340B0, symSize: 0xD8 }
  - { offset: 0x10C11A, size: 0x8, addend: 0x0, symName: '__ZN3std6thread5local17LocalKey$LT$T$GT$8try_with17h4c4cb99c69b599a8E', symObjAddr: 0x388, symBinAddr: 0x34188, symSize: 0xCC }
  - { offset: 0x10C2B6, size: 0x8, addend: 0x0, symName: '__ZN3std6thread5local17LocalKey$LT$T$GT$8try_with17h56ee8fd9a72d8115E', symObjAddr: 0x454, symBinAddr: 0x34254, symSize: 0xD8 }
  - { offset: 0x10C479, size: 0x8, addend: 0x0, symName: '__ZN3std6thread5local17LocalKey$LT$T$GT$8try_with17h9aba9182c82fd8b9E', symObjAddr: 0x52C, symBinAddr: 0x3432C, symSize: 0xD8 }
  - { offset: 0x10C622, size: 0x8, addend: 0x0, symName: '__ZN3std6thread5local17LocalKey$LT$T$GT$8try_with17ha1353cc051bb8f0fE', symObjAddr: 0x604, symBinAddr: 0x34404, symSize: 0xD8 }
  - { offset: 0x10C7BE, size: 0x8, addend: 0x0, symName: '__ZN3std6thread5local17LocalKey$LT$T$GT$8try_with17ha78a512c34f428c7E', symObjAddr: 0x6DC, symBinAddr: 0x344DC, symSize: 0xEC }
  - { offset: 0x10C981, size: 0x8, addend: 0x0, symName: '__ZN3std6thread5local17LocalKey$LT$T$GT$8try_with17hb310b97824cb8deeE', symObjAddr: 0x7C8, symBinAddr: 0x345C8, symSize: 0xD8 }
  - { offset: 0x10CB2A, size: 0x8, addend: 0x0, symName: '__ZN3std6thread5local17LocalKey$LT$T$GT$8try_with17hb36141e339c2973cE', symObjAddr: 0x8A0, symBinAddr: 0x346A0, symSize: 0xE4 }
  - { offset: 0x10CCC6, size: 0x8, addend: 0x0, symName: '__ZN3std6thread5local17LocalKey$LT$T$GT$8try_with17hdaa2d7c3b6307311E', symObjAddr: 0x984, symBinAddr: 0x34784, symSize: 0xEC }
  - { offset: 0x10CE62, size: 0x8, addend: 0x0, symName: '__ZN3std6thread5local17LocalKey$LT$T$GT$8try_with17he8e367af865f83b2E', symObjAddr: 0xA70, symBinAddr: 0x34870, symSize: 0xD8 }
  - { offset: 0x10D00B, size: 0x8, addend: 0x0, symName: '__ZN3std6thread5local17LocalKey$LT$T$GT$8try_with17hf4e3e240dbf63561E', symObjAddr: 0xB48, symBinAddr: 0x34948, symSize: 0xD8 }
  - { offset: 0x10D16A, size: 0x8, addend: 0x0, symName: '__ZN4core3mem12maybe_uninit20MaybeUninit$LT$T$GT$16assume_init_drop17h2533558c194cb9bfE', symObjAddr: 0x0, symBinAddr: 0x34A20, symSize: 0x24 }
  - { offset: 0x10F717, size: 0x8, addend: 0x0, symName: '__ZN4core3mem12maybe_uninit20MaybeUninit$LT$T$GT$16assume_init_drop17h2533558c194cb9bfE', symObjAddr: 0x0, symBinAddr: 0x34A20, symSize: 0x24 }
  - { offset: 0x10F750, size: 0x8, addend: 0x0, symName: '__ZN4core3mem12maybe_uninit20MaybeUninit$LT$T$GT$16assume_init_drop17h948245dc6edf6528E', symObjAddr: 0x24, symBinAddr: 0x34A44, symSize: 0x24 }
  - { offset: 0x10F789, size: 0x8, addend: 0x0, symName: '__ZN4core3mem12maybe_uninit20MaybeUninit$LT$T$GT$16assume_init_drop17ha5f1fece9f89b464E', symObjAddr: 0x48, symBinAddr: 0x34A68, symSize: 0x24 }
  - { offset: 0x10F7D3, size: 0x8, addend: 0x0, symName: __ZN4pyo35impl_10trampoline11module_init17h0b81033039814048E, symObjAddr: 0x0, symBinAddr: 0x34A8C, symSize: 0x28 }
  - { offset: 0x110AA3, size: 0x8, addend: 0x0, symName: __ZN4pyo35impl_10trampoline11module_init17h0b81033039814048E, symObjAddr: 0x0, symBinAddr: 0x34A8C, symSize: 0x28 }
  - { offset: 0x110ACF, size: 0x8, addend: 0x0, symName: __ZN4pyo35impl_10trampoline22fastcall_with_keywords17h96b228d03568ea5cE, symObjAddr: 0x28, symBinAddr: 0x34AB4, symSize: 0x5C }
  - { offset: 0x110B33, size: 0x8, addend: 0x0, symName: __ZN4pyo35impl_10trampoline7dealloc17h529b1db38945bb85E, symObjAddr: 0x84, symBinAddr: 0x34B10, symSize: 0x34 }
  - { offset: 0x110B69, size: 0x8, addend: 0x0, symName: __ZN4pyo35impl_10trampoline7newfunc17h62bb38fcc4ffad5aE, symObjAddr: 0xB8, symBinAddr: 0x34B44, symSize: 0x50 }
  - { offset: 0x11130E, size: 0x8, addend: 0x0, symName: __ZN17crossbeam_channel5waker17current_thread_id17h4baddd79eb69cbf1E, symObjAddr: 0x0, symBinAddr: 0x34B94, symSize: 0x28 }
  - { offset: 0x1115FF, size: 0x8, addend: 0x0, symName: __ZN17crossbeam_channel5waker17current_thread_id17h4baddd79eb69cbf1E, symObjAddr: 0x0, symBinAddr: 0x34B94, symSize: 0x28 }
  - { offset: 0x111627, size: 0x8, addend: 0x0, symName: __ZN17crossbeam_channel5waker17current_thread_id9THREAD_ID6__init17h46c3aaee518108daE, symObjAddr: 0x28, symBinAddr: 0x34BBC, symSize: 0x68 }
  - { offset: 0x111FC1, size: 0x8, addend: 0x0, symName: __ZN17crossbeam_channel5waker5Waker10disconnect17h7cff1fb2ed75b5cfE, symObjAddr: 0x90, symBinAddr: 0x34C24, symSize: 0xAC }
  - { offset: 0x11200D, size: 0x8, addend: 0x0, symName: __ZN17crossbeam_channel5waker5Waker10try_select17hbec59d29800642e8E, symObjAddr: 0x13C, symBinAddr: 0x34CD0, symSize: 0x8C }
  - { offset: 0x11204C, size: 0x8, addend: 0x0, symName: __ZN17crossbeam_channel5waker5Waker10unregister17hb6af3651968bc3a6E, symObjAddr: 0x1C8, symBinAddr: 0x34D5C, symSize: 0xB0 }
  - { offset: 0x1120C3, size: 0x8, addend: 0x0, symName: __ZN17crossbeam_channel5waker5Waker20register_with_packet17hb2d0a46d6551af7dE, symObjAddr: 0x278, symBinAddr: 0x34E0C, symSize: 0x70 }
  - { offset: 0x11210F, size: 0x8, addend: 0x0, symName: __ZN17crossbeam_channel5waker5Waker3new17h0e8881825399235bE, symObjAddr: 0x2E8, symBinAddr: 0x34E7C, symSize: 0x7C }
  - { offset: 0x112122, size: 0x8, addend: 0x0, symName: __ZN17crossbeam_channel5waker5Waker6notify17hc9495c0878457920E, symObjAddr: 0x364, symBinAddr: 0x34EF8, symSize: 0x144 }
  - { offset: 0x112170, size: 0x8, addend: 0x0, symName: __ZN17crossbeam_channel5waker5Waker8register17ha3938a4f9303830dE, symObjAddr: 0x4A8, symBinAddr: 0x3503C, symSize: 0x38 }
  - { offset: 0x11224E, size: 0x8, addend: 0x0, symName: __ZN17crossbeam_channel5waker9SyncWaker10disconnect17h8ac52eade62677d4E, symObjAddr: 0x4E0, symBinAddr: 0x35074, symSize: 0x1A4 }
  - { offset: 0x1122C2, size: 0x8, addend: 0x0, symName: __ZN17crossbeam_channel5waker9SyncWaker10unregister17h69725400a2c3eac5E, symObjAddr: 0x684, symBinAddr: 0x35218, symSize: 0x1F0 }
  - { offset: 0x112358, size: 0x8, addend: 0x0, symName: __ZN17crossbeam_channel5waker9SyncWaker3new17h206d637c7a2d5c72E, symObjAddr: 0x874, symBinAddr: 0x35408, symSize: 0xA0 }
  - { offset: 0x11236B, size: 0x8, addend: 0x0, symName: __ZN17crossbeam_channel5waker9SyncWaker6notify17h2902b839ed49e72bE, symObjAddr: 0x914, symBinAddr: 0x354A8, symSize: 0x214 }
  - { offset: 0x1123DC, size: 0x8, addend: 0x0, symName: __ZN17crossbeam_channel5waker9SyncWaker8register17h4b8e768a4e116cadE, symObjAddr: 0xB28, symBinAddr: 0x356BC, symSize: 0x1BC }
  - { offset: 0x1124B0, size: 0x8, addend: 0x0, symName: '__ZN49_$LT$usize$u20$as$u20$core..iter..range..Step$GT$13steps_between17h3ee7061de4b45af5E', symObjAddr: 0x0, symBinAddr: 0x35878, symSize: 0x8C }
  - { offset: 0x1124D1, size: 0x8, addend: 0x0, symName: '__ZN49_$LT$usize$u20$as$u20$core..iter..range..Step$GT$13steps_between17h3ee7061de4b45af5E', symObjAddr: 0x0, symBinAddr: 0x35878, symSize: 0x8C }
  - { offset: 0x1125EF, size: 0x8, addend: 0x0, symName: __ZN15crossbeam_utils6atomic11atomic_cell10AtomicUnit21compare_exchange_weak17h5eacf6c2ff46ded3E, symObjAddr: 0x0, symBinAddr: 0x35904, symSize: 0x20 }
  - { offset: 0x112757, size: 0x8, addend: 0x0, symName: __ZN15crossbeam_utils6atomic11atomic_cell4lock17hac39367c8f6a03beE, symObjAddr: 0x34, symBinAddr: 0x35938, symSize: 0x6C }
  - { offset: 0x1127B7, size: 0x8, addend: 0x0, symName: __ZN15crossbeam_utils6atomic11atomic_cell10AtomicUnit21compare_exchange_weak17h5eacf6c2ff46ded3E, symObjAddr: 0x0, symBinAddr: 0x35904, symSize: 0x20 }
  - { offset: 0x11282E, size: 0x8, addend: 0x0, symName: __ZN15crossbeam_utils6atomic11atomic_cell10AtomicUnit4load17hd9d67bc5a16d8c5fE, symObjAddr: 0x20, symBinAddr: 0x35924, symSize: 0x14 }
  - { offset: 0x112892, size: 0x8, addend: 0x0, symName: __ZN3std5panic12catch_unwind17h094565febf6bf71eE, symObjAddr: 0x0, symBinAddr: 0x359A4, symSize: 0xB8 }
  - { offset: 0x114025, size: 0x8, addend: 0x0, symName: __ZN3std5panic12catch_unwind17h094565febf6bf71eE, symObjAddr: 0x0, symBinAddr: 0x359A4, symSize: 0xB8 }
  - { offset: 0x1140B7, size: 0x8, addend: 0x0, symName: __ZN3std5panic12catch_unwind17h158305f346093d88E, symObjAddr: 0xB8, symBinAddr: 0x35A5C, symSize: 0xCC }
  - { offset: 0x11416A, size: 0x8, addend: 0x0, symName: __ZN3std5panic12catch_unwind17h62c459abf07ea4eeE, symObjAddr: 0x184, symBinAddr: 0x35B28, symSize: 0xBC }
  - { offset: 0x11421C, size: 0x8, addend: 0x0, symName: __ZN3std5panic12catch_unwind17hbc6c7dbe79654bfcE, symObjAddr: 0x240, symBinAddr: 0x35BE4, symSize: 0xA8 }
  - { offset: 0x114C2E, size: 0x8, addend: 0x0, symName: '__ZN4core3ptr7mut_ptr31_$LT$impl$u20$$BP$mut$u20$T$GT$6offset18precondition_check17hee8251790b411492E', symObjAddr: 0x0, symBinAddr: 0x35CE0, symSize: 0x110 }
  - { offset: 0x114CE4, size: 0x8, addend: 0x0, symName: '__ZN4core3ptr7mut_ptr31_$LT$impl$u20$$BP$mut$u20$T$GT$6offset18precondition_check17hee8251790b411492E', symObjAddr: 0x0, symBinAddr: 0x35CE0, symSize: 0x110 }
  - { offset: 0x115527, size: 0x8, addend: 0x0, symName: '__ZN51_$LT$str$u20$as$u20$alloc..string..SpecToString$GT$14spec_to_string17h6b543248c502adeeE', symObjAddr: 0x0, symBinAddr: 0x35DF0, symSize: 0x50 }
  - { offset: 0x1156D0, size: 0x8, addend: 0x0, symName: '__ZN51_$LT$str$u20$as$u20$alloc..string..SpecToString$GT$14spec_to_string17h6b543248c502adeeE', symObjAddr: 0x0, symBinAddr: 0x35DF0, symSize: 0x50 }
  - { offset: 0x1157F9, size: 0x8, addend: 0x0, symName: '__ZN62_$LT$alloc..string..String$u20$as$u20$core..cmp..PartialEq$GT$2eq17h7b3990b4ae6441b0E', symObjAddr: 0x50, symBinAddr: 0x35E40, symSize: 0x2C }
  - { offset: 0x1159DE, size: 0x8, addend: 0x0, symName: '__ZN71_$LT$alloc..borrow..Cow$LT$B$GT$$u20$as$u20$core..ops..deref..Deref$GT$5deref17h3de3f978d71edb9bE', symObjAddr: 0x0, symBinAddr: 0x35E6C, symSize: 0x78 }
  - { offset: 0x1159FA, size: 0x8, addend: 0x0, symName: '__ZN71_$LT$alloc..borrow..Cow$LT$B$GT$$u20$as$u20$core..ops..deref..Deref$GT$5deref17h3de3f978d71edb9bE', symObjAddr: 0x0, symBinAddr: 0x35E6C, symSize: 0x78 }
  - { offset: 0x115BC8, size: 0x8, addend: 0x0, symName: __ZN4pyo35impl_9pymethods11tp_new_impl17h9323a3495bd89b9cE, symObjAddr: 0x0, symBinAddr: 0x35EE4, symSize: 0x48 }
  - { offset: 0x1163A5, size: 0x8, addend: 0x0, symName: '__ZN50_$LT$T$u20$as$u20$core..convert..Into$LT$U$GT$$GT$4into17h2517e05ada60e117E', symObjAddr: 0x48, symBinAddr: 0x35F2C, symSize: 0x24 }
  - { offset: 0x1174E9, size: 0x8, addend: 0x0, symName: __ZN4pyo35impl_9pymethods11tp_new_impl17h9323a3495bd89b9cE, symObjAddr: 0x0, symBinAddr: 0x35EE4, symSize: 0x48 }
  - { offset: 0x118FA9, size: 0x8, addend: 0x0, symName: '__ZN102_$LT$core..iter..adapters..zip..Zip$LT$A$C$B$GT$$u20$as$u20$core..iter..traits..iterator..Iterator$GT$4next17h15ac0a45ce4ecd43E', symObjAddr: 0x0, symBinAddr: 0x35F50, symSize: 0x24 }
  - { offset: 0x119790, size: 0x8, addend: 0x0, symName: '__ZN102_$LT$core..iter..adapters..zip..Zip$LT$A$C$B$GT$$u20$as$u20$core..iter..traits..iterator..Iterator$GT$4next17h15ac0a45ce4ecd43E', symObjAddr: 0x0, symBinAddr: 0x35F50, symSize: 0x24 }
  - { offset: 0x1197D4, size: 0x8, addend: 0x0, symName: '__ZN111_$LT$core..iter..adapters..zip..Zip$LT$A$C$B$GT$$u20$as$u20$core..iter..adapters..zip..ZipImpl$LT$A$C$B$GT$$GT$3new17h65cf097105b7b3e0E', symObjAddr: 0x24, symBinAddr: 0x35F74, symSize: 0x3C }
  - { offset: 0x119820, size: 0x8, addend: 0x0, symName: '__ZN111_$LT$core..iter..adapters..zip..Zip$LT$A$C$B$GT$$u20$as$u20$core..iter..adapters..zip..ZipImpl$LT$A$C$B$GT$$GT$4next17h154b3f370401f8edE', symObjAddr: 0x60, symBinAddr: 0x35FB0, symSize: 0xE0 }
  - { offset: 0x119A4D, size: 0x8, addend: 0x0, symName: '__ZN63_$LT$I$u20$as$u20$core..iter..traits..collect..IntoIterator$GT$9into_iter17h25be10ba8ef52499E', symObjAddr: 0x140, symBinAddr: 0x36090, symSize: 0x30 }
  - { offset: 0x119A85, size: 0x8, addend: 0x0, symName: '__ZN63_$LT$I$u20$as$u20$core..iter..traits..collect..IntoIterator$GT$9into_iter17h84fb76d8ea29d253E', symObjAddr: 0x170, symBinAddr: 0x360C0, symSize: 0x30 }
  - { offset: 0x11AF0A, size: 0x8, addend: 0x0, symName: __ZN4pyo35impl_5panic9PanicTrap3new17h344e3f2fe8320845E, symObjAddr: 0x0, symBinAddr: 0x360F0, symSize: 0x18 }
  - { offset: 0x11AF99, size: 0x8, addend: 0x0, symName: __ZN4pyo35impl_5panic9PanicTrap3new17h344e3f2fe8320845E, symObjAddr: 0x0, symBinAddr: 0x360F0, symSize: 0x18 }
  - { offset: 0x11AFBB, size: 0x8, addend: 0x0, symName: __ZN4pyo35impl_5panic9PanicTrap6disarm17h0420b91e36125e70E, symObjAddr: 0x18, symBinAddr: 0x36108, symSize: 0x28 }
  - { offset: 0x11AFFB, size: 0x8, addend: 0x0, symName: __ZN4core4time8Duration11as_secs_f6417h3421186d48591b29E, symObjAddr: 0x0, symBinAddr: 0x36130, symSize: 0x3C }
  - { offset: 0x11B0A3, size: 0x8, addend: 0x0, symName: __ZN4core4time8Duration11as_secs_f6417h3421186d48591b29E, symObjAddr: 0x0, symBinAddr: 0x36130, symSize: 0x3C }
  - { offset: 0x11B0C6, size: 0x8, addend: 0x0, symName: __ZN4core4time8Duration11from_millis17hcbb80b925d67ed51E, symObjAddr: 0x3C, symBinAddr: 0x3616C, symSize: 0x38 }
  - { offset: 0x11B106, size: 0x8, addend: 0x0, symName: __ZN4pyo36marker6Python19assume_gil_acquired17hd9fc439dbfd9c11fE, symObjAddr: 0x0, symBinAddr: 0x361A4, symSize: 0x4 }
  - { offset: 0x11C370, size: 0x8, addend: 0x0, symName: __ZN4pyo36marker6Python19assume_gil_acquired17hd9fc439dbfd9c11fE, symObjAddr: 0x0, symBinAddr: 0x361A4, symSize: 0x4 }
  - { offset: 0x11C7E1, size: 0x8, addend: 0x0, symName: __ZN4pyo36marker6Python4None17hc9962d59d906d695E, symObjAddr: 0x4, symBinAddr: 0x361A8, symSize: 0x20 }
  - { offset: 0x11C82E, size: 0x8, addend: 0x0, symName: '__ZN5alloc7raw_vec19RawVec$LT$T$C$A$GT$8grow_one17h170f075d276fe8afE', symObjAddr: 0x0, symBinAddr: 0x361C8, symSize: 0x90 }
  - { offset: 0x11F8CA, size: 0x8, addend: 0x0, symName: '__ZN5alloc7raw_vec19RawVec$LT$T$C$A$GT$8grow_one17h170f075d276fe8afE', symObjAddr: 0x0, symBinAddr: 0x361C8, symSize: 0x90 }
  - { offset: 0x11F97C, size: 0x8, addend: 0x0, symName: '__ZN5alloc7raw_vec19RawVec$LT$T$C$A$GT$8grow_one17he54ba631cce536d5E', symObjAddr: 0x90, symBinAddr: 0x36258, symSize: 0x90 }
  - { offset: 0x11FC7E, size: 0x8, addend: 0x0, symName: '__ZN5alloc7raw_vec19RawVec$LT$T$C$A$GT$8into_box17h87821561891b3838E', symObjAddr: 0x120, symBinAddr: 0x362E8, symSize: 0x98 }
  - { offset: 0x120571, size: 0x8, addend: 0x0, symName: '__ZN5alloc7raw_vec19RawVec$LT$T$C$A$GT$8into_box17he12d94834feffd6cE', symObjAddr: 0x1B8, symBinAddr: 0x36380, symSize: 0x98 }
  - { offset: 0x120886, size: 0x8, addend: 0x0, symName: '__ZN5alloc7raw_vec19RawVec$LT$T$C$A$GT$8into_box17hf947b6a896d1b261E', symObjAddr: 0x250, symBinAddr: 0x36418, symSize: 0x98 }
  - { offset: 0x120A5A, size: 0x8, addend: 0x0, symName: '__ZN4pyo35impl_7pyclass16lazy_type_object23LazyTypeObject$LT$T$GT$11get_or_init17h190b061057eb4691E', symObjAddr: 0x0, symBinAddr: 0x364B0, symSize: 0x40 }
  - { offset: 0x122823, size: 0x8, addend: 0x0, symName: '__ZN4pyo35impl_7pyclass16lazy_type_object23LazyTypeObject$LT$T$GT$11get_or_init28_$u7b$$u7b$closure$u7d$$u7d$17h9f5a8f716a19fdccE', symObjAddr: 0x40, symBinAddr: 0x364F0, symSize: 0x98 }
  - { offset: 0x12444A, size: 0x8, addend: 0x0, symName: '__ZN4pyo35impl_7pyclass16lazy_type_object23LazyTypeObject$LT$T$GT$11get_or_init17h190b061057eb4691E', symObjAddr: 0x0, symBinAddr: 0x364B0, symSize: 0x40 }
  - { offset: 0x12448E, size: 0x8, addend: 0x0, symName: '__ZN4pyo35impl_7pyclass16lazy_type_object23LazyTypeObject$LT$T$GT$15get_or_try_init17hc82484e1d0656156E', symObjAddr: 0xD8, symBinAddr: 0x36588, symSize: 0x58 }
  - { offset: 0x12459D, size: 0x8, addend: 0x0, symName: '__ZN71_$LT$core..hash..sip..Hasher$LT$S$GT$$u20$as$u20$core..hash..Hasher$GT$9write_str17h96aed38ae45a9192E', symObjAddr: 0x0, symBinAddr: 0x365E0, symSize: 0x5C }
  - { offset: 0x12469B, size: 0x8, addend: 0x0, symName: '__ZN71_$LT$core..hash..sip..Hasher$LT$S$GT$$u20$as$u20$core..hash..Hasher$GT$9write_str17h96aed38ae45a9192E', symObjAddr: 0x0, symBinAddr: 0x365E0, symSize: 0x5C }
  - { offset: 0x12477E, size: 0x8, addend: 0x0, symName: __ZN3std9panicking12catch_unwind7do_call17h02772b3fa37f4f62E, symObjAddr: 0x0, symBinAddr: 0x3663C, symSize: 0x50 }
  - { offset: 0x126AC7, size: 0x8, addend: 0x0, symName: __ZN3std9panicking12catch_unwind7do_call17h02772b3fa37f4f62E, symObjAddr: 0x0, symBinAddr: 0x3663C, symSize: 0x50 }
  - { offset: 0x126B8F, size: 0x8, addend: 0x0, symName: __ZN3std9panicking12catch_unwind7do_call17h121483e068104e72E, symObjAddr: 0x50, symBinAddr: 0x3668C, symSize: 0x74 }
  - { offset: 0x126C75, size: 0x8, addend: 0x0, symName: __ZN3std9panicking12catch_unwind7do_call17h1fb62ec8b1a202dfE, symObjAddr: 0xC4, symBinAddr: 0x36700, symSize: 0x50 }
  - { offset: 0x126D3D, size: 0x8, addend: 0x0, symName: __ZN3std9panicking12catch_unwind7do_call17h9dc551c3df79a4e2E, symObjAddr: 0x114, symBinAddr: 0x36750, symSize: 0x3C }
  - { offset: 0x126E05, size: 0x8, addend: 0x0, symName: __ZN3std9panicking12catch_unwind7do_call17ha2532bca8a3c9b31E, symObjAddr: 0x150, symBinAddr: 0x3678C, symSize: 0x78 }
  - { offset: 0x126EEB, size: 0x8, addend: 0x0, symName: __ZN3std9panicking12catch_unwind7do_call17haa44e38bd0ba7077E, symObjAddr: 0x1C8, symBinAddr: 0x36804, symSize: 0x7C }
  - { offset: 0x126FD1, size: 0x8, addend: 0x0, symName: __ZN3std9panicking12catch_unwind7do_call17hc48f2ed02d4daa5dE, symObjAddr: 0x244, symBinAddr: 0x36880, symSize: 0x68 }
  - { offset: 0x1270B7, size: 0x8, addend: 0x0, symName: __ZN3std9panicking12catch_unwind8do_catch17h27c8074a470df980E, symObjAddr: 0x2AC, symBinAddr: 0x368E8, symSize: 0x70 }
  - { offset: 0x12714C, size: 0x8, addend: 0x0, symName: __ZN3std9panicking12catch_unwind8do_catch17h88bda1206b26d808E, symObjAddr: 0x31C, symBinAddr: 0x36958, symSize: 0x70 }
  - { offset: 0x1271E1, size: 0x8, addend: 0x0, symName: __ZN3std9panicking12catch_unwind8do_catch17h96d16f0d25dc8eb1E, symObjAddr: 0x38C, symBinAddr: 0x369C8, symSize: 0x70 }
  - { offset: 0x127276, size: 0x8, addend: 0x0, symName: __ZN3std9panicking12catch_unwind8do_catch17ha0480c99627fa75eE, symObjAddr: 0x3FC, symBinAddr: 0x36A38, symSize: 0x70 }
  - { offset: 0x12730B, size: 0x8, addend: 0x0, symName: __ZN3std9panicking12catch_unwind8do_catch17had79cc3b70db5db9E, symObjAddr: 0x46C, symBinAddr: 0x36AA8, symSize: 0x70 }
  - { offset: 0x1273A0, size: 0x8, addend: 0x0, symName: __ZN3std9panicking12catch_unwind8do_catch17hd407abc09e61e99aE, symObjAddr: 0x4DC, symBinAddr: 0x36B18, symSize: 0x70 }
  - { offset: 0x127435, size: 0x8, addend: 0x0, symName: __ZN3std9panicking12catch_unwind8do_catch17hffdf1ce8ceac4053E, symObjAddr: 0x54C, symBinAddr: 0x36B88, symSize: 0x70 }
  - { offset: 0x129BBC, size: 0x8, addend: 0x0, symName: '__ZN4core3mem13manually_drop21ManuallyDrop$LT$T$GT$4drop17h8c486f383924ae1aE', symObjAddr: 0x0, symBinAddr: 0x36BF8, symSize: 0x24 }
  - { offset: 0x12CA2D, size: 0x8, addend: 0x0, symName: '__ZN4core3mem13manually_drop21ManuallyDrop$LT$T$GT$4drop17h8c486f383924ae1aE', symObjAddr: 0x0, symBinAddr: 0x36BF8, symSize: 0x24 }
  - { offset: 0x12CA76, size: 0x8, addend: 0x0, symName: '__ZN71_$LT$rust_core..RustSystem$u20$as$u20$pyo3..type_object..PyTypeInfo$GT$15type_object_raw17hb232292d4e35e691E', symObjAddr: 0x0, symBinAddr: 0x36C1C, symSize: 0x24 }
  - { offset: 0x12CA9F, size: 0x8, addend: 0x0, symName: '__ZN75_$LT$rust_core..RustSystem$u20$as$u20$pyo3..impl_..pyclass..PyClassImpl$GT$10items_iter15INTRINSIC_ITEMS17hd6d41803f1fd623eE', symObjAddr: 0x3EE0, symBinAddr: 0xCBD60, symSize: 0x0 }
  - { offset: 0x12CABF, size: 0x8, addend: 0x0, symName: '__ZN75_$LT$rust_core..RustSystem$u20$as$u20$pyo3..impl_..pyclass..PyClassImpl$GT$16lazy_type_object11TYPE_OBJECT17haa864391ea0df764E', symObjAddr: 0x4050, symBinAddr: 0x11C438, symSize: 0x0 }
  - { offset: 0x12CADF, size: 0x8, addend: 0x0, symName: '__ZN75_$LT$rust_core..RustSystem$u20$as$u20$pyo3..impl_..pyclass..PyClassImpl$GT$3doc3DOC17h190f2090a3844793E', symObjAddr: 0x4098, symBinAddr: 0x11C480, symSize: 0x0 }
  - { offset: 0x12CAED, size: 0x8, addend: 0x0, symName: '__ZN75_$LT$rust_core..RustSystem$u20$as$u20$pyo3..impl_..pyclass..PyClassImpl$GT$10items_iter17h9fec9023d0b4ff19E', symObjAddr: 0x24, symBinAddr: 0x36C40, symSize: 0x38 }
  - { offset: 0x12CB28, size: 0x8, addend: 0x0, symName: '__ZN75_$LT$rust_core..RustSystem$u20$as$u20$pyo3..impl_..pyclass..PyClassImpl$GT$16lazy_type_object17h7ec758bd3a48f564E', symObjAddr: 0x5C, symBinAddr: 0x36C78, symSize: 0xC }
  - { offset: 0x12CB45, size: 0x8, addend: 0x0, symName: '__ZN75_$LT$rust_core..RustSystem$u20$as$u20$pyo3..impl_..pyclass..PyClassImpl$GT$3doc17h48ff09ab9b2b9843E', symObjAddr: 0x68, symBinAddr: 0x36C84, symSize: 0x3C }
  - { offset: 0x12CE09, size: 0x8, addend: 0x0, symName: '__ZN9rust_core162_$LT$impl$u20$pyo3..impl_..pyclass..PyMethods$LT$rust_core..RustSystem$GT$$u20$for$u20$pyo3..impl_..pyclass..PyClassImplCollector$LT$rust_core..RustSystem$GT$$GT$10py_methods5ITEMS17h6ab7d58e7edff1c6E', symObjAddr: 0x4890, symBinAddr: 0x111FC8, symSize: 0x0 }
  - { offset: 0x12CE1B, size: 0x8, addend: 0x0, symName: '__ZN9rust_core162_$LT$impl$u20$pyo3..impl_..pyclass..PyMethods$LT$rust_core..RustSystem$GT$$u20$for$u20$pyo3..impl_..pyclass..PyClassImplCollector$LT$rust_core..RustSystem$GT$$GT$10py_methods5ITEMS10trampoline17h2f173b9bac5c9c0bE', symObjAddr: 0x29DC, symBinAddr: 0x395F8, symSize: 0x50 }
  - { offset: 0x12CE71, size: 0x8, addend: 0x0, symName: '__ZN9rust_core162_$LT$impl$u20$pyo3..impl_..pyclass..PyMethods$LT$rust_core..RustSystem$GT$$u20$for$u20$pyo3..impl_..pyclass..PyClassImplCollector$LT$rust_core..RustSystem$GT$$GT$10py_methods5ITEMS10trampoline17h3311048cc28bf9e9E', symObjAddr: 0x2A2C, symBinAddr: 0x39648, symSize: 0x50 }
  - { offset: 0x12CEC7, size: 0x8, addend: 0x0, symName: '__ZN9rust_core162_$LT$impl$u20$pyo3..impl_..pyclass..PyMethods$LT$rust_core..RustSystem$GT$$u20$for$u20$pyo3..impl_..pyclass..PyClassImplCollector$LT$rust_core..RustSystem$GT$$GT$10py_methods5ITEMS10trampoline17haaaa945984c3cdd3E', symObjAddr: 0x2A7C, symBinAddr: 0x39698, symSize: 0x50 }
  - { offset: 0x12CF1D, size: 0x8, addend: 0x0, symName: '__ZN9rust_core162_$LT$impl$u20$pyo3..impl_..pyclass..PyMethods$LT$rust_core..RustSystem$GT$$u20$for$u20$pyo3..impl_..pyclass..PyClassImplCollector$LT$rust_core..RustSystem$GT$$GT$10py_methods5ITEMS10trampoline17he5013997a3347220E', symObjAddr: 0x2ACC, symBinAddr: 0x396E8, symSize: 0x50 }
  - { offset: 0x12CF73, size: 0x8, addend: 0x0, symName: '__ZN9rust_core162_$LT$impl$u20$pyo3..impl_..pyclass..PyMethods$LT$rust_core..RustSystem$GT$$u20$for$u20$pyo3..impl_..pyclass..PyClassImplCollector$LT$rust_core..RustSystem$GT$$GT$10py_methods5ITEMS10trampoline17hf4a2d49fc013b697E', symObjAddr: 0x2B1C, symBinAddr: 0x39738, symSize: 0x50 }
  - { offset: 0x12CFC9, size: 0x8, addend: 0x0, symName: '__ZN9rust_core162_$LT$impl$u20$pyo3..impl_..pyclass..PyMethods$LT$rust_core..RustSystem$GT$$u20$for$u20$pyo3..impl_..pyclass..PyClassImplCollector$LT$rust_core..RustSystem$GT$$GT$10py_methods5ITEMS10trampoline17hffb8e2478ca37c1dE', symObjAddr: 0x2B6C, symBinAddr: 0x39788, symSize: 0x4C }
  - { offset: 0x12D019, size: 0x8, addend: 0x0, symName: '__ZN71_$LT$rust_core..RustSystem$u20$as$u20$pyo3..type_object..PyTypeInfo$GT$15type_object_raw17hb232292d4e35e691E', symObjAddr: 0x0, symBinAddr: 0x36C1C, symSize: 0x24 }
  - { offset: 0x12D051, size: 0x8, addend: 0x0, symName: __ZN9rust_core21bench_rust_actor_tell17hca684bff607e31b1E, symObjAddr: 0x2BB8, symBinAddr: 0x397D4, symSize: 0x30C }
  - { offset: 0x12D1BD, size: 0x8, addend: 0x0, symName: __ZN9rust_core29bench_rust_mailbox_throughput17h897d013384a86007E, symObjAddr: 0x2EC4, symBinAddr: 0x39AE0, symSize: 0x334 }
  - { offset: 0x12D32E, size: 0x8, addend: 0x0, symName: __ZN9rust_core34__pyfunction_bench_rust_actor_tell17h6f4af6d5177908a3E, symObjAddr: 0x31F8, symBinAddr: 0x39E14, symSize: 0x1C4 }
  - { offset: 0x12D4CF, size: 0x8, addend: 0x0, symName: __ZN9rust_core42__pyfunction_bench_rust_mailbox_throughput17h8cb5c7aaca08b450E, symObjAddr: 0x33BC, symBinAddr: 0x39FD8, symSize: 0x1C4 }
  - { offset: 0x12D67A, size: 0x8, addend: 0x0, symName: '__ZN9rust_core47_$LT$impl$u20$rust_core..rust_core..MakeDef$GT$8make_def15__pyo3_pymodule17hb0e936e78dce3ff9E', symObjAddr: 0x3580, symBinAddr: 0x3A19C, symSize: 0x38 }
  - { offset: 0x12D6B4, size: 0x8, addend: 0x0, symName: '__ZN9rust_core59_$LT$impl$u20$rust_core..bench_rust_actor_tell..MakeDef$GT$9_PYO3_DEF10trampoline17h07471c37172623d8E', symObjAddr: 0x35B8, symBinAddr: 0x3A1D4, symSize: 0x50 }
  - { offset: 0x12D716, size: 0x8, addend: 0x0, symName: '__ZN9rust_core67_$LT$impl$u20$rust_core..bench_rust_mailbox_throughput..MakeDef$GT$9_PYO3_DEF10trampoline17hd49349f4661b30baE', symObjAddr: 0x3608, symBinAddr: 0x3A224, symSize: 0x50 }
  - { offset: 0x12D76E, size: 0x8, addend: 0x0, symName: __ZN9rust_core9rust_core17h2aa69efb95fa4ca4E, symObjAddr: 0x3658, symBinAddr: 0x3A274, symSize: 0x2E4 }
  - { offset: 0x132A90, size: 0x8, addend: 0x0, symName: __ZN9rust_core10RustSystem10stop_actor17hbe4558c18b1e634fE, symObjAddr: 0xA4, symBinAddr: 0x36CC0, symSize: 0xF8 }
  - { offset: 0x132AC1, size: 0x8, addend: 0x0, symName: __ZN9rust_core10RustSystem16__pymethod_ask__17hef3bf6e755132e9bE, symObjAddr: 0x19C, symBinAddr: 0x36DB8, symSize: 0x688 }
  - { offset: 0x132CFD, size: 0x8, addend: 0x0, symName: __ZN9rust_core10RustSystem17__pymethod_tell__17hba6b16666d412dd9E, symObjAddr: 0x824, symBinAddr: 0x37440, symSize: 0x51C }
  - { offset: 0x132EE8, size: 0x8, addend: 0x0, symName: __ZN9rust_core10RustSystem18__pymethod_spawn__17h54deec0375ab4ab5E, symObjAddr: 0xD40, symBinAddr: 0x3795C, symSize: 0x614 }
  - { offset: 0x133124, size: 0x8, addend: 0x0, symName: __ZN9rust_core10RustSystem20__pymethod___new____17h9368b49a9853832fE, symObjAddr: 0x1354, symBinAddr: 0x37F70, symSize: 0x17C }
  - { offset: 0x133272, size: 0x8, addend: 0x0, symName: __ZN9rust_core10RustSystem21__pymethod_is_alive__17h3671656107724440E, symObjAddr: 0x14D0, symBinAddr: 0x380EC, symSize: 0x314 }
  - { offset: 0x133412, size: 0x8, addend: 0x0, symName: __ZN9rust_core10RustSystem23__pymethod_stop_actor__17h161ade3cbc6523c8E, symObjAddr: 0x17E4, symBinAddr: 0x38400, symSize: 0x314 }
  - { offset: 0x1335B2, size: 0x8, addend: 0x0, symName: __ZN9rust_core10RustSystem3ask17h9b958308c45f923fE, symObjAddr: 0x1AF8, symBinAddr: 0x38714, symSize: 0x4A4 }
  - { offset: 0x1336DC, size: 0x8, addend: 0x0, symName: __ZN9rust_core10RustSystem3new17h885e3ef086ec5068E, symObjAddr: 0x1F9C, symBinAddr: 0x38BB8, symSize: 0x3C }
  - { offset: 0x1336EF, size: 0x8, addend: 0x0, symName: __ZN9rust_core10RustSystem4tell17h711f0e959db5725cE, symObjAddr: 0x1FD8, symBinAddr: 0x38BF4, symSize: 0x2B0 }
  - { offset: 0x13375A, size: 0x8, addend: 0x0, symName: __ZN9rust_core10RustSystem5spawn17h559ba294a365ed4dE, symObjAddr: 0x2288, symBinAddr: 0x38EA4, symSize: 0x378 }
  - { offset: 0x133831, size: 0x8, addend: 0x0, symName: __ZN9rust_core10RustSystem8is_alive17hab9fc623541f7c26E, symObjAddr: 0x2600, symBinAddr: 0x3921C, symSize: 0xF8 }
  - { offset: 0x13386F, size: 0x8, addend: 0x0, symName: __ZN9rust_core14RustActorInner10get_sender17he68bfbf4098af2b7E, symObjAddr: 0x26F8, symBinAddr: 0x39314, symSize: 0x24 }
  - { offset: 0x1338C9, size: 0x8, addend: 0x0, symName: __ZN9rust_core14RustActorInner3new17h9bc89aea0e5d9073E, symObjAddr: 0x271C, symBinAddr: 0x39338, symSize: 0x1B4 }
  - { offset: 0x13393B, size: 0x8, addend: 0x0, symName: __ZN9rust_core14RustActorInner4stop17hd1edea446ec40341E, symObjAddr: 0x28D0, symBinAddr: 0x394EC, symSize: 0x80 }
  - { offset: 0x13395D, size: 0x8, addend: 0x0, symName: __ZN9rust_core14RustActorInner8is_alive17h26d0cad906cb709cE, symObjAddr: 0x2950, symBinAddr: 0x3956C, symSize: 0x8C }
  - { offset: 0x133C6A, size: 0x8, addend: 0x0, symName: __ZN4pyo35impl_16extract_argument16extract_argument17h166807977330372eE, symObjAddr: 0x0, symBinAddr: 0x3A558, symSize: 0x11C }
  - { offset: 0x135DEC, size: 0x8, addend: 0x0, symName: __ZN4pyo35impl_16extract_argument16extract_argument17h166807977330372eE, symObjAddr: 0x0, symBinAddr: 0x3A558, symSize: 0x11C }
  - { offset: 0x135E70, size: 0x8, addend: 0x0, symName: __ZN4pyo35impl_16extract_argument16extract_argument17h2714b693a1a3bad3E, symObjAddr: 0x11C, symBinAddr: 0x3A674, symSize: 0x134 }
  - { offset: 0x135EF5, size: 0x8, addend: 0x0, symName: __ZN4pyo35impl_16extract_argument16extract_argument17h478ff9d60bd6039fE, symObjAddr: 0x250, symBinAddr: 0x3A7A8, symSize: 0x11C }
  - { offset: 0x135F79, size: 0x8, addend: 0x0, symName: __ZN4pyo35impl_16extract_argument16extract_argument17hae71c38f8e69bc21E, symObjAddr: 0x36C, symBinAddr: 0x3A8C4, symSize: 0x11C }
  - { offset: 0x13617E, size: 0x8, addend: 0x0, symName: '__ZN4pyo35impl_16extract_argument19FunctionDescription26extract_arguments_fastcall28_$u7b$$u7b$closure$u7d$$u7d$17h947b2e49ca132f07E', symObjAddr: 0x1830, symBinAddr: 0x3BD88, symSize: 0x24 }
  - { offset: 0x1361D6, size: 0x8, addend: 0x0, symName: '__ZN4pyo35impl_16extract_argument19FunctionDescription28extract_arguments_tuple_dict28_$u7b$$u7b$closure$u7d$$u7d$17hba41f9fc68097ad3E', symObjAddr: 0x1CB0, symBinAddr: 0x3C208, symSize: 0x24 }
  - { offset: 0x13622E, size: 0x8, addend: 0x0, symName: '__ZN4pyo35impl_16extract_argument19FunctionDescription36find_keyword_parameter_in_positional28_$u7b$$u7b$closure$u7d$$u7d$17h1d4780fc3a4b2568E', symObjAddr: 0x1CD4, symBinAddr: 0x3C22C, symSize: 0x48 }
  - { offset: 0x13628E, size: 0x8, addend: 0x0, symName: '__ZN4pyo35impl_16extract_argument19FunctionDescription38find_keyword_parameter_in_keyword_only28_$u7b$$u7b$closure$u7d$$u7d$17hd5ec2008ba4c2411E', symObjAddr: 0x1D1C, symBinAddr: 0x3C274, symSize: 0x38 }
  - { offset: 0x1362D0, size: 0x8, addend: 0x0, symName: __ZN4pyo35impl_16extract_argument19extract_pyclass_ref17h7a94267820dd23aaE, symObjAddr: 0x1D54, symBinAddr: 0x3C2AC, symSize: 0xA0 }
  - { offset: 0x136335, size: 0x8, addend: 0x0, symName: '__ZN71_$LT$T$u20$as$u20$pyo3..impl_..extract_argument..PyFunctionArgument$GT$7extract17h8d6442594477c029E', symObjAddr: 0x1DF4, symBinAddr: 0x3C34C, symSize: 0x28 }
  - { offset: 0x136374, size: 0x8, addend: 0x0, symName: '__ZN71_$LT$T$u20$as$u20$pyo3..impl_..extract_argument..PyFunctionArgument$GT$7extract17hff08c41235e8c302E', symObjAddr: 0x1E1C, symBinAddr: 0x3C374, symSize: 0x28 }
  - { offset: 0x136D6C, size: 0x8, addend: 0x0, symName: __ZN4pyo35impl_16extract_argument19FunctionDescription13handle_kwargs17h460f223e4be975b2E, symObjAddr: 0x488, symBinAddr: 0x3A9E0, symSize: 0x6F0 }
  - { offset: 0x136F67, size: 0x8, addend: 0x0, symName: __ZN4pyo35impl_16extract_argument19FunctionDescription13handle_kwargs17hfe6e2de9e4c79fa6E, symObjAddr: 0xB78, symBinAddr: 0x3B0D0, symSize: 0x6E8 }
  - { offset: 0x137180, size: 0x8, addend: 0x0, symName: __ZN4pyo35impl_16extract_argument19FunctionDescription26extract_arguments_fastcall17hec96d9b9f9b16765E, symObjAddr: 0x1260, symBinAddr: 0x3B7B8, symSize: 0x5D0 }
  - { offset: 0x1374B2, size: 0x8, addend: 0x0, symName: __ZN4pyo35impl_16extract_argument19FunctionDescription28extract_arguments_tuple_dict17hcbba8ecd4185f68bE, symObjAddr: 0x1854, symBinAddr: 0x3BDAC, symSize: 0x45C }
  - { offset: 0x1389F1, size: 0x8, addend: 0x0, symName: '__ZN106_$LT$core..ops..range..Range$LT$usize$GT$$u20$as$u20$core..slice..index..SliceIndex$LT$$u5b$T$u5d$$GT$$GT$13get_unchecked18precondition_check17ha67e7c49305a9fb9E', symObjAddr: 0x0, symBinAddr: 0x3C39C, symSize: 0xCC }
  - { offset: 0x138D1D, size: 0x8, addend: 0x0, symName: '__ZN106_$LT$core..ops..range..Range$LT$usize$GT$$u20$as$u20$core..slice..index..SliceIndex$LT$$u5b$T$u5d$$GT$$GT$13get_unchecked18precondition_check17ha67e7c49305a9fb9E', symObjAddr: 0x0, symBinAddr: 0x3C39C, symSize: 0xCC }
  - { offset: 0x138D9F, size: 0x8, addend: 0x0, symName: '__ZN75_$LT$usize$u20$as$u20$core..slice..index..SliceIndex$LT$$u5b$T$u5d$$GT$$GT$13get_unchecked18precondition_check17h1dbef2b4992bcc86E', symObjAddr: 0xCC, symBinAddr: 0x3C468, symSize: 0xAC }
  - { offset: 0x138E0D, size: 0x8, addend: 0x0, symName: '__ZN75_$LT$usize$u20$as$u20$core..slice..index..SliceIndex$LT$$u5b$T$u5d$$GT$$GT$17get_unchecked_mut18precondition_check17h2a95aa7e9bafefa4E', symObjAddr: 0x178, symBinAddr: 0x3C514, symSize: 0xAC }
  - { offset: 0x139041, size: 0x8, addend: 0x0, symName: '__ZN100_$LT$pyo3..types..tuple..BorrowedTupleIterator$u20$as$u20$core..iter..traits..iterator..Iterator$GT$4next17h40b6c37bd0435ab5E', symObjAddr: 0x0, symBinAddr: 0x3C5C0, symSize: 0x9C }
  - { offset: 0x13A215, size: 0x8, addend: 0x0, symName: '__ZN100_$LT$pyo3..types..tuple..BorrowedTupleIterator$u20$as$u20$core..iter..traits..iterator..Iterator$GT$4next17h40b6c37bd0435ab5E', symObjAddr: 0x0, symBinAddr: 0x3C5C0, symSize: 0x9C }
  - { offset: 0x13A8EB, size: 0x8, addend: 0x0, symName: _PyInit_rust_core, symObjAddr: 0x0, symBinAddr: 0x3C65C, symSize: 0x34 }
  - { offset: 0x13A910, size: 0x8, addend: 0x0, symName: __ZN9rust_core9rust_core9_PYO3_DEF17h3434535b5e4aa301E, symObjAddr: 0x50, symBinAddr: 0x11C498, symSize: 0x0 }
  - { offset: 0x13A91D, size: 0x8, addend: 0x0, symName: _PyInit_rust_core, symObjAddr: 0x0, symBinAddr: 0x3C65C, symSize: 0x34 }
  - { offset: 0x13C575, size: 0x8, addend: 0x0, symName: '__ZN4core3ptr9const_ptr33_$LT$impl$u20$$BP$const$u20$T$GT$20offset_from_unsigned18precondition_check17h98a0a098e73b87d4E', symObjAddr: 0x0, symBinAddr: 0x3C690, symSize: 0xAC }
  - { offset: 0x13C85F, size: 0x8, addend: 0x0, symName: '__ZN4core3ptr9const_ptr33_$LT$impl$u20$$BP$const$u20$T$GT$20offset_from_unsigned18precondition_check17h98a0a098e73b87d4E', symObjAddr: 0x0, symBinAddr: 0x3C690, symSize: 0xAC }
  - { offset: 0x13C95D, size: 0x8, addend: 0x0, symName: '__ZN4core3ptr9const_ptr33_$LT$impl$u20$$BP$const$u20$T$GT$6offset18precondition_check17h5b0c1801f4b80fcbE', symObjAddr: 0xAC, symBinAddr: 0x3C73C, symSize: 0x110 }
  - { offset: 0x13CEF9, size: 0x8, addend: 0x0, symName: __ZN17crossbeam_channel5utils11sleep_until17h92c5c0c38762fb44E, symObjAddr: 0x288, symBinAddr: 0x3C8A4, symSize: 0xB4 }
  - { offset: 0x13CF77, size: 0x8, addend: 0x0, symName: '__ZN17crossbeam_channel7context7Context4with7CONTEXT29_$u7b$$u7b$constant$u7d$$u7d$28_$u7b$$u7b$closure$u7d$$u7d$3VAL17h65240bfea94e1906E', symObjAddr: 0x718C, symBinAddr: 0x11CF40, symSize: 0x0 }
  - { offset: 0x13CF86, size: 0x8, addend: 0x0, symName: '__ZN17crossbeam_channel7context7Context4with7CONTEXT29_$u7b$$u7b$constant$u7d$$u7d$28_$u7b$$u7b$closure$u7d$$u7d$17h9a0fbec5c8957e97E', symObjAddr: 0x2B28, symBinAddr: 0x3C990, symSize: 0x34 }
  - { offset: 0x13CFC4, size: 0x8, addend: 0x0, symName: __ZN17crossbeam_channel7context7Context4with7CONTEXT6__init17h3134c43638016745E, symObjAddr: 0x2B5C, symBinAddr: 0x3C9C4, symSize: 0x18 }
  - { offset: 0x13CFE8, size: 0x8, addend: 0x0, symName: '__ZN17crossbeam_channel7context7Context10try_select28_$u7b$$u7b$closure$u7d$$u7d$17h37622244f6f93abcE', symObjAddr: 0x22E4, symBinAddr: 0x3C958, symSize: 0x28 }
  - { offset: 0x13D01E, size: 0x8, addend: 0x0, symName: '__ZN17crossbeam_channel7context7Context10try_select28_$u7b$$u7b$closure$u7d$$u7d$17h821a0fcd63e3d863E', symObjAddr: 0x230C, symBinAddr: 0x3C980, symSize: 0x10 }
  - { offset: 0x13D328, size: 0x8, addend: 0x0, symName: '__ZN76_$LT$crossbeam_channel..select..Selected$u20$as$u20$core..cmp..PartialEq$GT$2eq17h1bfe33770f8e5d95E', symObjAddr: 0x5DBC, symBinAddr: 0x3E594, symSize: 0xBC }
  - { offset: 0x13D3BE, size: 0x8, addend: 0x0, symName: '__ZN77_$LT$crossbeam_channel..select..Operation$u20$as$u20$core..cmp..PartialEq$GT$2eq17ha5b0e7011affdfbeE', symObjAddr: 0x5EB4, symBinAddr: 0x3E650, symSize: 0x2C }
  - { offset: 0x13D3FE, size: 0x8, addend: 0x0, symName: '__ZN88_$LT$crossbeam_channel..select..Selected$u20$as$u20$core..convert..From$LT$usize$GT$$GT$4from17h22b1b379c4b4cd69E', symObjAddr: 0x61F4, symBinAddr: 0x3E6F8, symSize: 0x78 }
  - { offset: 0x13D44D, size: 0x8, addend: 0x0, symName: '__ZN88_$LT$crossbeam_channel..select..Selected$u20$as$u20$core..convert..Into$LT$usize$GT$$GT$4into17hbed3fb5ed8918e72E', symObjAddr: 0x626C, symBinAddr: 0x3E770, symSize: 0x7C }
  - { offset: 0x13D4E6, size: 0x8, addend: 0x0, symName: '__ZN121_$LT$crossbeam_channel..err..RecvTimeoutError$u20$as$u20$core..convert..From$LT$crossbeam_channel..err..RecvError$GT$$GT$4from17hba5b21180a087543E', symObjAddr: 0x6C, symBinAddr: 0x3C86C, symSize: 0x14 }
  - { offset: 0x13D59C, size: 0x8, addend: 0x0, symName: '__ZN86_$LT$crossbeam_channel..flavors..zero..ZeroToken$u20$as$u20$core..default..Default$GT$7default17h05e00449536315aeE', symObjAddr: 0x6084, symBinAddr: 0x3E6F0, symSize: 0x8 }
  - { offset: 0x13DF13, size: 0x8, addend: 0x0, symName: __ZN4core4sync6atomic12atomic_store17h52c0e5ea4d2e78d7E, symObjAddr: 0x4D48, symBinAddr: 0x3DDF4, symSize: 0x154 }
  - { offset: 0x13E7B1, size: 0x8, addend: 0x0, symName: '__ZN4core3ptr101drop_in_place$LT$std..io..error..ErrorData$LT$alloc..boxed..Box$LT$std..io..error..Custom$GT$$GT$$GT$17h46c854db0695ae5eE', symObjAddr: 0x3F14, symBinAddr: 0x3D85C, symSize: 0x48 }
  - { offset: 0x13E7E0, size: 0x8, addend: 0x0, symName: '__ZN4core3ptr106drop_in_place$LT$alloc..sync..Weak$LT$crossbeam_channel..context..Inner$C$$RF$alloc..alloc..Global$GT$$GT$17h442bef426a4389caE', symObjAddr: 0x3F5C, symBinAddr: 0x3D8A4, symSize: 0x24 }
  - { offset: 0x13E80F, size: 0x8, addend: 0x0, symName: '__ZN4core3ptr108drop_in_place$LT$core..cell..Cell$LT$core..option..Option$LT$crossbeam_channel..context..Context$GT$$GT$$GT$17h449d5d83df7ef397E', symObjAddr: 0x3F80, symBinAddr: 0x3D8C8, symSize: 0x24 }
  - { offset: 0x13E83E, size: 0x8, addend: 0x0, symName: '__ZN4core3ptr114drop_in_place$LT$core..cell..UnsafeCell$LT$core..option..Option$LT$crossbeam_channel..context..Context$GT$$GT$$GT$17h0bbdac62d88074ffE', symObjAddr: 0x3FA4, symBinAddr: 0x3D8EC, symSize: 0x24 }
  - { offset: 0x13E86D, size: 0x8, addend: 0x0, symName: '__ZN4core3ptr118drop_in_place$LT$alloc..boxed..Box$LT$dyn$u20$core..error..Error$u2b$core..marker..Sync$u2b$core..marker..Send$GT$$GT$17ha46606864635d8cbE', symObjAddr: 0x3FC8, symBinAddr: 0x3D910, symSize: 0x80 }
  - { offset: 0x13E90E, size: 0x8, addend: 0x0, symName: '__ZN4core3ptr40drop_in_place$LT$std..thread..Thread$GT$17hbbe02e200c974580E', symObjAddr: 0x43B4, symBinAddr: 0x3D990, symSize: 0x24 }
  - { offset: 0x13E93D, size: 0x8, addend: 0x0, symName: '__ZN4core3ptr42drop_in_place$LT$std..io..error..Error$GT$17h6a8f608868466db8E', symObjAddr: 0x43D8, symBinAddr: 0x3D9B4, symSize: 0x24 }
  - { offset: 0x13E96C, size: 0x8, addend: 0x0, symName: '__ZN4core3ptr43drop_in_place$LT$std..io..error..Custom$GT$17h1c6a4c9d66c4c2d5E', symObjAddr: 0x43FC, symBinAddr: 0x3D9D8, symSize: 0x24 }
  - { offset: 0x13E99B, size: 0x8, addend: 0x0, symName: '__ZN4core3ptr54drop_in_place$LT$crossbeam_channel..context..Inner$GT$17hff9ed28610277765E', symObjAddr: 0x47A8, symBinAddr: 0x3D9FC, symSize: 0x24 }
  - { offset: 0x13E9CA, size: 0x8, addend: 0x0, symName: '__ZN4core3ptr56drop_in_place$LT$crossbeam_channel..context..Context$GT$17h5fed6858ae70762cE', symObjAddr: 0x47CC, symBinAddr: 0x3DA20, symSize: 0x24 }
  - { offset: 0x13E9F9, size: 0x8, addend: 0x0, symName: '__ZN4core3ptr57drop_in_place$LT$std..io..error..repr_bitpacked..Repr$GT$17hfb64dcc7cc7522b6E', symObjAddr: 0x47F0, symBinAddr: 0x3DA44, symSize: 0x24 }
  - { offset: 0x13EA28, size: 0x8, addend: 0x0, symName: '__ZN4core3ptr62drop_in_place$LT$crossbeam_channel..flavors..tick..Channel$GT$17ha4ef18dff270eaabE', symObjAddr: 0x4814, symBinAddr: 0x3DA68, symSize: 0x24 }
  - { offset: 0x13EA57, size: 0x8, addend: 0x0, symName: '__ZN4core3ptr63drop_in_place$LT$alloc..sync..Arc$LT$std..thread..Inner$GT$$GT$17h615c849a44530524E', symObjAddr: 0x4838, symBinAddr: 0x3DA8C, symSize: 0x24 }
  - { offset: 0x13EA86, size: 0x8, addend: 0x0, symName: '__ZN4core3ptr68drop_in_place$LT$alloc..boxed..Box$LT$std..io..error..Custom$GT$$GT$17h5e7bd34d2b0827feE', symObjAddr: 0x485C, symBinAddr: 0x3DAB0, symSize: 0x60 }
  - { offset: 0x13EAB5, size: 0x8, addend: 0x0, symName: '__ZN4core3ptr78drop_in_place$LT$alloc..sync..Arc$LT$crossbeam_channel..context..Inner$GT$$GT$17h5ef8e4eccab5bc9dE', symObjAddr: 0x48BC, symBinAddr: 0x3DB10, symSize: 0x24 }
  - { offset: 0x13EAE9, size: 0x8, addend: 0x0, symName: __ZN4core3ptr7replace18precondition_check17h1ca0dfc48ee18abcE, symObjAddr: 0x48E0, symBinAddr: 0x3DB34, symSize: 0x16C }
  - { offset: 0x13EC38, size: 0x8, addend: 0x0, symName: '__ZN4core3ptr81drop_in_place$LT$core..result..Result$LT$$LP$$RP$$C$std..io..error..Error$GT$$GT$17hc49aa363f2cd3abdE', symObjAddr: 0x4A4C, symBinAddr: 0x3DCA0, symSize: 0x44 }
  - { offset: 0x13EC67, size: 0x8, addend: 0x0, symName: '__ZN4core3ptr82drop_in_place$LT$std..sys..thread_local..abort_on_dtor_unwind..DtorUnwindGuard$GT$17haaa62820eb4b4f9bE', symObjAddr: 0x4A90, symBinAddr: 0x3DCE4, symSize: 0x24 }
  - { offset: 0x13EC96, size: 0x8, addend: 0x0, symName: '__ZN4core3ptr83drop_in_place$LT$alloc..sync..ArcInner$LT$crossbeam_channel..context..Inner$GT$$GT$17hf44fd6a589d959f7E', symObjAddr: 0x4AB4, symBinAddr: 0x3DD08, symSize: 0x24 }
  - { offset: 0x13ECC5, size: 0x8, addend: 0x0, symName: '__ZN4core3ptr84drop_in_place$LT$core..option..Option$LT$crossbeam_channel..context..Context$GT$$GT$17h9f5a151ec41c4475E', symObjAddr: 0x4AD8, symBinAddr: 0x3DD2C, symSize: 0x44 }
  - { offset: 0x13ECF4, size: 0x8, addend: 0x0, symName: '__ZN4core3ptr85drop_in_place$LT$core..pin..Pin$LT$alloc..sync..Arc$LT$std..thread..Inner$GT$$GT$$GT$17ha94cc31f63da011bE', symObjAddr: 0x4B1C, symBinAddr: 0x3DD70, symSize: 0x24 }
  - { offset: 0x13ED23, size: 0x8, addend: 0x0, symName: '__ZN4core3ptr93drop_in_place$LT$std..io..default_write_fmt..Adapter$LT$std..sys..stdio..unix..Stderr$GT$$GT$17h42130901c4314300E', symObjAddr: 0x4BAC, symBinAddr: 0x3DD94, symSize: 0x24 }
  - { offset: 0x13ED52, size: 0x8, addend: 0x0, symName: '__ZN4core3ptr95drop_in_place$LT$crossbeam_utils..atomic..atomic_cell..AtomicCell$LT$std..time..Instant$GT$$GT$17h619b826eab9f579aE', symObjAddr: 0x4BD0, symBinAddr: 0x3DDB8, symSize: 0x24 }
  - { offset: 0x13EF52, size: 0x8, addend: 0x0, symName: __ZN4core3cmp10PartialOrd2ge17hfd921d67b02f63f0E, symObjAddr: 0x3A3C, symBinAddr: 0x3D76C, symSize: 0x70 }
  - { offset: 0x13F01F, size: 0x8, addend: 0x0, symName: '__ZN4core3cmp5impls69_$LT$impl$u20$core..cmp..PartialEq$LT$$RF$B$GT$$u20$for$u20$$RF$A$GT$2eq17h8ef1f95cba77d215E', symObjAddr: 0x3B6C, symBinAddr: 0x3D7DC, symSize: 0x34 }
  - { offset: 0x13F075, size: 0x8, addend: 0x0, symName: __ZN4core3cmp9PartialEq2ne17hf1ffa25260a04ff1E, symObjAddr: 0x3BA0, symBinAddr: 0x3D810, symSize: 0x30 }
  - { offset: 0x13F66C, size: 0x8, addend: 0x0, symName: __ZN4core3ops8function6FnOnce9call_once17hb8e85aeea01da3e0E, symObjAddr: 0x3EF8, symBinAddr: 0x3D840, symSize: 0x1C }
  - { offset: 0x13F707, size: 0x8, addend: 0x0, symName: __ZN4core5slice3raw18from_raw_parts_mut18precondition_check17hae71476f2087f8c0E, symObjAddr: 0x53EC, symBinAddr: 0x3E058, symSize: 0x1D8 }
  - { offset: 0x13FC2D, size: 0x8, addend: 0x0, symName: __ZN4core5alloc6layout6Layout25from_size_align_unchecked18precondition_check17h8dc8645d5c98c46cE, symObjAddr: 0x5044, symBinAddr: 0x3DF9C, symSize: 0xBC }
  - { offset: 0x1401CE, size: 0x8, addend: 0x0, symName: '__ZN78_$LT$std..io..error..repr_bitpacked..Repr$u20$as$u20$core..ops..drop..Drop$GT$4drop28_$u7b$$u7b$closure$u7d$$u7d$17hc0f97ea033145dafE', symObjAddr: 0x5F18, symBinAddr: 0x3E6B4, symSize: 0x3C }
  - { offset: 0x140283, size: 0x8, addend: 0x0, symName: '__ZN78_$LT$std..io..error..repr_bitpacked..Repr$u20$as$u20$core..ops..drop..Drop$GT$4drop17h6d490ed7a9cde01bE', symObjAddr: 0x5EE0, symBinAddr: 0x3E67C, symSize: 0x38 }
  - { offset: 0x1402AC, size: 0x8, addend: 0x0, symName: __ZN3std2io5error14repr_bitpacked11decode_repr17h1712435dc8a4ce79E, symObjAddr: 0x3038, symBinAddr: 0x3CD98, symSize: 0x1DC }
  - { offset: 0x140519, size: 0x8, addend: 0x0, symName: '__ZN3std2io5error14repr_bitpacked4Repr4data28_$u7b$$u7b$closure$u7d$$u7d$17h49a3b1f6fe9fe462E', symObjAddr: 0x39F8, symBinAddr: 0x3D758, symSize: 0x14 }
  - { offset: 0x140551, size: 0x8, addend: 0x0, symName: __ZN3std2io5error14repr_bitpacked11decode_repr17he5c94494bd081b11E, symObjAddr: 0x3214, symBinAddr: 0x3CF74, symSize: 0x1DC }
  - { offset: 0x1407AD, size: 0x8, addend: 0x0, symName: __ZN3std2io5error14repr_bitpacked14kind_from_prim17h1dbf887b411da95eE, symObjAddr: 0x33F0, symBinAddr: 0x3D150, symSize: 0x608 }
  - { offset: 0x141160, size: 0x8, addend: 0x0, symName: __ZN3std2io5Write9write_all17h3f7ee3e70cc97b15E, symObjAddr: 0x2C7C, symBinAddr: 0x3C9DC, symSize: 0x268 }
  - { offset: 0x141308, size: 0x8, addend: 0x0, symName: __ZN3std2io5Write9write_fmt17ha3800509bda1ed62E, symObjAddr: 0x2EE4, symBinAddr: 0x3CC44, symSize: 0x154 }
  - { offset: 0x141413, size: 0x8, addend: 0x0, symName: '__ZN60_$LT$std..time..Instant$u20$as$u20$core..cmp..PartialOrd$GT$11partial_cmp17h7da4e9c16a01d023E', symObjAddr: 0x598C, symBinAddr: 0x3E4D8, symSize: 0x3C }
  - { offset: 0x141626, size: 0x8, addend: 0x0, symName: '__ZN63_$LT$alloc..alloc..Global$u20$as$u20$core..alloc..Allocator$GT$10deallocate17h05d0b8ee22c09ebeE', symObjAddr: 0x59E0, symBinAddr: 0x3E514, symSize: 0x80 }
  - { offset: 0x1416EE, size: 0x8, addend: 0x0, symName: __ZN5alloc5alloc15exchange_malloc17hd62d0915af5e7b77E, symObjAddr: 0x55D4, symBinAddr: 0x3E230, symSize: 0xAC }
  - { offset: 0x141964, size: 0x8, addend: 0x0, symName: '__ZN99_$LT$crossbeam_utils..atomic..atomic_cell..AtomicCell$LT$T$GT$$u20$as$u20$core..ops..drop..Drop$GT$4drop17heee157146815b1c6E', symObjAddr: 0x634C, symBinAddr: 0x3E7EC, symSize: 0x3C }
  - { offset: 0x1419BC, size: 0x8, addend: 0x0, symName: '__ZN15crossbeam_utils6atomic11atomic_cell19AtomicCell$LT$T$GT$6as_ptr17h4662e9c4c842dc7bE', symObjAddr: 0xA4, symBinAddr: 0x3C880, symSize: 0x24 }
  - { offset: 0x141AF0, size: 0x8, addend: 0x0, symName: __ZN17crossbeam_channel7context7Context3new17hcca815b2383dd98cE, symObjAddr: 0x247C, symBinAddr: 0xB6E80, symSize: 0x10C }
  - { offset: 0x141FDA, size: 0x8, addend: 0x0, symName: __ZN4core4sync6atomic11AtomicUsize3new17h5c4676aa5a8f4182E, symObjAddr: 0x4CCC, symBinAddr: 0x3DDDC, symSize: 0x18 }
  - { offset: 0x142010, size: 0x8, addend: 0x0, symName: '__ZN4core4sync6atomic18AtomicPtr$LT$T$GT$3new17h7e0438dc10c17606E', symObjAddr: 0x4FF0, symBinAddr: 0x3DF48, symSize: 0x1C }
  - { offset: 0x142049, size: 0x8, addend: 0x0, symName: '__ZN4core4sync6atomic18AtomicPtr$LT$T$GT$5store17h43b55e20b5ddcea1E', symObjAddr: 0x500C, symBinAddr: 0x3DF64, symSize: 0x38 }
  - { offset: 0x142260, size: 0x8, addend: 0x0, symName: __ZN5alloc5alloc6Global10alloc_impl17h620a4dc7fa2015ddE, symObjAddr: 0x5680, symBinAddr: 0x3E2DC, symSize: 0x1FC }
  - { offset: 0x142852, size: 0x8, addend: 0x0, symName: '__ZN103_$LT$std..sys..thread_local..abort_on_dtor_unwind..DtorUnwindGuard$u20$as$u20$core..ops..drop..Drop$GT$4drop17h9822cd34ee16e5cdE', symObjAddr: 0x0, symBinAddr: 0x3E828, symSize: 0x7C }
  - { offset: 0x14288B, size: 0x8, addend: 0x0, symName: '__ZN17crossbeam_channel5waker17current_thread_id9THREAD_ID29_$u7b$$u7b$constant$u7d$$u7d$28_$u7b$$u7b$closure$u7d$$u7d$3VAL17h16e3a45d1a223be8E', symObjAddr: 0x3CF3, symBinAddr: 0x11CF58, symSize: 0x0 }
  - { offset: 0x142BD8, size: 0x8, addend: 0x0, symName: __ZN3std3sys12thread_local6native4lazy7destroy17h76dc12cea61de80cE, symObjAddr: 0x900, symBinAddr: 0x3EC14, symSize: 0x30 }
  - { offset: 0x142C0E, size: 0x8, addend: 0x0, symName: '__ZN3std3sys12thread_local6native4lazy7destroy28_$u7b$$u7b$closure$u7d$$u7d$17hacbe2d2c1932ca37E', symObjAddr: 0x930, symBinAddr: 0x3EC44, symSize: 0x74 }
  - { offset: 0x142CDB, size: 0x8, addend: 0x0, symName: '__ZN81_$LT$$LP$$RP$$u20$as$u20$std..sys..thread_local..native..lazy..DestroyedState$GT$13register_dtor17h1b6724607921e756E', symObjAddr: 0x2A2C, symBinAddr: 0x3FB58, symSize: 0x34 }
  - { offset: 0x142D36, size: 0x8, addend: 0x0, symName: '__ZN103_$LT$std..sys..thread_local..abort_on_dtor_unwind..DtorUnwindGuard$u20$as$u20$core..ops..drop..Drop$GT$4drop17h9822cd34ee16e5cdE', symObjAddr: 0x0, symBinAddr: 0x3E828, symSize: 0x7C }
  - { offset: 0x142DAA, size: 0x8, addend: 0x0, symName: __ZN3std3sys12thread_local20abort_on_dtor_unwind17h0b5afbbc40915114E, symObjAddr: 0x638, symBinAddr: 0x3EB24, symSize: 0x50 }
  - { offset: 0x142E57, size: 0x8, addend: 0x0, symName: '__ZN77_$LT$std..sys..pal..unix..time..Timespec$u20$as$u20$core..cmp..PartialOrd$GT$11partial_cmp17h61444ce6ad5a33ebE', symObjAddr: 0x297C, symBinAddr: 0x3FAA8, symSize: 0xB0 }
  - { offset: 0x143034, size: 0x8, addend: 0x0, symName: '__ZN81_$LT$std..io..default_write_fmt..Adapter$LT$T$GT$$u20$as$u20$core..fmt..Write$GT$9write_str17h035dca7ed871cfabE', symObjAddr: 0x2A60, symBinAddr: 0x3FB8C, symSize: 0xB4 }
  - { offset: 0x1432E4, size: 0x8, addend: 0x0, symName: __ZN3std2io17default_write_fmt17h8bd91962259b62fcE, symObjAddr: 0x518, symBinAddr: 0x3EA04, symSize: 0x120 }
  - { offset: 0x143928, size: 0x8, addend: 0x0, symName: __ZN4core3mem10needs_drop17h53432968d163984cE, symObjAddr: 0xE9C, symBinAddr: 0x3EE04, symSize: 0xC }
  - { offset: 0x143EE6, size: 0x8, addend: 0x0, symName: '__ZN4core3ptr8non_null16NonNull$LT$T$GT$13new_unchecked18precondition_check17h0961def387022eb9E', symObjAddr: 0xEA8, symBinAddr: 0x3EE10, symSize: 0xA4 }
  - { offset: 0x144A27, size: 0x8, addend: 0x0, symName: __ZN4core3fmt5Write10write_char17h95086ad852d8ddebE, symObjAddr: 0xE08, symBinAddr: 0x3ED70, symSize: 0x70 }
  - { offset: 0x144A8F, size: 0x8, addend: 0x0, symName: __ZN4core3fmt5Write9write_fmt17hfe6092dce3819083E, symObjAddr: 0xE78, symBinAddr: 0x3EDE0, symSize: 0x24 }
  - { offset: 0x144ADD, size: 0x8, addend: 0x0, symName: '__ZN75_$LT$$RF$mut$u20$W$u20$as$u20$core..fmt..Write..write_fmt..SpecWriteFmt$GT$14spec_write_fmt17hcc45f43590d850b9E', symObjAddr: 0x27F8, symBinAddr: 0x3F948, symSize: 0x160 }
  - { offset: 0x144FE8, size: 0x8, addend: 0x0, symName: '__ZN72_$LT$core..option..Option$LT$T$GT$$u20$as$u20$core..default..Default$GT$7default17h1378dbe29d0091baE', symObjAddr: 0x27C8, symBinAddr: 0x3F918, symSize: 0x8 }
  - { offset: 0x145010, size: 0x8, addend: 0x0, symName: '__ZN72_$LT$core..option..Option$LT$T$GT$$u20$as$u20$core..default..Default$GT$7default17h8abdc90f5ff3f0d5E', symObjAddr: 0x27D0, symBinAddr: 0x3F920, symSize: 0xC }
  - { offset: 0x145110, size: 0x8, addend: 0x0, symName: '__ZN106_$LT$core..ops..range..Range$LT$usize$GT$$u20$as$u20$core..slice..index..SliceIndex$LT$$u5b$T$u5d$$GT$$GT$13get_unchecked18precondition_check17h29dc8b30d06465d3E', symObjAddr: 0x7C, symBinAddr: 0x3E8A4, symSize: 0xCC }
  - { offset: 0x145204, size: 0x8, addend: 0x0, symName: '__ZN110_$LT$core..ops..range..RangeFrom$LT$usize$GT$$u20$as$u20$core..slice..index..SliceIndex$LT$$u5b$T$u5d$$GT$$GT$5index17h7c1d9e4a47008cd8E', symObjAddr: 0x234, symBinAddr: 0x3E970, symSize: 0x94 }
  - { offset: 0x145384, size: 0x8, addend: 0x0, symName: '__ZN47_$LT$i32$u20$as$u20$core..iter..range..Step$GT$17forward_unchecked17h79a0dc07dba996c8E', symObjAddr: 0xCB0, symBinAddr: 0x3ECD4, symSize: 0x9C }
  - { offset: 0x14547E, size: 0x8, addend: 0x0, symName: '__ZN4core4iter5range101_$LT$impl$u20$core..iter..traits..iterator..Iterator$u20$for$u20$core..ops..range..Range$LT$A$GT$$GT$4next17h6fa6f2317ef7d3e0E', symObjAddr: 0x1410, symBinAddr: 0x3F27C, symSize: 0x24 }
  - { offset: 0x1454BB, size: 0x8, addend: 0x0, symName: '__ZN89_$LT$core..ops..range..Range$LT$T$GT$$u20$as$u20$core..iter..range..RangeIteratorImpl$GT$9spec_next17h5cba06112757511eE', symObjAddr: 0x2BE4, symBinAddr: 0x3FC40, symSize: 0x90 }
  - { offset: 0x145547, size: 0x8, addend: 0x0, symName: '__ZN63_$LT$I$u20$as$u20$core..iter..traits..collect..IntoIterator$GT$9into_iter17heb95a3a191201d41E', symObjAddr: 0x22BC, symBinAddr: 0x3F4C0, symSize: 0x14 }
  - { offset: 0x145700, size: 0x8, addend: 0x0, symName: '__ZN50_$LT$T$u20$as$u20$core..convert..Into$LT$U$GT$$GT$4into17h38c49b80ac05ca74E', symObjAddr: 0x1C54, symBinAddr: 0x3F36C, symSize: 0x20 }
  - { offset: 0x1457AC, size: 0x8, addend: 0x0, symName: __ZN4core4hint21unreachable_unchecked18precondition_check17hb78976f5e7c812d2E, symObjAddr: 0x1368, symBinAddr: 0x3F1F8, symSize: 0x84 }
  - { offset: 0x14588E, size: 0x8, addend: 0x0, symName: __ZN4core4char7methods15encode_utf8_raw17h0aef400955f1c043E, symObjAddr: 0x102C, symBinAddr: 0x3EF60, symSize: 0x110 }
  - { offset: 0x14598E, size: 0x8, addend: 0x0, symName: __ZN4core4char7methods25encode_utf8_raw_unchecked17h95ac55f6097252a0E, symObjAddr: 0x113C, symBinAddr: 0x3F070, symSize: 0x188 }
  - { offset: 0x1460EC, size: 0x8, addend: 0x0, symName: '__ZN73_$LT$alloc..sync..Arc$LT$T$C$A$GT$$u20$as$u20$core..ops..deref..Deref$GT$5deref17h76c27507b304171aE', symObjAddr: 0x27DC, symBinAddr: 0x3F92C, symSize: 0x1C }
  - { offset: 0x146165, size: 0x8, addend: 0x0, symName: '__ZN71_$LT$alloc..sync..Arc$LT$T$C$A$GT$$u20$as$u20$core..ops..drop..Drop$GT$4drop17h145f106b983f8a4bE', symObjAddr: 0x2360, symBinAddr: 0x3F4D4, symSize: 0xA8 }
  - { offset: 0x14628F, size: 0x8, addend: 0x0, symName: '__ZN71_$LT$alloc..sync..Arc$LT$T$C$A$GT$$u20$as$u20$core..ops..drop..Drop$GT$4drop17hbddc434e0b50a357E', symObjAddr: 0x2408, symBinAddr: 0x3F57C, symSize: 0xA8 }
  - { offset: 0x14643B, size: 0x8, addend: 0x0, symName: '__ZN72_$LT$alloc..sync..Weak$LT$T$C$A$GT$$u20$as$u20$core..ops..drop..Drop$GT$4drop17h3cad90576f0d4215E', symObjAddr: 0x2634, symBinAddr: 0x3F7A8, symSize: 0x170 }
  - { offset: 0x146724, size: 0x8, addend: 0x0, symName: '__ZN72_$LT$alloc..boxed..Box$LT$T$C$A$GT$$u20$as$u20$core..ops..drop..Drop$GT$4drop17h7796ee5d523c57e7E', symObjAddr: 0x24B0, symBinAddr: 0x3F624, symSize: 0xB8 }
  - { offset: 0x14685F, size: 0x8, addend: 0x0, symName: '__ZN72_$LT$alloc..boxed..Box$LT$T$C$A$GT$$u20$as$u20$core..ops..drop..Drop$GT$4drop17h7d0f88cb1ac2720fE', symObjAddr: 0x2568, symBinAddr: 0x3F6DC, symSize: 0xCC }
  - { offset: 0x146A5E, size: 0x8, addend: 0x0, symName: '__ZN3std3sys12thread_local6native4lazy20Storage$LT$T$C$D$GT$11get_or_init17h711745e158d16af3E', symObjAddr: 0x688, symBinAddr: 0x3EB74, symSize: 0xA0 }
  - { offset: 0x146C92, size: 0x8, addend: 0x0, symName: '__ZN3std3sys12thread_local6native4lazy20Storage$LT$T$C$D$GT$16get_or_init_slow17h1c4aa1608fa1c9acE', symObjAddr: 0x728, symBinAddr: 0xB6F8C, symSize: 0x1D8 }
  - { offset: 0x14707A, size: 0x8, addend: 0x0, symName: __ZN3std6thread6Thread2id17he75a78b7a2268273E, symObjAddr: 0xC64, symBinAddr: 0x3ECB8, symSize: 0x1C }
  - { offset: 0x1471DC, size: 0x8, addend: 0x0, symName: '__ZN4core4cell13Cell$LT$T$GT$3new17hf502f041b7a81ce0E', symObjAddr: 0xF64, symBinAddr: 0x3EEB4, symSize: 0x14 }
  - { offset: 0x147230, size: 0x8, addend: 0x0, symName: '__ZN4core4cell13Cell$LT$T$GT$3set17h50e304180e2de460E', symObjAddr: 0xF78, symBinAddr: 0x3EEC8, symSize: 0x40 }
  - { offset: 0x1472DB, size: 0x8, addend: 0x0, symName: '__ZN4core4cell13Cell$LT$T$GT$3set17hb261fa34344a42cbE', symObjAddr: 0xFB8, symBinAddr: 0x3EF08, symSize: 0x1C }
  - { offset: 0x147379, size: 0x8, addend: 0x0, symName: '__ZN4core4cell13Cell$LT$T$GT$4take17h97cff59d162494f7E', symObjAddr: 0xFF0, symBinAddr: 0x3EF24, symSize: 0x3C }
  - { offset: 0x1473FF, size: 0x8, addend: 0x0, symName: __ZN4core4time8Duration9from_secs17h271aa5e6831a95c6E, symObjAddr: 0x168C, symBinAddr: 0x3F2A0, symSize: 0x14 }
  - { offset: 0x14742E, size: 0x8, addend: 0x0, symName: '__ZN4core6result19Result$LT$T$C$E$GT$3map17h9ba6698ea078508aE', symObjAddr: 0x1AC4, symBinAddr: 0x3F2B4, symSize: 0x60 }
  - { offset: 0x1474C0, size: 0x8, addend: 0x0, symName: '__ZN4core6result19Result$LT$T$C$E$GT$7map_err17hc97614b27d832eaeE', symObjAddr: 0x1B24, symBinAddr: 0x3F314, symSize: 0x58 }
  - { offset: 0x1475C7, size: 0x8, addend: 0x0, symName: '__ZN5alloc4sync12Arc$LT$T$GT$3new17h188c5e91292ef754E', symObjAddr: 0x1FCC, symBinAddr: 0x3F38C, symSize: 0xC0 }
  - { offset: 0x1476FF, size: 0x8, addend: 0x0, symName: '__ZN5alloc4sync16Arc$LT$T$C$A$GT$9drop_slow17hfec5e1962bb5e36eE', symObjAddr: 0x21FC, symBinAddr: 0x3F44C, symSize: 0x74 }
  - { offset: 0x147CC9, size: 0x8, addend: 0x0, symName: __ZN15crossbeam_utils6atomic11atomic_cell4lock5LOCKS17hfa55fded7355544bE, symObjAddr: 0x2FD80, symBinAddr: 0x11D280, symSize: 0x0 }
  - { offset: 0x147E15, size: 0x8, addend: 0x0, symName: __ZN4core4sync6atomic23atomic_compare_exchange17h064921e598822b3dE, symObjAddr: 0x2B68, symBinAddr: 0x3FCD0, symSize: 0x514 }
  - { offset: 0x148482, size: 0x8, addend: 0x0, symName: '__ZN77_$LT$std..sys..pal..unix..time..Timespec$u20$as$u20$core..cmp..PartialOrd$GT$11partial_cmp17hc043b477dd057b40E', symObjAddr: 0x4E2C, symBinAddr: 0x401E4, symSize: 0xB0 }
  - { offset: 0x148870, size: 0x8, addend: 0x0, symName: '__ZN60_$LT$std..time..Instant$u20$as$u20$core..cmp..PartialOrd$GT$11partial_cmp17h7e37fa1749f858b9E', symObjAddr: 0x274C, symBinAddr: 0x40364, symSize: 0x3C }
  - { offset: 0x148FDA, size: 0x8, addend: 0x0, symName: __ZN4core3cmp10PartialOrd2lt17h95e26b671824c23aE, symObjAddr: 0x199C, symBinAddr: 0x402CC, symSize: 0x70 }
  - { offset: 0x1492E4, size: 0x8, addend: 0x0, symName: '__ZN48_$LT$$RF$A$u20$as$u20$core..alloc..Allocator$GT$10deallocate17hea502babda578d0aE', symObjAddr: 0x18F4, symBinAddr: 0x40294, symSize: 0x38 }
  - { offset: 0x149454, size: 0x8, addend: 0x0, symName: '__ZN63_$LT$alloc..alloc..Global$u20$as$u20$core..alloc..Allocator$GT$10deallocate17hc8a03a18af093c1fE', symObjAddr: 0x2834, symBinAddr: 0x403A0, symSize: 0x80 }
  - { offset: 0x14972C, size: 0x8, addend: 0x0, symName: '__ZN4core4cell13Cell$LT$T$GT$3get17heffcf5a0231507baE', symObjAddr: 0x2180, symBinAddr: 0x4033C, symSize: 0x18 }
  - { offset: 0x149758, size: 0x8, addend: 0x0, symName: '__ZN4core4cell13Cell$LT$T$GT$3new17hd2e1f2b14a9a4071E', symObjAddr: 0x2198, symBinAddr: 0x40354, symSize: 0x10 }
  - { offset: 0x1498BB, size: 0x8, addend: 0x0, symName: '__ZN45_$LT$T$u20$as$u20$alloc..string..ToString$GT$9to_string17h22200f6e4269aa7dE', symObjAddr: 0xEC, symBinAddr: 0x40458, symSize: 0x24 }
  - { offset: 0x1498F8, size: 0x8, addend: 0x0, symName: '__ZN49_$LT$T$u20$as$u20$alloc..string..SpecToString$GT$14spec_to_string17hf7222382104fdb4fE', symObjAddr: 0x1FC, symBinAddr: 0x4047C, symSize: 0xF4 }
  - { offset: 0x149B1B, size: 0x8, addend: 0x0, symName: '__ZN5alloc3vec16Vec$LT$T$C$A$GT$7set_len18precondition_check17hf431c454cf79cd7eE', symObjAddr: 0x4498, symBinAddr: 0x4106C, symSize: 0xAC }
  - { offset: 0x14A1F9, size: 0x8, addend: 0x0, symName: '__ZN4core3num22_$LT$impl$u20$u128$GT$11to_be_bytes17hc82d4b4298be3df8E', symObjAddr: 0x69C, symBinAddr: 0x405B8, symSize: 0x38 }
  - { offset: 0x14A281, size: 0x8, addend: 0x0, symName: '__ZN4core3num22_$LT$impl$u20$u128$GT$13from_ne_bytes17hfcff9f736b770144E', symObjAddr: 0x754, symBinAddr: 0x405F0, symSize: 0x18 }
  - { offset: 0x14A557, size: 0x8, addend: 0x0, symName: '__ZN53_$LT$core..fmt..Error$u20$as$u20$core..fmt..Debug$GT$3fmt17h4f5b19e227644bcfE', symObjAddr: 0x3FE0, symBinAddr: 0x40F90, symSize: 0x40 }
  - { offset: 0x14A5C2, size: 0x8, addend: 0x0, symName: '__ZN53_$LT$T$u20$as$u20$core..convert..TryInto$LT$U$GT$$GT$8try_into17h125c71c892b0d7fdE', symObjAddr: 0x3F40, symBinAddr: 0x40F68, symSize: 0x28 }
  - { offset: 0x14A60E, size: 0x8, addend: 0x0, symName: '__ZN153_$LT$core..result..Result$LT$T$C$F$GT$$u20$as$u20$core..ops..try_trait..FromResidual$LT$core..result..Result$LT$core..convert..Infallible$C$E$GT$$GT$$GT$13from_residual17h1fbf6b54bb3d4c5eE', symObjAddr: 0x3C, symBinAddr: 0x40420, symSize: 0x18 }
  - { offset: 0x14A657, size: 0x8, addend: 0x0, symName: '__ZN153_$LT$core..result..Result$LT$T$C$F$GT$$u20$as$u20$core..ops..try_trait..FromResidual$LT$core..result..Result$LT$core..convert..Infallible$C$E$GT$$GT$$GT$13from_residual17h7d448c92509d7955E', symObjAddr: 0x54, symBinAddr: 0x40438, symSize: 0x20 }
  - { offset: 0x14A9C1, size: 0x8, addend: 0x0, symName: '__ZN79_$LT$core..result..Result$LT$T$C$E$GT$$u20$as$u20$core..ops..try_trait..Try$GT$6branch17h505202ced156dddeE', symObjAddr: 0x4B5C, symBinAddr: 0x41184, symSize: 0x40 }
  - { offset: 0x14AA3D, size: 0x8, addend: 0x0, symName: '__ZN79_$LT$core..result..Result$LT$T$C$E$GT$$u20$as$u20$core..ops..try_trait..Try$GT$6branch17h7e514e6434961779E', symObjAddr: 0x4C24, symBinAddr: 0x411C4, symSize: 0x6C }
  - { offset: 0x14ABB8, size: 0x8, addend: 0x0, symName: '__ZN4core5slice29_$LT$impl$u20$$u5b$T$u5d$$GT$10chunks_mut17hc68747f662824719E', symObjAddr: 0xC40, symBinAddr: 0x40790, symSize: 0xB0 }
  - { offset: 0x14AC3A, size: 0x8, addend: 0x0, symName: '__ZN4core5slice29_$LT$impl$u20$$u5b$T$u5d$$GT$8is_empty17he6f8b74d324f5920E', symObjAddr: 0xCF0, symBinAddr: 0x40840, symSize: 0x1C }
  - { offset: 0x14B0BE, size: 0x8, addend: 0x0, symName: __ZN4core4char7methods25encode_utf8_raw_unchecked17h5714e2d00b8795caE, symObjAddr: 0xAB8, symBinAddr: 0x40608, symSize: 0x188 }
  - { offset: 0x14B535, size: 0x8, addend: 0x0, symName: '__ZN57_$LT$uuid..rng..imp..RngImp$u20$as$u20$uuid..rng..Rng$GT$4u12828_$u7b$$u7b$closure$u7d$$u7d$17h6f6b05b8c2f3939aE', symObjAddr: 0x4448, symBinAddr: 0x4101C, symSize: 0x50 }
  - { offset: 0x14B585, size: 0x8, addend: 0x0, symName: '__ZN57_$LT$uuid..rng..imp..RngImp$u20$as$u20$uuid..rng..Rng$GT$4u12817hb51c155c55b1dae8E', symObjAddr: 0x43FC, symBinAddr: 0x40FD0, symSize: 0x4C }
  - { offset: 0x14B5C2, size: 0x8, addend: 0x0, symName: __ZN4uuid3rng4u12817he5bdb64948d30479E, symObjAddr: 0x261C, symBinAddr: 0x40EF4, symSize: 0x14 }
  - { offset: 0x14B672, size: 0x8, addend: 0x0, symName: __ZN4uuid3fmt17encode_hyphenated17hab12eb715d3b1616E, symObjAddr: 0x1D54, symBinAddr: 0x4099C, symSize: 0x120 }
  - { offset: 0x14B755, size: 0x8, addend: 0x0, symName: __ZN4uuid3fmt17format_hyphenated17h0b5e37bede7d10beE, symObjAddr: 0x1E74, symBinAddr: 0x40ABC, symSize: 0x3C4 }
  - { offset: 0x14B850, size: 0x8, addend: 0x0, symName: '__ZN4uuid3fmt59_$LT$impl$u20$core..fmt..Display$u20$for$u20$uuid..Uuid$GT$3fmt17hbf3772641515c147E', symObjAddr: 0x2334, symBinAddr: 0x40E94, symSize: 0x2C }
  - { offset: 0x14B890, size: 0x8, addend: 0x0, symName: '__ZN4uuid3fmt60_$LT$impl$u20$core..fmt..LowerHex$u20$for$u20$uuid..Uuid$GT$3fmt17h3c21d5a6de15d64eE', symObjAddr: 0x2360, symBinAddr: 0x40EC0, symSize: 0x34 }
  - { offset: 0x14B8D0, size: 0x8, addend: 0x0, symName: '__ZN61_$LT$uuid..fmt..Hyphenated$u20$as$u20$core..fmt..LowerHex$GT$3fmt17hb6ba7fdfaf5c5dbdE', symObjAddr: 0x46E4, symBinAddr: 0x41118, symSize: 0x6C }
  - { offset: 0x14BF14, size: 0x8, addend: 0x0, symName: '__ZN4core3fmt2rt38_$LT$impl$u20$core..fmt..Arguments$GT$9new_const17hda4c17ffc2b2b6feE', symObjAddr: 0x394, symBinAddr: 0x40570, symSize: 0x48 }
  - { offset: 0x14C04D, size: 0x8, addend: 0x0, symName: __ZN9getrandom8backends10getentropy10fill_inner17h879d000d164507c9E, symObjAddr: 0x50BC, symBinAddr: 0x41230, symSize: 0xFC }
  - { offset: 0x14C0C3, size: 0x8, addend: 0x0, symName: '__ZN4core6result19Result$LT$T$C$E$GT$14unwrap_or_else17he0960e30390bb7d4E', symObjAddr: 0xD94, symBinAddr: 0x4085C, symSize: 0x44 }
  - { offset: 0x14C12E, size: 0x8, addend: 0x0, symName: '__ZN4core6result19Result$LT$T$C$E$GT$6expect17haccfcbf9d9dc116cE', symObjAddr: 0x1094, symBinAddr: 0x408A0, symSize: 0x78 }
  - { offset: 0x14C190, size: 0x8, addend: 0x0, symName: '__ZN4uuid2v428_$LT$impl$u20$uuid..Uuid$GT$6new_v417hcf484cf5926c9b35E', symObjAddr: 0x15A4, symBinAddr: 0x40918, symSize: 0x3C }
  - { offset: 0x14C1EC, size: 0x8, addend: 0x0, symName: __ZN4uuid3fmt10Hyphenated12encode_lower17hd89bbc6d18c9cd85E, symObjAddr: 0x15E0, symBinAddr: 0x40954, symSize: 0x48 }
  - { offset: 0x14C288, size: 0x8, addend: 0x0, symName: '__ZN4uuid3fmt28_$LT$impl$u20$uuid..Uuid$GT$13as_hyphenated17h88fda7fbb6d88ffcE', symObjAddr: 0x2238, symBinAddr: 0x40E80, symSize: 0x14 }
  - { offset: 0x14C33D, size: 0x8, addend: 0x0, symName: __ZN4uuid4Uuid8as_bytes17hef56795a17b2aaf3E, symObjAddr: 0x2EE4, symBinAddr: 0x40F08, symSize: 0x14 }
  - { offset: 0x14C360, size: 0x8, addend: 0x0, symName: '__ZN4uuid7builder28_$LT$impl$u20$uuid..Uuid$GT$10from_bytes17h82628c5027491d8cE', symObjAddr: 0x3220, symBinAddr: 0x40F1C, symSize: 0xC }
  - { offset: 0x14C383, size: 0x8, addend: 0x0, symName: '__ZN4uuid7builder28_$LT$impl$u20$uuid..Uuid$GT$9from_u12817h079c181f368a3198E', symObjAddr: 0x368C, symBinAddr: 0x40F28, symSize: 0x40 }
  - { offset: 0x14C4C9, size: 0x8, addend: 0x0, symName: '__ZN106_$LT$core..ops..range..Range$LT$usize$GT$$u20$as$u20$core..slice..index..SliceIndex$LT$$u5b$T$u5d$$GT$$GT$9index_mut17hb2b9c65c3bab793bE', symObjAddr: 0x0, symBinAddr: 0x4132C, symSize: 0xBC }
  - { offset: 0x14C5A2, size: 0x8, addend: 0x0, symName: '__ZN58_$LT$alloc..string..String$u20$as$u20$core..fmt..Write$GT$10write_char17h657bd9ac9d5aad64E', symObjAddr: 0x3870, symBinAddr: 0x4162C, symSize: 0x38 }
  - { offset: 0x14C5DF, size: 0x8, addend: 0x0, symName: '__ZN58_$LT$alloc..string..String$u20$as$u20$core..fmt..Write$GT$9write_str17hddc916ed80fab4c1E', symObjAddr: 0x38A8, symBinAddr: 0x41664, symSize: 0x40 }
  - { offset: 0x14CA25, size: 0x8, addend: 0x0, symName: '__ZN4core3ptr42drop_in_place$LT$alloc..string..String$GT$17hc85a95561afb1d98E', symObjAddr: 0x81C, symBinAddr: 0x4150C, symSize: 0x24 }
  - { offset: 0x14CA54, size: 0x8, addend: 0x0, symName: '__ZN4core3ptr46drop_in_place$LT$alloc..vec..Vec$LT$u8$GT$$GT$17h02b9ceb3f5ee3849E', symObjAddr: 0x840, symBinAddr: 0x41530, symSize: 0x5C }
  - { offset: 0x14CA83, size: 0x8, addend: 0x0, symName: '__ZN4core3ptr53drop_in_place$LT$alloc..raw_vec..RawVec$LT$u8$GT$$GT$17hee04d2d122a2cdbeE', symObjAddr: 0x89C, symBinAddr: 0x4158C, symSize: 0x24 }
  - { offset: 0x14CDAB, size: 0x8, addend: 0x0, symName: __ZN4core3cmp3Ord3min17hf8725a2069f4c1d1E, symObjAddr: 0x190, symBinAddr: 0x4143C, symSize: 0x80 }
  - { offset: 0x14D0B1, size: 0x8, addend: 0x0, symName: '__ZN106_$LT$core..ops..range..Range$LT$usize$GT$$u20$as$u20$core..slice..index..SliceIndex$LT$$u5b$T$u5d$$GT$$GT$9index_mut17hb2b9c65c3bab793bE', symObjAddr: 0x0, symBinAddr: 0x4132C, symSize: 0xBC }
  - { offset: 0x14D162, size: 0x8, addend: 0x0, symName: '__ZN108_$LT$core..ops..range..RangeTo$LT$usize$GT$$u20$as$u20$core..slice..index..SliceIndex$LT$$u5b$T$u5d$$GT$$GT$9index_mut17h5f892a5ed70290a5E', symObjAddr: 0xBC, symBinAddr: 0x413E8, symSize: 0x54 }
  - { offset: 0x14D2A1, size: 0x8, addend: 0x0, symName: '__ZN96_$LT$core..slice..iter..ChunksMut$LT$T$GT$$u20$as$u20$core..iter..traits..iterator..Iterator$GT$4next17hf3d3601fcbafb40dE', symObjAddr: 0x405C, symBinAddr: 0x419FC, symSize: 0x110 }
  - { offset: 0x14D672, size: 0x8, addend: 0x0, symName: __ZN4core3fmt5Write9write_fmt17hf6b3fa1f30cfebd8E, symObjAddr: 0x2C0, symBinAddr: 0x414E8, symSize: 0x24 }
  - { offset: 0x14D6C0, size: 0x8, addend: 0x0, symName: '__ZN75_$LT$$RF$mut$u20$W$u20$as$u20$core..fmt..Write..write_fmt..SpecWriteFmt$GT$14spec_write_fmt17he01750646f10b6e8E', symObjAddr: 0x3C9C, symBinAddr: 0x4189C, symSize: 0x160 }
  - { offset: 0x14D7FB, size: 0x8, addend: 0x0, symName: '__ZN63_$LT$I$u20$as$u20$core..iter..traits..collect..IntoIterator$GT$9into_iter17h8a376b3cd14842ffE', symObjAddr: 0x3B40, symBinAddr: 0x41830, symSize: 0x18 }
  - { offset: 0x14DBA6, size: 0x8, addend: 0x0, symName: __ZN4core3str8converts23from_utf8_unchecked_mut17hfe4aa56f35c944bdE, symObjAddr: 0xA00, symBinAddr: 0x415B0, symSize: 0x18 }
  - { offset: 0x14DC65, size: 0x8, addend: 0x0, symName: '__ZN4core5array118_$LT$impl$u20$core..convert..TryFrom$LT$$RF$mut$u20$$u5b$T$u5d$$GT$$u20$for$u20$$RF$mut$u20$$u5b$T$u3b$$u20$N$u5d$$GT$8try_from17h0638c193e2a48dc8E', symObjAddr: 0xE18, symBinAddr: 0x415C8, symSize: 0x64 }
  - { offset: 0x14DD77, size: 0x8, addend: 0x0, symName: '__ZN67_$LT$core..array..TryFromSliceError$u20$as$u20$core..fmt..Debug$GT$3fmt17h18728464775b2253E', symObjAddr: 0x3BC0, symBinAddr: 0x41848, symSize: 0x54 }
  - { offset: 0x14DF79, size: 0x8, addend: 0x0, symName: __ZN9getrandom11fill_uninit17h4f8c29a1774b6cafE, symObjAddr: 0x416C, symBinAddr: 0x41B0C, symSize: 0xBC }
  - { offset: 0x14DFDF, size: 0x8, addend: 0x0, symName: __ZN9getrandom4fill17h5d6c8dc7de56b127E, symObjAddr: 0x4228, symBinAddr: 0x41BC8, symSize: 0xB0 }
  - { offset: 0x14E05A, size: 0x8, addend: 0x0, symName: __ZN4core3fmt2rt8Argument11new_display17h6d4602ae318f74adE, symObjAddr: 0x294, symBinAddr: 0x414BC, symSize: 0x2C }
  - { offset: 0x14E3D2, size: 0x8, addend: 0x0, symName: __ZN5alloc6string6String4push17he7efbf61c96d3f9fE, symObjAddr: 0x38E8, symBinAddr: 0x416A4, symSize: 0x13C }
  - { offset: 0x14E6C4, size: 0x8, addend: 0x0, symName: __ZN5alloc6string6String8push_str17h8b93f7bf3d4fd5f1E, symObjAddr: 0x3A9C, symBinAddr: 0x417E0, symSize: 0x50 }
  - { offset: 0x14EE8D, size: 0x8, addend: 0x0, symName: __ZN4core3ptr4read17hc757e251ce76adc1E, symObjAddr: 0x490, symBinAddr: 0x41F4C, symSize: 0x18 }
  - { offset: 0x14EF9D, size: 0x8, addend: 0x0, symName: '__ZN4core3num21_$LT$impl$u20$i32$GT$11checked_neg17h4d1f7cd0ce69a972E', symObjAddr: 0x2E0, symBinAddr: 0x41E70, symSize: 0xBC }
  - { offset: 0x14F280, size: 0x8, addend: 0x0, symName: '__ZN4core3fmt2rt38_$LT$impl$u20$core..fmt..Arguments$GT$6new_v117he124a13acbb2ef30E', symObjAddr: 0x58, symBinAddr: 0x41C78, symSize: 0x50 }
  - { offset: 0x14F2BD, size: 0x8, addend: 0x0, symName: __ZN4core3fmt2rt8Argument11new_display17hf807594e39e24badE, symObjAddr: 0xA8, symBinAddr: 0x41CC8, symSize: 0x2C }
  - { offset: 0x14F35A, size: 0x8, addend: 0x0, symName: __ZN4core3fmt9Formatter9write_fmt17hc43d154ecc004e0eE, symObjAddr: 0x164, symBinAddr: 0x41CF4, symSize: 0x17C }
  - { offset: 0x14F449, size: 0x8, addend: 0x0, symName: '__ZN4core3num7nonzero16NonZero$LT$T$GT$3get17h40e764129ffb8034E', symObjAddr: 0x470, symBinAddr: 0x41F2C, symSize: 0x10 }
  - { offset: 0x14F475, size: 0x8, addend: 0x0, symName: '__ZN4core3num7nonzero16NonZero$LT$T$GT$3new17h7f74f64a63a1f653E', symObjAddr: 0x480, symBinAddr: 0x41F3C, symSize: 0x10 }
  - { offset: 0x14F4A1, size: 0x8, addend: 0x0, symName: '__ZN4core6option15Option$LT$T$GT$6expect17h028628206c3bd540E', symObjAddr: 0x4A8, symBinAddr: 0x41F64, symSize: 0x5C }
  - { offset: 0x14F4DC, size: 0x8, addend: 0x0, symName: '__ZN4core6option15Option$LT$T$GT$6expect17h807052018322bd53E', symObjAddr: 0x504, symBinAddr: 0x41FC0, symSize: 0x60 }
  - { offset: 0x14F526, size: 0x8, addend: 0x0, symName: '__ZN62_$LT$getrandom..error..Error$u20$as$u20$core..fmt..Display$GT$3fmt17hdeacbe5cc46a84ecE', symObjAddr: 0x6E0, symBinAddr: 0x42020, symSize: 0x154 }
  - { offset: 0x14F672, size: 0x8, addend: 0x0, symName: __ZN9getrandom8backends10getentropy5utils9get_errno17h21e861a6305ee613E, symObjAddr: 0xACC, symBinAddr: 0x42364, symSize: 0x20 }
  - { offset: 0x14F693, size: 0x8, addend: 0x0, symName: __ZN9getrandom5error5Error10from_errno17hb4d91c6464d20679E, symObjAddr: 0x834, symBinAddr: 0x42174, symSize: 0x70 }
  - { offset: 0x14F6D2, size: 0x8, addend: 0x0, symName: __ZN9getrandom5error5Error12raw_os_error17h07c26a2b1ac5d753E, symObjAddr: 0x94C, symBinAddr: 0x421E4, symSize: 0x54 }
  - { offset: 0x14F71E, size: 0x8, addend: 0x0, symName: __ZN9getrandom5error5Error13internal_desc17h5ce00db5f2e10cc9E, symObjAddr: 0x9A0, symBinAddr: 0x42238, symSize: 0xC0 }
  - { offset: 0x14F75D, size: 0x8, addend: 0x0, symName: __ZN9getrandom5error5Error19from_neg_error_code17ha41ad0dd3af1afc3E, symObjAddr: 0xA60, symBinAddr: 0x422F8, symSize: 0x6C }
  - { offset: 0x14F90A, size: 0x8, addend: 0x0, symName: __ZN16parking_lot_core11parking_lot10unpark_one17h1d48ff130222f8ebE, symObjAddr: 0x474, symBinAddr: 0x42384, symSize: 0x5FC }
  - { offset: 0x14FA68, size: 0x8, addend: 0x0, symName: __ZN16parking_lot_core11parking_lot11lock_bucket17hf6baae15a46fd563E, symObjAddr: 0x1128, symBinAddr: 0x42A2C, symSize: 0x100 }
  - { offset: 0x14FAE8, size: 0x8, addend: 0x0, symName: __ZN16parking_lot_core11parking_lot13get_hashtable17heaac00ff2d85ce45E, symObjAddr: 0x1228, symBinAddr: 0x42B2C, symSize: 0xA0 }
  - { offset: 0x14FB23, size: 0x8, addend: 0x0, symName: __ZN16parking_lot_core11parking_lot13unpark_filter17h2957028e9f7abbf3E, symObjAddr: 0x2A30, symBinAddr: 0x42BCC, symSize: 0x7CC }
  - { offset: 0x14FCC7, size: 0x8, addend: 0x0, symName: __ZN16parking_lot_core11parking_lot13unpark_filter17he4491f50c237c847E, symObjAddr: 0x31FC, symBinAddr: 0x43398, symSize: 0x7D0 }
  - { offset: 0x14FE7A, size: 0x8, addend: 0x0, symName: '__ZN16parking_lot_core11parking_lot16with_thread_data11THREAD_DATA29_$u7b$$u7b$constant$u7d$$u7d$28_$u7b$$u7b$closure$u7d$$u7d$17h05f0bf60dd5fae00E', symObjAddr: 0x511C, symBinAddr: 0x43B68, symSize: 0x34 }
  - { offset: 0x14FEB8, size: 0x8, addend: 0x0, symName: __ZN16parking_lot_core11parking_lot16with_thread_data11THREAD_DATA6__init17hb3c1744f61e45a41E, symObjAddr: 0x5150, symBinAddr: 0x43B9C, symSize: 0x14 }
  - { offset: 0x14FED6, size: 0x8, addend: 0x0, symName: '__ZN16parking_lot_core11parking_lot16with_thread_data28_$u7b$$u7b$closure$u7d$$u7d$17h0ebf2afd2eb43992E', symObjAddr: 0x5164, symBinAddr: 0x43BB0, symSize: 0x14 }
  - { offset: 0x14FF1E, size: 0x8, addend: 0x0, symName: '__ZN16parking_lot_core11parking_lot16with_thread_data28_$u7b$$u7b$closure$u7d$$u7d$17h25a6e853a470a39eE', symObjAddr: 0x519C, symBinAddr: 0x43BC4, symSize: 0x14 }
  - { offset: 0x14FF66, size: 0x8, addend: 0x0, symName: '__ZN16parking_lot_core11parking_lot16with_thread_data28_$u7b$$u7b$closure$u7d$$u7d$17h3fba724fd528df3eE', symObjAddr: 0x51B0, symBinAddr: 0x43BD8, symSize: 0x24 }
  - { offset: 0x14FFB0, size: 0x8, addend: 0x0, symName: '__ZN16parking_lot_core11parking_lot16with_thread_data28_$u7b$$u7b$closure$u7d$$u7d$17h5ae39d3219a5c9a8E', symObjAddr: 0x520C, symBinAddr: 0x43BFC, symSize: 0x24 }
  - { offset: 0x14FFFA, size: 0x8, addend: 0x0, symName: '__ZN16parking_lot_core11parking_lot16with_thread_data28_$u7b$$u7b$closure$u7d$$u7d$17h7b6611d40bef84d6E', symObjAddr: 0x5230, symBinAddr: 0x43C20, symSize: 0x24 }
  - { offset: 0x150044, size: 0x8, addend: 0x0, symName: '__ZN16parking_lot_core11parking_lot16with_thread_data28_$u7b$$u7b$closure$u7d$$u7d$17ha25414a4b125bdbaE', symObjAddr: 0x528C, symBinAddr: 0x43C44, symSize: 0x14 }
  - { offset: 0x1500A2, size: 0x8, addend: 0x0, symName: __ZN16parking_lot_core11parking_lot19lock_bucket_checked17h18c197d05fc8ef34E, symObjAddr: 0x5340, symBinAddr: 0x43C58, symSize: 0x134 }
  - { offset: 0x150140, size: 0x8, addend: 0x0, symName: __ZN16parking_lot_core11parking_lot4hash17h3a1fe04c4f81a9e2E, symObjAddr: 0x5474, symBinAddr: 0x43D8C, symSize: 0x90 }
  - { offset: 0x1502D0, size: 0x8, addend: 0x0, symName: '__ZN16parking_lot_core11parking_lot4park28_$u7b$$u7b$closure$u7d$$u7d$17h4348e21cfd291fceE', symObjAddr: 0x673C, symBinAddr: 0x4429C, symSize: 0x7C4 }
  - { offset: 0x1504BC, size: 0x8, addend: 0x0, symName: '__ZN16parking_lot_core11parking_lot4park28_$u7b$$u7b$closure$u7d$$u7d$17ha9eb48bdbd5dee50E', symObjAddr: 0x76C4, symBinAddr: 0x44A60, symSize: 0x7C8 }
  - { offset: 0x1506A8, size: 0x8, addend: 0x0, symName: '__ZN16parking_lot_core11parking_lot4park28_$u7b$$u7b$closure$u7d$$u7d$17hf1685bae584c6981E', symObjAddr: 0x8E40, symBinAddr: 0x45228, symSize: 0x7C8 }
  - { offset: 0x150895, size: 0x8, addend: 0x0, symName: __ZN16parking_lot_core11parking_lot4park17h031502470861d14cE, symObjAddr: 0x5504, symBinAddr: 0x43E1C, symSize: 0x184 }
  - { offset: 0x1509C2, size: 0x8, addend: 0x0, symName: __ZN16parking_lot_core11parking_lot4park17h4c82fa23aa00aef9E, symObjAddr: 0x5688, symBinAddr: 0x43FA0, symSize: 0x184 }
  - { offset: 0x150AEF, size: 0x8, addend: 0x0, symName: __ZN16parking_lot_core11parking_lot4park17ha6a019515a784859E, symObjAddr: 0x5B20, symBinAddr: 0x44124, symSize: 0x178 }
  - { offset: 0x150BD8, size: 0x8, addend: 0x0, symName: '__ZN86_$LT$parking_lot_core..parking_lot..UnparkResult$u20$as$u20$core..default..Default$GT$7default17h275f7f96dc3e06e8E', symObjAddr: 0x97B0, symBinAddr: 0x45A50, symSize: 0x14 }
  - { offset: 0x150D64, size: 0x8, addend: 0x0, symName: '__ZN4core3ptr9const_ptr66_$LT$impl$u20$core..cmp..PartialEq$u20$for$u20$$BP$const$u20$T$GT$2eq17he5602d16fb4446b1E', symObjAddr: 0x963C, symBinAddr: 0x459F0, symSize: 0x2C }
  - { offset: 0x151187, size: 0x8, addend: 0x0, symName: '__ZN4core5slice29_$LT$impl$u20$$u5b$T$u5d$$GT$8iter_mut17h9c602bf1dc603e32E', symObjAddr: 0x9668, symBinAddr: 0x45A1C, symSize: 0x28 }
  - { offset: 0x1513DA, size: 0x8, addend: 0x0, symName: __ZN16parking_lot_core11parking_lot11FairTimeout14should_timeout17h4059ff1c0a18e154E, symObjAddr: 0x107C, symBinAddr: 0x42980, symSize: 0xAC }
  - { offset: 0x1515FC, size: 0x8, addend: 0x0, symName: '__ZN58_$LT$$u5b$T$u3b$$u20$8$u5d$$u20$as$u20$smallvec..Array$GT$4size17h526d4c46e0f700cbE', symObjAddr: 0x9690, symBinAddr: 0x45A44, symSize: 0xC }
  - { offset: 0x151913, size: 0x8, addend: 0x0, symName: '__ZN65_$LT$smallvec..CollectionAllocErr$u20$as$u20$core..fmt..Debug$GT$3fmt17hcf87c71ee6ca5d01E', symObjAddr: 0x55A4, symBinAddr: 0x48388, symSize: 0xAC }
  - { offset: 0x151974, size: 0x8, addend: 0x0, symName: '__ZN69_$LT$smallvec..IntoIter$LT$A$GT$$u20$as$u20$core..ops..drop..Drop$GT$4drop17h1024630647c47d99E', symObjAddr: 0x5690, symBinAddr: 0x48434, symSize: 0x50 }
  - { offset: 0x1519CB, size: 0x8, addend: 0x0, symName: '__ZN69_$LT$smallvec..SmallVec$LT$A$GT$$u20$as$u20$core..ops..drop..Drop$GT$4drop17he5cac6062d87ac0eE', symObjAddr: 0x57A8, symBinAddr: 0x48484, symSize: 0x84 }
  - { offset: 0x151A32, size: 0x8, addend: 0x0, symName: '__ZN74_$LT$smallvec..SmallVec$LT$A$GT$$u20$as$u20$core..ops..deref..DerefMut$GT$9deref_mut17h5dad9001aed7343bE', symObjAddr: 0x58C4, symBinAddr: 0x48554, symSize: 0x4C }
  - { offset: 0x151A9D, size: 0x8, addend: 0x0, symName: '__ZN83_$LT$smallvec..SmallVec$LT$A$GT$$u20$as$u20$core..ops..index..IndexMut$LT$I$GT$$GT$9index_mut17h2e3eb7bf6faa935dE', symObjAddr: 0x5AB4, symBinAddr: 0x486B8, symSize: 0xA0 }
  - { offset: 0x151B10, size: 0x8, addend: 0x0, symName: '__ZN86_$LT$smallvec..IntoIter$LT$A$GT$$u20$as$u20$core..iter..traits..iterator..Iterator$GT$4next17ha3d2aa3a5d045930E', symObjAddr: 0x5BF4, symBinAddr: 0x48758, symSize: 0xD0 }
  - { offset: 0x151B89, size: 0x8, addend: 0x0, symName: '__ZN89_$LT$smallvec..SmallVec$LT$A$GT$$u20$as$u20$core..iter..traits..collect..IntoIterator$GT$9into_iter17hec6256b7605f8f20E', symObjAddr: 0x5E24, symBinAddr: 0x48828, symSize: 0xB0 }
  - { offset: 0x151BE0, size: 0x8, addend: 0x0, symName: __ZN8smallvec10deallocate17hdf4e8b3fc52f8654E, symObjAddr: 0x5ED4, symBinAddr: 0x488D8, symSize: 0xBC }
  - { offset: 0x151C78, size: 0x8, addend: 0x0, symName: __ZN8smallvec10infallible17h820aed9df74326e9E, symObjAddr: 0x604C, symBinAddr: 0x48994, symSize: 0x7C }
  - { offset: 0x151CCE, size: 0x8, addend: 0x0, symName: __ZN8smallvec12ConstNonNull17hbbe568451e34a8c4E, symObjAddr: 0x60DC, symBinAddr: 0x48A10, symSize: 0x14 }
  - { offset: 0x151D02, size: 0x8, addend: 0x0, symName: __ZN8smallvec12layout_array17h1c0a33816faad2f9E, symObjAddr: 0x60F0, symBinAddr: 0x48A24, symSize: 0xB0 }
  - { offset: 0x151D98, size: 0x8, addend: 0x0, symName: '__ZN8smallvec12layout_array28_$u7b$$u7b$closure$u7d$$u7d$17h6a2a9b9cbef0ca38E', symObjAddr: 0x6260, symBinAddr: 0x48AD4, symSize: 0x10 }
  - { offset: 0x1524EB, size: 0x8, addend: 0x0, symName: '__ZN4core3ptr8non_null16NonNull$LT$T$GT$13new_unchecked18precondition_check17h7b9caed5b0f932a6E', symObjAddr: 0x2ECC, symBinAddr: 0x46D04, symSize: 0xA4 }
  - { offset: 0x152AF0, size: 0x8, addend: 0x0, symName: '__ZN4core3ptr188drop_in_place$LT$alloc..vec..Vec$LT$$LP$$BP$const$u20$parking_lot_core..parking_lot..ThreadData$C$core..option..Option$LT$parking_lot_core..thread_parker..imp..UnparkHandle$GT$$RP$$GT$$GT$17h0fdbbb8df4475746E', symObjAddr: 0x27F0, symBinAddr: 0x46684, symSize: 0x5C }
  - { offset: 0x152B1F, size: 0x8, addend: 0x0, symName: '__ZN4core3ptr195drop_in_place$LT$alloc..raw_vec..RawVec$LT$$LP$$BP$const$u20$parking_lot_core..parking_lot..ThreadData$C$core..option..Option$LT$parking_lot_core..thread_parker..imp..UnparkHandle$GT$$RP$$GT$$GT$17h62fe949999b0113bE', symObjAddr: 0x284C, symBinAddr: 0x466E0, symSize: 0x24 }
  - { offset: 0x152B53, size: 0x8, addend: 0x0, symName: __ZN4core3ptr19copy_nonoverlapping18precondition_check17hdd11f81bc10ccfecE, symObjAddr: 0x2870, symBinAddr: 0x46704, symSize: 0x36C }
  - { offset: 0x152E2E, size: 0x8, addend: 0x0, symName: '__ZN4core3ptr212drop_in_place$LT$smallvec..IntoIter$LT$$u5b$$LP$$BP$const$u20$parking_lot_core..parking_lot..ThreadData$C$core..option..Option$LT$parking_lot_core..thread_parker..imp..UnparkHandle$GT$$RP$$u3b$$u20$8$u5d$$GT$$GT$17h0cd7899f600bd7ffE', symObjAddr: 0x2BDC, symBinAddr: 0x46A70, symSize: 0x5C }
  - { offset: 0x152E5D, size: 0x8, addend: 0x0, symName: '__ZN4core3ptr212drop_in_place$LT$smallvec..SmallVec$LT$$u5b$$LP$$BP$const$u20$parking_lot_core..parking_lot..ThreadData$C$core..option..Option$LT$parking_lot_core..thread_parker..imp..UnparkHandle$GT$$RP$$u3b$$u20$8$u5d$$GT$$GT$17he734afea035101b8E', symObjAddr: 0x2C38, symBinAddr: 0x46ACC, symSize: 0x24 }
  - { offset: 0x152E8C, size: 0x8, addend: 0x0, symName: __ZN4core3ptr4read17hf408398b23b48b09E, symObjAddr: 0x2C74, symBinAddr: 0x46AF0, symSize: 0x28 }
  - { offset: 0x152EC3, size: 0x8, addend: 0x0, symName: __ZN4core3ptr5write17h98302b01cbb1eb9aE, symObjAddr: 0x2C9C, symBinAddr: 0x46B18, symSize: 0x24 }
  - { offset: 0x152F05, size: 0x8, addend: 0x0, symName: '__ZN4core3ptr62drop_in_place$LT$parking_lot_core..parking_lot..ThreadData$GT$17hce88b643d64f204dE', symObjAddr: 0x2CE0, symBinAddr: 0x46B3C, symSize: 0x5C }
  - { offset: 0x152F39, size: 0x8, addend: 0x0, symName: __ZN4core3ptr7replace18precondition_check17h18955c62ca982145E, symObjAddr: 0x2D60, symBinAddr: 0x46B98, symSize: 0x16C }
  - { offset: 0x153088, size: 0x8, addend: 0x0, symName: '__ZN4core3ptr90drop_in_place$LT$core..option..Option$LT$parking_lot_core..parking_lot..ThreadData$GT$$GT$17h5fc2207bb18c2920E', symObjAddr: 0x30A0, symBinAddr: 0x46E6C, symSize: 0x40 }
  - { offset: 0x153195, size: 0x8, addend: 0x0, symName: __ZN4core3cmp10PartialOrd2gt17ha35479380c0d0754E, symObjAddr: 0x17F0, symBinAddr: 0x45EC0, symSize: 0x70 }
  - { offset: 0x153257, size: 0x8, addend: 0x0, symName: __ZN4core3cmp10PartialOrd2le17h034379a9a0d3369fE, symObjAddr: 0x1860, symBinAddr: 0x45F30, symSize: 0x70 }
  - { offset: 0x15354A, size: 0x8, addend: 0x0, symName: __ZN4core4sync6atomic11atomic_load17h2193569c10c1075bE, symObjAddr: 0x34A4, symBinAddr: 0x47214, symSize: 0x150 }
  - { offset: 0x1535BC, size: 0x8, addend: 0x0, symName: __ZN4core4sync6atomic12atomic_store17h3ceb8d92c0da7c95E, symObjAddr: 0x3744, symBinAddr: 0x47364, symSize: 0x154 }
  - { offset: 0x153639, size: 0x8, addend: 0x0, symName: __ZN4core4sync6atomic12atomic_store17h73a851338f76f529E, symObjAddr: 0x3898, symBinAddr: 0x474B8, symSize: 0x154 }
  - { offset: 0x1536B6, size: 0x8, addend: 0x0, symName: __ZN4core4sync6atomic28atomic_compare_exchange_weak17h94d72e1fb3abfedeE, symObjAddr: 0x40F4, symBinAddr: 0x4760C, symSize: 0x54C }
  - { offset: 0x1541FC, size: 0x8, addend: 0x0, symName: '__ZN4core3num21_$LT$impl$u20$i64$GT$11checked_add17h571193d3f78b37a0E', symObjAddr: 0x1950, symBinAddr: 0x45FB4, symSize: 0x6C }
  - { offset: 0x1542B1, size: 0x8, addend: 0x0, symName: '__ZN4core3num23_$LT$impl$u20$usize$GT$11checked_add17h000da9c2860b2ff2E', symObjAddr: 0x19BC, symBinAddr: 0x46020, symSize: 0x7C }
  - { offset: 0x154336, size: 0x8, addend: 0x0, symName: '__ZN4core3num23_$LT$impl$u20$usize$GT$11checked_mul17hbaf3e7d49d015defE', symObjAddr: 0x1A38, symBinAddr: 0x4609C, symSize: 0x74 }
  - { offset: 0x15444C, size: 0x8, addend: 0x0, symName: '__ZN4core3num23_$LT$impl$u20$usize$GT$25checked_next_power_of_two17h8dd2b7f284d7fd68E', symObjAddr: 0x1AAC, symBinAddr: 0x46110, symSize: 0xC0 }
  - { offset: 0x154832, size: 0x8, addend: 0x0, symName: __ZN4core3mem4drop17h3bde1e8fd2c93948E, symObjAddr: 0x1918, symBinAddr: 0x45FA0, symSize: 0x14 }
  - { offset: 0x1548DF, size: 0x8, addend: 0x0, symName: __ZN4core3ops8function6FnOnce9call_once17h04263822ada20fefE, symObjAddr: 0x1B7C, symBinAddr: 0x461D0, symSize: 0x4C }
  - { offset: 0x154923, size: 0x8, addend: 0x0, symName: __ZN4core3ops8function6FnOnce9call_once17h0859c9a164be55e1E, symObjAddr: 0x1BC8, symBinAddr: 0x4621C, symSize: 0x6C }
  - { offset: 0x154967, size: 0x8, addend: 0x0, symName: __ZN4core3ops8function6FnOnce9call_once17h0e44097fd5c2702eE, symObjAddr: 0x1CE0, symBinAddr: 0x46288, symSize: 0x1C }
  - { offset: 0x1549AB, size: 0x8, addend: 0x0, symName: __ZN4core3ops8function6FnOnce9call_once17h1480576f518078e6E, symObjAddr: 0x1D38, symBinAddr: 0x462A4, symSize: 0x3C }
  - { offset: 0x1549EB, size: 0x8, addend: 0x0, symName: __ZN4core3ops8function6FnOnce9call_once17h3d4e6a99641abe43E, symObjAddr: 0x1E54, symBinAddr: 0x462E0, symSize: 0x64 }
  - { offset: 0x154A2F, size: 0x8, addend: 0x0, symName: __ZN4core3ops8function6FnOnce9call_once17h4e7d237d7882c53dE, symObjAddr: 0x1F10, symBinAddr: 0x46344, symSize: 0x50 }
  - { offset: 0x154A73, size: 0x8, addend: 0x0, symName: __ZN4core3ops8function6FnOnce9call_once17h57ef7eb2539bfdb6E, symObjAddr: 0x1F60, symBinAddr: 0x46394, symSize: 0x3C }
  - { offset: 0x154AB3, size: 0x8, addend: 0x0, symName: __ZN4core3ops8function6FnOnce9call_once17h5c9965095396403fE, symObjAddr: 0x1FE0, symBinAddr: 0x463D0, symSize: 0x3C }
  - { offset: 0x154AF3, size: 0x8, addend: 0x0, symName: __ZN4core3ops8function6FnOnce9call_once17h638dfbc81cb6c6bfE, symObjAddr: 0x201C, symBinAddr: 0x4640C, symSize: 0x70 }
  - { offset: 0x154B37, size: 0x8, addend: 0x0, symName: __ZN4core3ops8function6FnOnce9call_once17h7b71e847c4ff12ceE, symObjAddr: 0x20C8, symBinAddr: 0x4647C, symSize: 0x58 }
  - { offset: 0x154B77, size: 0x8, addend: 0x0, symName: __ZN4core3ops8function6FnOnce9call_once17h7baa990bd9c7b489E, symObjAddr: 0x216C, symBinAddr: 0x464D4, symSize: 0x1C }
  - { offset: 0x154BBB, size: 0x8, addend: 0x0, symName: __ZN4core3ops8function6FnOnce9call_once17h88943ad1d629bf7fE, symObjAddr: 0x2238, symBinAddr: 0x464F0, symSize: 0x24 }
  - { offset: 0x154BFF, size: 0x8, addend: 0x0, symName: __ZN4core3ops8function6FnOnce9call_once17h92e54b98525d804dE, symObjAddr: 0x225C, symBinAddr: 0x46514, symSize: 0x4C }
  - { offset: 0x154C43, size: 0x8, addend: 0x0, symName: __ZN4core3ops8function6FnOnce9call_once17h95a47787c106f0b5E, symObjAddr: 0x22A8, symBinAddr: 0x46560, symSize: 0x24 }
  - { offset: 0x154C87, size: 0x8, addend: 0x0, symName: __ZN4core3ops8function6FnOnce9call_once17hd816709696f70a60E, symObjAddr: 0x248C, symBinAddr: 0x46584, symSize: 0x58 }
  - { offset: 0x154CC7, size: 0x8, addend: 0x0, symName: __ZN4core3ops8function6FnOnce9call_once17hdf4f22796ee42582E, symObjAddr: 0x24E4, symBinAddr: 0x465DC, symSize: 0x58 }
  - { offset: 0x154D07, size: 0x8, addend: 0x0, symName: __ZN4core3ops8function6FnOnce9call_once17he3acab1a3d212a8fE, symObjAddr: 0x25A8, symBinAddr: 0x46634, symSize: 0x50 }
  - { offset: 0x155A21, size: 0x8, addend: 0x0, symName: __ZN4core9ub_checks23maybe_is_nonoverlapping7runtime17hab49f7d0421b5231E, symObjAddr: 0x4F74, symBinAddr: 0x47FC0, symSize: 0xD8 }
  - { offset: 0x155C45, size: 0x8, addend: 0x0, symName: __ZN4core5slice3raw18from_raw_parts_mut17h732efab6c08277e0E, symObjAddr: 0x4C90, symBinAddr: 0x47D34, symSize: 0x5C }
  - { offset: 0x155C8D, size: 0x8, addend: 0x0, symName: __ZN4core5slice3raw18from_raw_parts_mut18precondition_check17h83060a3dc896b277E, symObjAddr: 0x4D44, symBinAddr: 0x47D90, symSize: 0x1D8 }
  - { offset: 0x155E85, size: 0x8, addend: 0x0, symName: '__ZN94_$LT$core..slice..iter..IterMut$LT$T$GT$$u20$as$u20$core..iter..traits..iterator..Iterator$GT$4next17h3fe0135f8215eb70E', symObjAddr: 0x7C40, symBinAddr: 0x496EC, symSize: 0xA8 }
  - { offset: 0x155FF5, size: 0x8, addend: 0x0, symName: '__ZN97_$LT$core..ops..range..RangeFull$u20$as$u20$core..slice..index..SliceIndex$LT$$u5b$T$u5d$$GT$$GT$9index_mut17hadb9db6ac60f6635E', symObjAddr: 0x7CE8, symBinAddr: 0x49794, symSize: 0x18 }
  - { offset: 0x15604E, size: 0x8, addend: 0x0, symName: '__ZN63_$LT$I$u20$as$u20$core..iter..traits..collect..IntoIterator$GT$9into_iter17hc9398a24b528eee6E', symObjAddr: 0x5464, symBinAddr: 0x48328, symSize: 0x30 }
  - { offset: 0x156086, size: 0x8, addend: 0x0, symName: '__ZN63_$LT$I$u20$as$u20$core..iter..traits..collect..IntoIterator$GT$9into_iter17hdce70d863c49bb7aE', symObjAddr: 0x5494, symBinAddr: 0x48358, symSize: 0x14 }
  - { offset: 0x1560BD, size: 0x8, addend: 0x0, symName: '__ZN63_$LT$I$u20$as$u20$core..iter..traits..collect..IntoIterator$GT$9into_iter17he69fda17e6137773E', symObjAddr: 0x54A8, symBinAddr: 0x4836C, symSize: 0x1C }
  - { offset: 0x156100, size: 0x8, addend: 0x0, symName: '__ZN72_$LT$$RF$mut$u20$I$u20$as$u20$core..iter..traits..iterator..Iterator$GT$4next17hc90f3770896f9e17E', symObjAddr: 0x589C, symBinAddr: 0x4852C, symSize: 0x28 }
  - { offset: 0x156146, size: 0x8, addend: 0x0, symName: __ZN11parking_lot7elision12have_elision17h4eea72e40091d013E, symObjAddr: 0x9F0, symBinAddr: 0x45A64, symSize: 0xC }
  - { offset: 0x156168, size: 0x8, addend: 0x0, symName: '__ZN90_$LT$core..sync..atomic..AtomicUsize$u20$as$u20$parking_lot..elision..AtomicElisionExt$GT$32elision_compare_exchange_acquire17hfe86ab26d1507014E', symObjAddr: 0x7BB4, symBinAddr: 0x496B8, symSize: 0x34 }
  - { offset: 0x1562E8, size: 0x8, addend: 0x0, symName: __ZN16parking_lot_core11parking_lot8deadlock9on_unpark17h4e3dccf6a98ffa9cE, symObjAddr: 0xA1C, symBinAddr: 0x45A70, symSize: 0x10 }
  - { offset: 0x156423, size: 0x8, addend: 0x0, symName: __ZN16parking_lot_core4util11unreachable17h1671229648b4a730E, symObjAddr: 0xA2C, symBinAddr: 0x45A80, symSize: 0x24 }
  - { offset: 0x1564D8, size: 0x8, addend: 0x0, symName: '__ZN60_$LT$std..time..Instant$u20$as$u20$core..cmp..PartialOrd$GT$11partial_cmp17h045c5c870c9d4f02E', symObjAddr: 0x53F8, symBinAddr: 0x482EC, symSize: 0x3C }
  - { offset: 0x1565B8, size: 0x8, addend: 0x0, symName: '__ZN77_$LT$std..sys..pal..unix..time..Timespec$u20$as$u20$core..cmp..PartialOrd$GT$11partial_cmp17hd3af3e354b89d5faE', symObjAddr: 0x59C0, symBinAddr: 0x485D4, symSize: 0xB0 }
  - { offset: 0x15669F, size: 0x8, addend: 0x0, symName: __ZN3std3sys12thread_local20abort_on_dtor_unwind17hf8101726df8e2084E, symObjAddr: 0xA50, symBinAddr: 0x45AA4, symSize: 0x50 }
  - { offset: 0x156820, size: 0x8, addend: 0x0, symName: __ZN3std3sys12thread_local6native4lazy7destroy17hd2a83daf17c845d0E, symObjAddr: 0x1040, symBinAddr: 0x45B94, symSize: 0x30 }
  - { offset: 0x156856, size: 0x8, addend: 0x0, symName: '__ZN3std3sys12thread_local6native4lazy7destroy28_$u7b$$u7b$closure$u7d$$u7d$17h71a0e58ea334f7b4E', symObjAddr: 0x1070, symBinAddr: 0x45BC4, symSize: 0x74 }
  - { offset: 0x156923, size: 0x8, addend: 0x0, symName: '__ZN81_$LT$$LP$$RP$$u20$as$u20$std..sys..thread_local..native..lazy..DestroyedState$GT$13register_dtor17h2966d5987c009de3E', symObjAddr: 0x5A80, symBinAddr: 0x48684, symSize: 0x34 }
  - { offset: 0x156C6A, size: 0x8, addend: 0x0, symName: '__ZN3std3sys12thread_local6native4lazy20Storage$LT$T$C$D$GT$11get_or_init17h7ea25c68780ea23cE', symObjAddr: 0xB48, symBinAddr: 0x45AF4, symSize: 0xA0 }
  - { offset: 0x156ED5, size: 0x8, addend: 0x0, symName: '__ZN3std3sys12thread_local6native4lazy20Storage$LT$T$C$D$GT$16get_or_init_slow17he11e03f7aa6bd94cE', symObjAddr: 0xDDC, symBinAddr: 0xB7164, symSize: 0x264 }
  - { offset: 0x1572AA, size: 0x8, addend: 0x0, symName: '__ZN3std6thread5local17LocalKey$LT$T$GT$8try_with17h003e63b4ef54bdb7E', symObjAddr: 0x1138, symBinAddr: 0x45C38, symSize: 0xD8 }
  - { offset: 0x15742C, size: 0x8, addend: 0x0, symName: '__ZN3std6thread5local17LocalKey$LT$T$GT$8try_with17h3ddb1507220cce2fE', symObjAddr: 0x1210, symBinAddr: 0x45D10, symSize: 0xD8 }
  - { offset: 0x1575AE, size: 0x8, addend: 0x0, symName: '__ZN3std6thread5local17LocalKey$LT$T$GT$8try_with17h88c1764f74cb7968E', symObjAddr: 0x1498, symBinAddr: 0x45DE8, symSize: 0xD8 }
  - { offset: 0x157989, size: 0x8, addend: 0x0, symName: '__ZN4core3ptr8non_null16NonNull$LT$T$GT$3new17h30c3e5668f8d5adaE', symObjAddr: 0x2F70, symBinAddr: 0x46DA8, symSize: 0x58 }
  - { offset: 0x157A45, size: 0x8, addend: 0x0, symName: '__ZN4core3ptr8non_null16NonNull$LT$T$GT$3new17had3f8a3c78155585E', symObjAddr: 0x3020, symBinAddr: 0x46E00, symSize: 0x58 }
  - { offset: 0x157A87, size: 0x8, addend: 0x0, symName: '__ZN4core3ptr8non_null16NonNull$LT$T$GT$4cast17had33d9cd71c586c6E', symObjAddr: 0x3078, symBinAddr: 0x46E58, symSize: 0x14 }
  - { offset: 0x157AC9, size: 0x8, addend: 0x0, symName: __ZN4core4sync6atomic11AtomicUsize21compare_exchange_weak17h97cfe9906ad672aeE, symObjAddr: 0x313C, symBinAddr: 0x46EAC, symSize: 0x3C }
  - { offset: 0x157B28, size: 0x8, addend: 0x0, symName: __ZN4core4sync6atomic11AtomicUsize4load17h19a8f954e6aa7a80E, symObjAddr: 0x3178, symBinAddr: 0x46EE8, symSize: 0x30 }
  - { offset: 0x157B5A, size: 0x8, addend: 0x0, symName: __ZN4core4sync6atomic11AtomicUsize5store17he81a67d159f963e3E, symObjAddr: 0x31A8, symBinAddr: 0x46F18, symSize: 0x34 }
  - { offset: 0x157BD1, size: 0x8, addend: 0x0, symName: __ZN4core4sync6atomic11AtomicUsize9fetch_add17h2e3d5d4f6d134d3fE, symObjAddr: 0x31DC, symBinAddr: 0x46F4C, symSize: 0xE0 }
  - { offset: 0x157C7C, size: 0x8, addend: 0x0, symName: __ZN4core4sync6atomic11AtomicUsize9fetch_and17h7d2adb50637b15a8E, symObjAddr: 0x32BC, symBinAddr: 0x4702C, symSize: 0xF4 }
  - { offset: 0x157D27, size: 0x8, addend: 0x0, symName: __ZN4core4sync6atomic11AtomicUsize9fetch_sub17hb040201eeedd5652E, symObjAddr: 0x33B0, symBinAddr: 0x47120, symSize: 0xF4 }
  - { offset: 0x157E0F, size: 0x8, addend: 0x0, symName: __ZN4core4time8Duration12subsec_nanos17ha531582e10f61fb8E, symObjAddr: 0x4AB4, symBinAddr: 0x47B58, symSize: 0x18 }
  - { offset: 0x157E6A, size: 0x8, addend: 0x0, symName: __ZN4core4time8Duration3new17hae4580b884612748E, symObjAddr: 0x4ACC, symBinAddr: 0x47B70, symSize: 0x124 }
  - { offset: 0x157F2E, size: 0x8, addend: 0x0, symName: __ZN4core4time8Duration7as_secs17h991e76106bac8386E, symObjAddr: 0x4BF0, symBinAddr: 0x47C94, symSize: 0x18 }
  - { offset: 0x157F51, size: 0x8, addend: 0x0, symName: __ZN4core5alloc6layout6Layout15from_size_align17h25b1bf51385cfc0fE, symObjAddr: 0x4C08, symBinAddr: 0x47CAC, symSize: 0x70 }
  - { offset: 0x157F81, size: 0x8, addend: 0x0, symName: __ZN4core5alloc6layout6Layout4size17h991aa3a2155cd7c7E, symObjAddr: 0x4C78, symBinAddr: 0x47D1C, symSize: 0x18 }
  - { offset: 0x158070, size: 0x8, addend: 0x0, symName: '__ZN4core5slice4iter16IterMut$LT$T$GT$3new17h12b7be4ca66b02eeE', symObjAddr: 0x4F1C, symBinAddr: 0x47F68, symSize: 0x58 }
  - { offset: 0x158240, size: 0x8, addend: 0x0, symName: '__ZN5alloc3vec16Vec$LT$T$C$A$GT$17from_raw_parts_in18precondition_check17hd56dfaaec645d915E', symObjAddr: 0x51F4, symBinAddr: 0x4816C, symSize: 0xAC }
  - { offset: 0x1582AF, size: 0x8, addend: 0x0, symName: '__ZN70_$LT$alloc..vec..Vec$LT$T$C$A$GT$$u20$as$u20$core..ops..drop..Drop$GT$4drop17h7e4ce5cee7d05c49E', symObjAddr: 0x582C, symBinAddr: 0x48508, symSize: 0x24 }
  - { offset: 0x15836E, size: 0x8, addend: 0x0, symName: __ZN5alloc5alloc5alloc17hbde8f2ed41baead2E, symObjAddr: 0x52A0, symBinAddr: 0x48218, symSize: 0x48 }
  - { offset: 0x1583D4, size: 0x8, addend: 0x0, symName: __ZN5alloc5alloc7dealloc17h165ad7a2ea7bb765E, symObjAddr: 0x52E8, symBinAddr: 0x48260, symSize: 0x44 }
  - { offset: 0x158444, size: 0x8, addend: 0x0, symName: __ZN5alloc5alloc7realloc17ha059fe7210357090E, symObjAddr: 0x532C, symBinAddr: 0x482A4, symSize: 0x48 }
  - { offset: 0x158681, size: 0x8, addend: 0x0, symName: '__ZN77_$LT$alloc..raw_vec..RawVec$LT$T$C$A$GT$$u20$as$u20$core..ops..drop..Drop$GT$4drop17h3dc87773a5b4b57cE', symObjAddr: 0x595C, symBinAddr: 0x485A0, symSize: 0x34 }
  - { offset: 0x1586C0, size: 0x8, addend: 0x0, symName: '__ZN5alloc3vec12Vec$LT$T$GT$14from_raw_parts17h179662de08add0acE', symObjAddr: 0x504C, symBinAddr: 0x48098, symSize: 0x2C }
  - { offset: 0x1587DE, size: 0x8, addend: 0x0, symName: '__ZN5alloc3vec16Vec$LT$T$C$A$GT$17from_raw_parts_in17h43d0adaf87557f61E', symObjAddr: 0x514C, symBinAddr: 0x480C4, symSize: 0xA8 }
  - { offset: 0x158B50, size: 0x8, addend: 0x0, symName: '__ZN8smallvec17SmallVec$LT$A$GT$10triple_mut17ha869987da18e6f96E', symObjAddr: 0x6270, symBinAddr: 0x48AE4, symSize: 0xA0 }
  - { offset: 0x158BAA, size: 0x8, addend: 0x0, symName: '__ZN8smallvec17SmallVec$LT$A$GT$15inline_capacity17hef17c523515f78ddE', symObjAddr: 0x63F0, symBinAddr: 0x48B84, symSize: 0x40 }
  - { offset: 0x158BC7, size: 0x8, addend: 0x0, symName: '__ZN8smallvec17SmallVec$LT$A$GT$21reserve_one_unchecked17heab1f8bd84d79a59E', symObjAddr: 0x6504, symBinAddr: 0xB73C8, symSize: 0xD4 }
  - { offset: 0x158C6A, size: 0x8, addend: 0x0, symName: '__ZN8smallvec17SmallVec$LT$A$GT$3len17hd4f53d8d15c549b9E', symObjAddr: 0x6604, symBinAddr: 0x48BC4, symSize: 0x2C }
  - { offset: 0x158C96, size: 0x8, addend: 0x0, symName: '__ZN8smallvec17SmallVec$LT$A$GT$3new17h8b0d1988cd2e04eaE', symObjAddr: 0x6630, symBinAddr: 0x48BF0, symSize: 0xB4 }
  - { offset: 0x158CCF, size: 0x8, addend: 0x0, symName: '__ZN8smallvec17SmallVec$LT$A$GT$4push17he4ce4696e3c3e875E', symObjAddr: 0x68F4, symBinAddr: 0x48CA4, symSize: 0x17C }
  - { offset: 0x158DB5, size: 0x8, addend: 0x0, symName: '__ZN8smallvec17SmallVec$LT$A$GT$6as_ptr17h125dbdb9d4677a4dE', symObjAddr: 0x6A70, symBinAddr: 0x48E20, symSize: 0x30 }
  - { offset: 0x158E0A, size: 0x8, addend: 0x0, symName: '__ZN8smallvec17SmallVec$LT$A$GT$6triple17hef88bdbd28575aa9E', symObjAddr: 0x6B6C, symBinAddr: 0x48E50, symSize: 0x9C }
  - { offset: 0x158E64, size: 0x8, addend: 0x0, symName: '__ZN8smallvec17SmallVec$LT$A$GT$7set_len17h16f9c8667d2c2213E', symObjAddr: 0x6C08, symBinAddr: 0x48EEC, symSize: 0x44 }
  - { offset: 0x158EBD, size: 0x8, addend: 0x0, symName: '__ZN8smallvec17SmallVec$LT$A$GT$7spilled17hf5107449ae7a06afE', symObjAddr: 0x6C90, symBinAddr: 0x48F30, symSize: 0x38 }
  - { offset: 0x158EE9, size: 0x8, addend: 0x0, symName: '__ZN8smallvec17SmallVec$LT$A$GT$8capacity17h88993d1bbb85fb16E', symObjAddr: 0x6D00, symBinAddr: 0x48F68, symSize: 0x2C }
  - { offset: 0x158F15, size: 0x8, addend: 0x0, symName: '__ZN8smallvec17SmallVec$LT$A$GT$8try_grow17he3ee077204acc42aE', symObjAddr: 0x71C0, symBinAddr: 0x48F94, symSize: 0x484 }
  - { offset: 0x15910A, size: 0x8, addend: 0x0, symName: '__ZN8smallvec21ConstNonNull$LT$T$GT$3new17h75a19f434a599366E', symObjAddr: 0x766C, symBinAddr: 0x49418, symSize: 0x28 }
  - { offset: 0x159136, size: 0x8, addend: 0x0, symName: '__ZN8smallvec21ConstNonNull$LT$T$GT$6as_ptr17h363c1b1e6ef25147E', symObjAddr: 0x7694, symBinAddr: 0x49440, symSize: 0x1C }
  - { offset: 0x15919A, size: 0x8, addend: 0x0, symName: '__ZN8smallvec21SmallVecData$LT$A$GT$10inline_mut17h633dc1bb990dee9cE', symObjAddr: 0x76CC, symBinAddr: 0x4945C, symSize: 0x94 }
  - { offset: 0x159202, size: 0x8, addend: 0x0, symName: '__ZN8smallvec21SmallVecData$LT$A$GT$11from_inline17h12bf4cafff23d7f2E', symObjAddr: 0x77F4, symBinAddr: 0x494F0, symSize: 0x38 }
  - { offset: 0x15925A, size: 0x8, addend: 0x0, symName: '__ZN8smallvec21SmallVecData$LT$A$GT$4heap17hd1ef8e2131d9fb28E', symObjAddr: 0x7864, symBinAddr: 0x49528, symSize: 0x68 }
  - { offset: 0x1592DF, size: 0x8, addend: 0x0, symName: '__ZN8smallvec21SmallVecData$LT$A$GT$6inline17h5596b10443525e07E', symObjAddr: 0x79C8, symBinAddr: 0x49590, symSize: 0x94 }
  - { offset: 0x159365, size: 0x8, addend: 0x0, symName: '__ZN8smallvec21SmallVecData$LT$A$GT$8heap_mut17hf805f74ec0c9fb20E', symObjAddr: 0x7AC4, symBinAddr: 0x49624, symSize: 0x68 }
  - { offset: 0x1593BF, size: 0x8, addend: 0x0, symName: '__ZN8smallvec21SmallVecData$LT$A$GT$9from_heap17h8a64477bef67ee67E', symObjAddr: 0x7B58, symBinAddr: 0x4968C, symSize: 0x2C }
  - { offset: 0x159632, size: 0x8, addend: 0x0, symName: '__ZN101_$LT$core..option..Option$LT$T$GT$$u20$as$u20$parking_lot_core..util..UncheckedOptionExt$LT$T$GT$$GT$16unchecked_unwrap17h1914f645c864ecd6E', symObjAddr: 0x0, symBinAddr: 0x497AC, symSize: 0x38 }
  - { offset: 0x159994, size: 0x8, addend: 0x0, symName: '__ZN11parking_lot10raw_rwlock9RawRwLock19lock_exclusive_slow28_$u7b$$u7b$closure$u7d$$u7d$17h925429ea13e2c8c3E', symObjAddr: 0x1B60, symBinAddr: 0x4AB88, symSize: 0xA8 }
  - { offset: 0x159A16, size: 0x8, addend: 0x0, symName: '__ZN11parking_lot10raw_rwlock9RawRwLock16lock_shared_slow28_$u7b$$u7b$closure$u7d$$u7d$17h660f6cdeddb788a0E', symObjAddr: 0x1488, symBinAddr: 0x4A6D8, symSize: 0x18C }
  - { offset: 0x159ABD, size: 0x8, addend: 0x0, symName: '__ZN11parking_lot10raw_rwlock9RawRwLock11lock_common28_$u7b$$u7b$closure$u7d$$u7d$17h730d131a62500247E', symObjAddr: 0xFF4, symBinAddr: 0x4A540, symSize: 0x74 }
  - { offset: 0x159B29, size: 0x8, addend: 0x0, symName: '__ZN11parking_lot10raw_rwlock9RawRwLock11lock_common28_$u7b$$u7b$closure$u7d$$u7d$17h9758c19203f4dec8E', symObjAddr: 0x1078, symBinAddr: 0x4A5B4, symSize: 0x48 }
  - { offset: 0x159B79, size: 0x8, addend: 0x0, symName: '__ZN11parking_lot10raw_rwlock9RawRwLock11lock_common28_$u7b$$u7b$closure$u7d$$u7d$17hb9985d3a5c23a4e9E', symObjAddr: 0x1108, symBinAddr: 0x4A5FC, symSize: 0x74 }
  - { offset: 0x159BE5, size: 0x8, addend: 0x0, symName: '__ZN11parking_lot10raw_rwlock9RawRwLock11lock_common28_$u7b$$u7b$closure$u7d$$u7d$17hc28e2b69ddde45d3E', symObjAddr: 0x117C, symBinAddr: 0x4A670, symSize: 0x10 }
  - { offset: 0x159C14, size: 0x8, addend: 0x0, symName: '__ZN11parking_lot10raw_rwlock9RawRwLock11lock_common28_$u7b$$u7b$closure$u7d$$u7d$17hc4c050c24291e8e9E', symObjAddr: 0x118C, symBinAddr: 0x4A680, symSize: 0x10 }
  - { offset: 0x159C43, size: 0x8, addend: 0x0, symName: '__ZN11parking_lot10raw_rwlock9RawRwLock11lock_common28_$u7b$$u7b$closure$u7d$$u7d$17hca0084910718de7cE', symObjAddr: 0x119C, symBinAddr: 0x4A690, symSize: 0x48 }
  - { offset: 0x159D22, size: 0x8, addend: 0x0, symName: '__ZN11parking_lot10raw_rwlock9RawRwLock16wait_for_readers28_$u7b$$u7b$closure$u7d$$u7d$17h11e36ccf834bf774E', symObjAddr: 0x18D4, symBinAddr: 0x4AA34, symSize: 0x10 }
  - { offset: 0x159D48, size: 0x8, addend: 0x0, symName: '__ZN11parking_lot10raw_rwlock9RawRwLock16wait_for_readers28_$u7b$$u7b$closure$u7d$$u7d$17h6ca64f0328767bfbE', symObjAddr: 0x18E4, symBinAddr: 0x4AA44, symSize: 0x4C }
  - { offset: 0x159D94, size: 0x8, addend: 0x0, symName: '__ZN11parking_lot10raw_rwlock9RawRwLock16wait_for_readers28_$u7b$$u7b$closure$u7d$$u7d$17h7b27dea292cb37c2E', symObjAddr: 0x1930, symBinAddr: 0x4AA90, symSize: 0x60 }
  - { offset: 0x159DDB, size: 0x8, addend: 0x0, symName: '__ZN11parking_lot10raw_rwlock9RawRwLock16wait_for_readers28_$u7b$$u7b$closure$u7d$$u7d$17h7bccdf3fc3ef069dE', symObjAddr: 0x1990, symBinAddr: 0x4AAF0, symSize: 0x64 }
  - { offset: 0x159E70, size: 0x8, addend: 0x0, symName: '__ZN11parking_lot10raw_rwlock9RawRwLock18unlock_shared_slow28_$u7b$$u7b$closure$u7d$$u7d$17h8ad9500e1638eae1E', symObjAddr: 0x1A50, symBinAddr: 0x4AB54, symSize: 0x34 }
  - { offset: 0x159F21, size: 0x8, addend: 0x0, symName: '__ZN11parking_lot10raw_rwlock9RawRwLock21unlock_exclusive_slow28_$u7b$$u7b$closure$u7d$$u7d$17heca887bbdbb457b3E', symObjAddr: 0x2A70, symBinAddr: 0x4B0B4, symSize: 0xE8 }
  - { offset: 0x159F8B, size: 0x8, addend: 0x0, symName: '__ZN11parking_lot10raw_rwlock9RawRwLock19wake_parked_threads28_$u7b$$u7b$closure$u7d$$u7d$17h64dd5907e6faab5aE', symObjAddr: 0x2084, symBinAddr: 0x4ADAC, symSize: 0xB8 }
  - { offset: 0x159FE6, size: 0x8, addend: 0x0, symName: '__ZN11parking_lot10raw_rwlock9RawRwLock19wake_parked_threads28_$u7b$$u7b$closure$u7d$$u7d$17h83f58310bc9adcd3E', symObjAddr: 0x213C, symBinAddr: 0x4AE64, symSize: 0xB8 }
  - { offset: 0x15A040, size: 0x8, addend: 0x0, symName: '__ZN11parking_lot10raw_rwlock9RawRwLock19wake_parked_threads28_$u7b$$u7b$closure$u7d$$u7d$17h8e8f87fae15e5d95E', symObjAddr: 0x22AC, symBinAddr: 0x4AF1C, symSize: 0xCC }
  - { offset: 0x15A0B1, size: 0x8, addend: 0x0, symName: '__ZN11parking_lot10raw_rwlock9RawRwLock19wake_parked_threads28_$u7b$$u7b$closure$u7d$$u7d$17ha0e9e1adadf4a017E', symObjAddr: 0x2378, symBinAddr: 0x4AFE8, symSize: 0xCC }
  - { offset: 0x15B057, size: 0x8, addend: 0x0, symName: '__ZN153_$LT$core..result..Result$LT$T$C$F$GT$$u20$as$u20$core..ops..try_trait..FromResidual$LT$core..result..Result$LT$core..convert..Infallible$C$E$GT$$GT$$GT$13from_residual17hb4351d16d172b577E', symObjAddr: 0x33F8, symBinAddr: 0x4B19C, symSize: 0x38 }
  - { offset: 0x15B0BE, size: 0x8, addend: 0x0, symName: '__ZN153_$LT$core..result..Result$LT$T$C$F$GT$$u20$as$u20$core..ops..try_trait..FromResidual$LT$core..result..Result$LT$core..convert..Infallible$C$E$GT$$GT$$GT$13from_residual17hcf2d77ef8baf0ddbE', symObjAddr: 0x3430, symBinAddr: 0x4B1D4, symSize: 0x24 }
  - { offset: 0x15B703, size: 0x8, addend: 0x0, symName: '__ZN79_$LT$core..result..Result$LT$T$C$E$GT$$u20$as$u20$core..ops..try_trait..Try$GT$6branch17h1c216747a9a63842E', symObjAddr: 0x44B0, symBinAddr: 0x4BE5C, symSize: 0x74 }
  - { offset: 0x15B780, size: 0x8, addend: 0x0, symName: '__ZN79_$LT$core..result..Result$LT$T$C$E$GT$$u20$as$u20$core..ops..try_trait..Try$GT$6branch17h80be59c4e5ec80f7E', symObjAddr: 0x4524, symBinAddr: 0x4BED0, symSize: 0x70 }
  - { offset: 0x15B7FD, size: 0x8, addend: 0x0, symName: '__ZN79_$LT$core..result..Result$LT$T$C$E$GT$$u20$as$u20$core..ops..try_trait..Try$GT$6branch17h9fb558564fc550e0E', symObjAddr: 0x4594, symBinAddr: 0x4BF40, symSize: 0x70 }
  - { offset: 0x15BA5A, size: 0x8, addend: 0x0, symName: __ZN4core4hint21unreachable_unchecked18precondition_check17hef71bdfc1f23cd40E, symObjAddr: 0x3A7C, symBinAddr: 0x4B808, symSize: 0x84 }
  - { offset: 0x15C0B2, size: 0x8, addend: 0x0, symName: '__ZN101_$LT$core..option..Option$LT$T$GT$$u20$as$u20$parking_lot_core..util..UncheckedOptionExt$LT$T$GT$$GT$16unchecked_unwrap17h1914f645c864ecd6E', symObjAddr: 0x0, symBinAddr: 0x497AC, symSize: 0x38 }
  - { offset: 0x15C0F8, size: 0x8, addend: 0x0, symName: '__ZN117_$LT$parking_lot_core..thread_parker..imp..ThreadParker$u20$as$u20$parking_lot_core..thread_parker..ThreadParkerT$GT$10park_until17h3c11b3730c081fa9E', symObjAddr: 0x38, symBinAddr: 0x497E4, symSize: 0x314 }
  - { offset: 0x15C2DC, size: 0x8, addend: 0x0, symName: '__ZN117_$LT$parking_lot_core..thread_parker..imp..ThreadParker$u20$as$u20$parking_lot_core..thread_parker..ThreadParkerT$GT$11unpark_lock17he51904d622130e2dE', symObjAddr: 0x34C, symBinAddr: 0x49AF8, symSize: 0x8C }
  - { offset: 0x15C36E, size: 0x8, addend: 0x0, symName: '__ZN117_$LT$parking_lot_core..thread_parker..imp..ThreadParker$u20$as$u20$parking_lot_core..thread_parker..ThreadParkerT$GT$12prepare_park17h58ed3bb10472738bE', symObjAddr: 0x3D8, symBinAddr: 0x49B84, symSize: 0x64 }
  - { offset: 0x15C396, size: 0x8, addend: 0x0, symName: '__ZN117_$LT$parking_lot_core..thread_parker..imp..ThreadParker$u20$as$u20$parking_lot_core..thread_parker..ThreadParkerT$GT$4park17hce5d76f990292140E', symObjAddr: 0x43C, symBinAddr: 0x49BE8, symSize: 0x194 }
  - { offset: 0x15C4CA, size: 0x8, addend: 0x0, symName: '__ZN117_$LT$parking_lot_core..thread_parker..imp..ThreadParker$u20$as$u20$parking_lot_core..thread_parker..ThreadParkerT$GT$9timed_out17hbd1c2a50053602c9E', symObjAddr: 0x5D0, symBinAddr: 0x49D7C, symSize: 0x110 }
  - { offset: 0x15C5E7, size: 0x8, addend: 0x0, symName: '__ZN117_$LT$parking_lot_core..thread_parker..imp..UnparkHandle$u20$as$u20$parking_lot_core..thread_parker..UnparkHandleT$GT$6unpark17hef74264dde6aa135E', symObjAddr: 0x6E0, symBinAddr: 0x49E8C, symSize: 0x1F0 }
  - { offset: 0x15C708, size: 0x8, addend: 0x0, symName: __ZN16parking_lot_core13thread_parker3imp12thread_yield17hd5cc43a9af36bda7E, symObjAddr: 0x3464, symBinAddr: 0x4B208, symSize: 0x14 }
  - { offset: 0x15C721, size: 0x8, addend: 0x0, symName: __ZN16parking_lot_core13thread_parker3imp12timespec_now17h785e2c8f0820497dE, symObjAddr: 0x3478, symBinAddr: 0x4B21C, symSize: 0xF8 }
  - { offset: 0x15C840, size: 0x8, addend: 0x0, symName: __ZN16parking_lot_core13thread_parker3imp19timeout_to_timespec17h6f769c5db8b561c1E, symObjAddr: 0x3570, symBinAddr: 0x4B314, symSize: 0x12C }
  - { offset: 0x15C8B0, size: 0x8, addend: 0x0, symName: '__ZN16parking_lot_core13thread_parker3imp19timeout_to_timespec28_$u7b$$u7b$closure$u7d$$u7d$17h4edf50ce2f9872dbE', symObjAddr: 0x369C, symBinAddr: 0x4B440, symSize: 0x28 }
  - { offset: 0x15C8E6, size: 0x8, addend: 0x0, symName: '__ZN16parking_lot_core13thread_parker3imp19timeout_to_timespec28_$u7b$$u7b$closure$u7d$$u7d$17h9ec4a04eb70d3c9eE', symObjAddr: 0x36C4, symBinAddr: 0x4B468, symSize: 0x24 }
  - { offset: 0x15C9B4, size: 0x8, addend: 0x0, symName: __ZN16parking_lot_core8spinwait9cpu_relax17hdda21b871f3a122dE, symObjAddr: 0x3898, symBinAddr: 0x4B63C, symSize: 0x54 }
  - { offset: 0x15CA4E, size: 0x8, addend: 0x0, symName: '__ZN79_$LT$parking_lot_core..spinwait..SpinWait$u20$as$u20$core..default..Default$GT$7default17he2aa2ee90f6974e7E', symObjAddr: 0x4604, symBinAddr: 0x4BFB0, symSize: 0x8 }
  - { offset: 0x15CAAE, size: 0x8, addend: 0x0, symName: '__ZN64_$LT$usize$u20$as$u20$parking_lot_core..word_lock..LockState$GT$10queue_head17h8ccf8ca3a17d46b0E', symObjAddr: 0x4398, symBinAddr: 0x4BE30, symSize: 0x14 }
  - { offset: 0x15CADC, size: 0x8, addend: 0x0, symName: '__ZN64_$LT$usize$u20$as$u20$parking_lot_core..word_lock..LockState$GT$15is_queue_locked17h05b92caf0671ba9cE', symObjAddr: 0x43AC, symBinAddr: 0x4BE44, symSize: 0x18 }
  - { offset: 0x15CB76, size: 0x8, addend: 0x0, symName: __ZN11parking_lot10raw_rwlock9RawRwLock11lock_common17h10926d9515c2d602E, symObjAddr: 0x8D0, symBinAddr: 0x4A07C, symSize: 0x260 }
  - { offset: 0x15CCA4, size: 0x8, addend: 0x0, symName: __ZN11parking_lot10raw_rwlock9RawRwLock11lock_common17h4e9e93d4530aef60E, symObjAddr: 0xB30, symBinAddr: 0x4A2DC, symSize: 0x264 }
  - { offset: 0x15CDC5, size: 0x8, addend: 0x0, symName: __ZN11parking_lot10raw_rwlock9RawRwLock16lock_shared_slow17hbcd0ac16a0644c0dE, symObjAddr: 0x1420, symBinAddr: 0xB749C, symSize: 0x68 }
  - { offset: 0x15CE24, size: 0x8, addend: 0x0, symName: __ZN11parking_lot10raw_rwlock9RawRwLock16wait_for_readers17hdac36d45fc609d4dE, symObjAddr: 0x1704, symBinAddr: 0x4A864, symSize: 0x1D0 }
  - { offset: 0x15CF76, size: 0x8, addend: 0x0, symName: __ZN11parking_lot10raw_rwlock9RawRwLock18unlock_shared_slow17h8b5ea0097eef0b6eE, symObjAddr: 0x19F4, symBinAddr: 0xB7504, symSize: 0x5C }
  - { offset: 0x15CFD5, size: 0x8, addend: 0x0, symName: __ZN11parking_lot10raw_rwlock9RawRwLock19lock_exclusive_slow17h1673afedce0815bcE, symObjAddr: 0x1AC4, symBinAddr: 0xB7560, symSize: 0x9C }
  - { offset: 0x15D043, size: 0x8, addend: 0x0, symName: __ZN11parking_lot10raw_rwlock9RawRwLock19wake_parked_threads17hd6464b74ee62d078E, symObjAddr: 0x1E3C, symBinAddr: 0x4AC30, symSize: 0xB8 }
  - { offset: 0x15D106, size: 0x8, addend: 0x0, symName: __ZN11parking_lot10raw_rwlock9RawRwLock19wake_parked_threads17he43025a5f69a1596E, symObjAddr: 0x1EF4, symBinAddr: 0x4ACE8, symSize: 0xC4 }
  - { offset: 0x15D1C8, size: 0x8, addend: 0x0, symName: __ZN11parking_lot10raw_rwlock9RawRwLock21unlock_exclusive_slow17h43d3c5b78be925bcE, symObjAddr: 0x2A28, symBinAddr: 0xB75FC, symSize: 0x48 }
  - { offset: 0x15D2FA, size: 0x8, addend: 0x0, symName: __ZN16parking_lot_core13thread_parker3imp12ThreadParker4init17hccc9e555caac5e8cE, symObjAddr: 0x3454, symBinAddr: 0x4B1F8, symSize: 0x10 }
  - { offset: 0x15D3B8, size: 0x8, addend: 0x0, symName: __ZN16parking_lot_core8spinwait8SpinWait13spin_no_yield17he97bf8047e7ec8ffE, symObjAddr: 0x36E8, symBinAddr: 0x4B48C, symSize: 0xAC }
  - { offset: 0x15D3DA, size: 0x8, addend: 0x0, symName: __ZN16parking_lot_core8spinwait8SpinWait3new17h9c57fdd48245065fE, symObjAddr: 0x3794, symBinAddr: 0x4B538, symSize: 0x14 }
  - { offset: 0x15D3ED, size: 0x8, addend: 0x0, symName: __ZN16parking_lot_core8spinwait8SpinWait4spin17h5254eb31d2d46ad5E, symObjAddr: 0x37A8, symBinAddr: 0x4B54C, symSize: 0xD8 }
  - { offset: 0x15D40F, size: 0x8, addend: 0x0, symName: __ZN16parking_lot_core8spinwait8SpinWait5reset17h5e663e0891b412b6E, symObjAddr: 0x3880, symBinAddr: 0x4B624, symSize: 0x18 }
  - { offset: 0x15D44B, size: 0x8, addend: 0x0, symName: __ZN16parking_lot_core9word_lock8WordLock4lock17ha9eff5a324fc28dfE, symObjAddr: 0x38EC, symBinAddr: 0x4B690, symSize: 0x64 }
  - { offset: 0x15D46D, size: 0x8, addend: 0x0, symName: __ZN16parking_lot_core9word_lock8WordLock6unlock17h88584401ee848fe7E, symObjAddr: 0x3950, symBinAddr: 0x4B6F4, symSize: 0x68 }
  - { offset: 0x15D4B1, size: 0x8, addend: 0x0, symName: '__ZN4core4cell13Cell$LT$T$GT$3get17h352802500095aef0E', symObjAddr: 0x39D0, symBinAddr: 0x4B75C, symSize: 0x18 }
  - { offset: 0x15D4EA, size: 0x8, addend: 0x0, symName: '__ZN4core4cell13Cell$LT$T$GT$3get17hec55dc1d8b4665b3E', symObjAddr: 0x39E8, symBinAddr: 0x4B774, symSize: 0x18 }
  - { offset: 0x15D523, size: 0x8, addend: 0x0, symName: '__ZN4core4cell13Cell$LT$T$GT$3get17hfcf649e964c1792dE', symObjAddr: 0x3A00, symBinAddr: 0x4B78C, symSize: 0x18 }
  - { offset: 0x15D54F, size: 0x8, addend: 0x0, symName: '__ZN4core4cell13Cell$LT$T$GT$3new17he95eb641502e6eedE', symObjAddr: 0x3A18, symBinAddr: 0x4B7A4, symSize: 0x10 }
  - { offset: 0x15D5A3, size: 0x8, addend: 0x0, symName: '__ZN4core4cell13Cell$LT$T$GT$3set17h10cb0c98a3aa2bacE', symObjAddr: 0x3A28, symBinAddr: 0x4B7B4, symSize: 0x1C }
  - { offset: 0x15D641, size: 0x8, addend: 0x0, symName: '__ZN4core4cell13Cell$LT$T$GT$3set17h128c02f46cd0c483E', symObjAddr: 0x3A44, symBinAddr: 0x4B7D0, symSize: 0x1C }
  - { offset: 0x15D6DF, size: 0x8, addend: 0x0, symName: '__ZN4core4cell13Cell$LT$T$GT$3set17h877d78e9b0dad226E', symObjAddr: 0x3A60, symBinAddr: 0x4B7EC, symSize: 0x1C }
  - { offset: 0x15D918, size: 0x8, addend: 0x0, symName: '__ZN4core6option15Option$LT$T$GT$18get_or_insert_with17hd9d46bdcb7dac3d1E', symObjAddr: 0x3B00, symBinAddr: 0x4B88C, symSize: 0x140 }
  - { offset: 0x15DA8E, size: 0x8, addend: 0x0, symName: '__ZN4core6option15Option$LT$T$GT$3map17h359a50d96cff5fc8E', symObjAddr: 0x3C40, symBinAddr: 0x4B9CC, symSize: 0x50 }
  - { offset: 0x15DB06, size: 0x8, addend: 0x0, symName: '__ZN4core6option15Option$LT$T$GT$3map17hed05d71b97c8a669E', symObjAddr: 0x3CE0, symBinAddr: 0x4BA1C, symSize: 0x6C }
  - { offset: 0x15DB71, size: 0x8, addend: 0x0, symName: '__ZN4core6option15Option$LT$T$GT$5ok_or17ha5d6cb7b291b94f6E', symObjAddr: 0x3D4C, symBinAddr: 0x4BA88, symSize: 0x68 }
  - { offset: 0x15DBE0, size: 0x8, addend: 0x0, symName: '__ZN4core6option15Option$LT$T$GT$5ok_or17hbfda3e18d84d46eeE', symObjAddr: 0x3DB4, symBinAddr: 0x4BAF0, symSize: 0x6C }
  - { offset: 0x15DC42, size: 0x8, addend: 0x0, symName: '__ZN4core6option15Option$LT$T$GT$6expect17ha4db5b8e65d38126E', symObjAddr: 0x3E7C, symBinAddr: 0x4BB5C, symSize: 0x58 }
  - { offset: 0x15DC8A, size: 0x8, addend: 0x0, symName: '__ZN4core6option15Option$LT$T$GT$7is_some17h043f0053b3ef76f4E', symObjAddr: 0x3EF4, symBinAddr: 0x4BBB4, symSize: 0x30 }
  - { offset: 0x15DCB6, size: 0x8, addend: 0x0, symName: '__ZN4core6option15Option$LT$T$GT$8and_then17h96ce3b55be02d31bE', symObjAddr: 0x3F24, symBinAddr: 0x4BBE4, symSize: 0x54 }
  - { offset: 0x15DD39, size: 0x8, addend: 0x0, symName: '__ZN4core6option15Option$LT$T$GT$8and_then17ha2a29a76935a36c1E', symObjAddr: 0x3F78, symBinAddr: 0x4BC38, symSize: 0x54 }
  - { offset: 0x15DDA4, size: 0x8, addend: 0x0, symName: '__ZN4core6result19Result$LT$T$C$E$GT$14unwrap_or_else17h096774254c6777d6E', symObjAddr: 0x3FCC, symBinAddr: 0x4BC8C, symSize: 0x58 }
  - { offset: 0x15DE2D, size: 0x8, addend: 0x0, symName: '__ZN4core6result19Result$LT$T$C$E$GT$14unwrap_or_else17h8d65f79e9c8615f5E', symObjAddr: 0x407C, symBinAddr: 0x4BCE4, symSize: 0x58 }
  - { offset: 0x15DEB6, size: 0x8, addend: 0x0, symName: '__ZN4core6result19Result$LT$T$C$E$GT$14unwrap_or_else17hc5c8bf66cc29d5b0E', symObjAddr: 0x412C, symBinAddr: 0x4BD3C, symSize: 0x58 }
  - { offset: 0x15DF71, size: 0x8, addend: 0x0, symName: '__ZN4core6result19Result$LT$T$C$E$GT$6is_err17h99a9de281273aa3aE', symObjAddr: 0x4274, symBinAddr: 0x4BD94, symSize: 0x20 }
  - { offset: 0x15DFC4, size: 0x8, addend: 0x0, symName: '__ZN4core6result19Result$LT$T$C$E$GT$7map_err17h2c58903117300623E', symObjAddr: 0x4294, symBinAddr: 0x4BDB4, symSize: 0x7C }
  - { offset: 0x15E0CF, size: 0x8, addend: 0x0, symName: '__ZN106_$LT$core..ops..range..Range$LT$usize$GT$$u20$as$u20$core..slice..index..SliceIndex$LT$$u5b$T$u5d$$GT$$GT$13get_unchecked18precondition_check17hcdb135518e730092E', symObjAddr: 0x0, symBinAddr: 0x4BFB8, symSize: 0xCC }
  - { offset: 0x15E107, size: 0x8, addend: 0x0, symName: '__ZN16parking_lot_core9word_lock16with_thread_data11THREAD_DATA29_$u7b$$u7b$constant$u7d$$u7d$28_$u7b$$u7b$closure$u7d$$u7d$3VAL17h414231983d760ceeE', symObjAddr: 0x6C8C, symBinAddr: 0x11CF70, symSize: 0x0 }
  - { offset: 0x15E116, size: 0x8, addend: 0x0, symName: '__ZN16parking_lot_core9word_lock16with_thread_data11THREAD_DATA29_$u7b$$u7b$constant$u7d$$u7d$28_$u7b$$u7b$closure$u7d$$u7d$17he66ca0b8e64299a2E', symObjAddr: 0x7E8, symBinAddr: 0x4C7A0, symSize: 0x34 }
  - { offset: 0x15E154, size: 0x8, addend: 0x0, symName: __ZN16parking_lot_core9word_lock16with_thread_data11THREAD_DATA6__init17h464c320818ef4af2E, symObjAddr: 0x81C, symBinAddr: 0x4C7D4, symSize: 0x14 }
  - { offset: 0x15E172, size: 0x8, addend: 0x0, symName: '__ZN16parking_lot_core9word_lock16with_thread_data28_$u7b$$u7b$closure$u7d$$u7d$17hccd51fd16e6b5c61E', symObjAddr: 0x9B8, symBinAddr: 0x4C970, symSize: 0x14 }
  - { offset: 0x15E20A, size: 0x8, addend: 0x0, symName: __ZN16parking_lot_core9word_lock13fence_acquire17h6f876cbf125c11feE, symObjAddr: 0x7C4, symBinAddr: 0x4C77C, symSize: 0x24 }
  - { offset: 0x15E234, size: 0x8, addend: 0x0, symName: __ZN16parking_lot_core9word_lock16with_thread_data17h95182f275e9377e5E, symObjAddr: 0x830, symBinAddr: 0x4C7E8, symSize: 0x188 }
  - { offset: 0x15E342, size: 0x8, addend: 0x0, symName: '__ZN16parking_lot_core9word_lock8WordLock9lock_slow28_$u7b$$u7b$closure$u7d$$u7d$17h9eea1e2a67a153deE', symObjAddr: 0x1064, symBinAddr: 0x4CA88, symSize: 0x144 }
  - { offset: 0x15E400, size: 0x8, addend: 0x0, symName: '__ZN64_$LT$usize$u20$as$u20$parking_lot_core..word_lock..LockState$GT$10queue_head17h66d9463aa1583c1fE', symObjAddr: 0x4F24, symBinAddr: 0x50698, symSize: 0x14 }
  - { offset: 0x15E42E, size: 0x8, addend: 0x0, symName: '__ZN64_$LT$usize$u20$as$u20$parking_lot_core..word_lock..LockState$GT$15is_queue_locked17h96265daa14183323E', symObjAddr: 0x4F38, symBinAddr: 0x506AC, symSize: 0x18 }
  - { offset: 0x15E45C, size: 0x8, addend: 0x0, symName: '__ZN64_$LT$usize$u20$as$u20$parking_lot_core..word_lock..LockState$GT$15with_queue_head17h485d11bdaa199371E', symObjAddr: 0x4F50, symBinAddr: 0x506C4, symSize: 0x1C }
  - { offset: 0x15E499, size: 0x8, addend: 0x0, symName: '__ZN64_$LT$usize$u20$as$u20$parking_lot_core..word_lock..LockState$GT$9is_locked17h9b93b7e22ab5afbbE', symObjAddr: 0x4F6C, symBinAddr: 0x506E0, symSize: 0x18 }
  - { offset: 0x15E522, size: 0x8, addend: 0x0, symName: '__ZN117_$LT$parking_lot_core..thread_parker..imp..ThreadParker$u20$as$u20$parking_lot_core..thread_parker..ThreadParkerT$GT$11unpark_lock17h7a4f244935465a30E', symObjAddr: 0x160, symBinAddr: 0x4C118, symSize: 0x8C }
  - { offset: 0x15E5B4, size: 0x8, addend: 0x0, symName: '__ZN117_$LT$parking_lot_core..thread_parker..imp..ThreadParker$u20$as$u20$parking_lot_core..thread_parker..ThreadParkerT$GT$12prepare_park17h9d38b85b45dc8f23E', symObjAddr: 0x1EC, symBinAddr: 0x4C1A4, symSize: 0x64 }
  - { offset: 0x15E5DC, size: 0x8, addend: 0x0, symName: '__ZN117_$LT$parking_lot_core..thread_parker..imp..ThreadParker$u20$as$u20$parking_lot_core..thread_parker..ThreadParkerT$GT$3new17hfd53d1892fb3f3c8E', symObjAddr: 0x250, symBinAddr: 0x4C208, symSize: 0xEC }
  - { offset: 0x15E635, size: 0x8, addend: 0x0, symName: '__ZN117_$LT$parking_lot_core..thread_parker..imp..ThreadParker$u20$as$u20$parking_lot_core..thread_parker..ThreadParkerT$GT$4park17h33b2ff0a4bb1de41E', symObjAddr: 0x33C, symBinAddr: 0x4C2F4, symSize: 0x194 }
  - { offset: 0x15E76F, size: 0x8, addend: 0x0, symName: '__ZN117_$LT$parking_lot_core..thread_parker..imp..UnparkHandle$u20$as$u20$parking_lot_core..thread_parker..UnparkHandleT$GT$6unpark17hc30055fc07648976E', symObjAddr: 0x4D0, symBinAddr: 0x4C488, symSize: 0x1F0 }
  - { offset: 0x15E846, size: 0x8, addend: 0x0, symName: __ZN16parking_lot_core13thread_parker3imp12thread_yield17h903a5bdb5fe6c023E, symObjAddr: 0x6D0, symBinAddr: 0x4C688, symSize: 0x14 }
  - { offset: 0x15E864, size: 0x8, addend: 0x0, symName: '__ZN92_$LT$parking_lot_core..thread_parker..imp..ThreadParker$u20$as$u20$core..ops..drop..Drop$GT$4drop17h66451cd6cba8e297E', symObjAddr: 0x5394, symBinAddr: 0x50B08, symSize: 0xB4 }
  - { offset: 0x15EB34, size: 0x8, addend: 0x0, symName: __ZN3std3sys12thread_local6native4lazy7destroy17h3e1d13dcb3734c2eE, symObjAddr: 0x235C, symBinAddr: 0x4DB1C, symSize: 0x30 }
  - { offset: 0x15EB6A, size: 0x8, addend: 0x0, symName: '__ZN3std3sys12thread_local6native4lazy7destroy28_$u7b$$u7b$closure$u7d$$u7d$17hafed995de5eb6738E', symObjAddr: 0x238C, symBinAddr: 0x4DB4C, symSize: 0x74 }
  - { offset: 0x15EC24, size: 0x8, addend: 0x0, symName: '__ZN81_$LT$$LP$$RP$$u20$as$u20$std..sys..thread_local..native..lazy..DestroyedState$GT$13register_dtor17hdb7f38281b5bdb51E', symObjAddr: 0x5188, symBinAddr: 0x508FC, symSize: 0x34 }
  - { offset: 0x15ED36, size: 0x8, addend: 0x0, symName: '__ZN81_$LT$std..io..default_write_fmt..Adapter$LT$T$GT$$u20$as$u20$core..fmt..Write$GT$9write_str17h0501c318fc6cd5a1E', symObjAddr: 0x51BC, symBinAddr: 0x50930, symSize: 0xB4 }
  - { offset: 0x15EEBC, size: 0x8, addend: 0x0, symName: '__ZN78_$LT$std..io..error..repr_bitpacked..Repr$u20$as$u20$core..ops..drop..Drop$GT$4drop28_$u7b$$u7b$closure$u7d$$u7d$17h09c3345c8256ff47E', symObjAddr: 0x514C, symBinAddr: 0x508C0, symSize: 0x3C }
  - { offset: 0x15EF71, size: 0x8, addend: 0x0, symName: '__ZN78_$LT$std..io..error..repr_bitpacked..Repr$u20$as$u20$core..ops..drop..Drop$GT$4drop17hd8991283241e62d1E', symObjAddr: 0x5114, symBinAddr: 0x50888, symSize: 0x38 }
  - { offset: 0x15EF9A, size: 0x8, addend: 0x0, symName: __ZN3std2io5error14repr_bitpacked11decode_repr17h00b9670d493ab4d4E, symObjAddr: 0x1684, symBinAddr: 0x4D0A8, symSize: 0x1DC }
  - { offset: 0x15F207, size: 0x8, addend: 0x0, symName: '__ZN3std2io5error14repr_bitpacked4Repr4data28_$u7b$$u7b$closure$u7d$$u7d$17hb05e9a994ffedbf7E', symObjAddr: 0x2044, symBinAddr: 0x4DA68, symSize: 0x14 }
  - { offset: 0x15F23F, size: 0x8, addend: 0x0, symName: __ZN3std2io5error14repr_bitpacked11decode_repr17h1a28160eea77d7beE, symObjAddr: 0x1860, symBinAddr: 0x4D284, symSize: 0x1DC }
  - { offset: 0x15F49B, size: 0x8, addend: 0x0, symName: __ZN3std2io5error14repr_bitpacked14kind_from_prim17h40b3d01ea4f9279fE, symObjAddr: 0x1A3C, symBinAddr: 0x4D460, symSize: 0x608 }
  - { offset: 0x15FF7F, size: 0x8, addend: 0x0, symName: __ZN3std2io17default_write_fmt17h25d611564427826eE, symObjAddr: 0x11A8, symBinAddr: 0x4CBCC, symSize: 0x120 }
  - { offset: 0x160033, size: 0x8, addend: 0x0, symName: __ZN3std2io5Write9write_all17h45b83f0c38002a38E, symObjAddr: 0x12C8, symBinAddr: 0x4CCEC, symSize: 0x268 }
  - { offset: 0x1601DB, size: 0x8, addend: 0x0, symName: __ZN3std2io5Write9write_fmt17hdfdd8833d064ec94E, symObjAddr: 0x1530, symBinAddr: 0x4CF54, symSize: 0x154 }
  - { offset: 0x160D91, size: 0x8, addend: 0x0, symName: '__ZN4core3ptr8non_null16NonNull$LT$T$GT$13new_unchecked18precondition_check17hddd84f88b0572f3aE', symObjAddr: 0x2D7C, symBinAddr: 0x4E538, symSize: 0xA4 }
  - { offset: 0x16154E, size: 0x8, addend: 0x0, symName: '__ZN4core3ptr101drop_in_place$LT$std..io..error..ErrorData$LT$alloc..boxed..Box$LT$std..io..error..Custom$GT$$GT$$GT$17h145703702bf44787E', symObjAddr: 0x251C, symBinAddr: 0x4DCD8, symSize: 0x48 }
  - { offset: 0x16157D, size: 0x8, addend: 0x0, symName: '__ZN4core3ptr118drop_in_place$LT$alloc..boxed..Box$LT$dyn$u20$core..error..Error$u2b$core..marker..Sync$u2b$core..marker..Send$GT$$GT$17hc31e6f346104c15fE', symObjAddr: 0x2564, symBinAddr: 0x4DD20, symSize: 0x80 }
  - { offset: 0x16168E, size: 0x8, addend: 0x0, symName: '__ZN4core3ptr9const_ptr33_$LT$impl$u20$$BP$const$u20$T$GT$7is_null17h209757676cec7739E', symObjAddr: 0x2EB8, symBinAddr: 0x4E62C, symSize: 0x18 }
  - { offset: 0x16175C, size: 0x8, addend: 0x0, symName: __ZN4core3ptr19copy_nonoverlapping18precondition_check17h085e57aec2ee34b4E, symObjAddr: 0x25E4, symBinAddr: 0x4DDA0, symSize: 0x36C }
  - { offset: 0x161A37, size: 0x8, addend: 0x0, symName: '__ZN4core3ptr42drop_in_place$LT$std..io..error..Error$GT$17h71eb2a23e756810aE', symObjAddr: 0x2950, symBinAddr: 0x4E10C, symSize: 0x24 }
  - { offset: 0x161A66, size: 0x8, addend: 0x0, symName: '__ZN4core3ptr43drop_in_place$LT$std..io..error..Custom$GT$17h3184f99bea3a9224E', symObjAddr: 0x2974, symBinAddr: 0x4E130, symSize: 0x24 }
  - { offset: 0x161A95, size: 0x8, addend: 0x0, symName: '__ZN4core3ptr57drop_in_place$LT$std..io..error..repr_bitpacked..Repr$GT$17h15f834d1387a4235E', symObjAddr: 0x2998, symBinAddr: 0x4E154, symSize: 0x24 }
  - { offset: 0x161AC4, size: 0x8, addend: 0x0, symName: '__ZN4core3ptr60drop_in_place$LT$parking_lot_core..word_lock..ThreadData$GT$17h42af58cbde6ac3baE', symObjAddr: 0x29BC, symBinAddr: 0x4E178, symSize: 0x24 }
  - { offset: 0x161AF3, size: 0x8, addend: 0x0, symName: '__ZN4core3ptr61drop_in_place$LT$parking_lot_core..parking_lot..HashTable$GT$17hdb3cadc216d51e79E', symObjAddr: 0x29E0, symBinAddr: 0x4E19C, symSize: 0x24 }
  - { offset: 0x161B22, size: 0x8, addend: 0x0, symName: '__ZN4core3ptr68drop_in_place$LT$alloc..boxed..Box$LT$std..io..error..Custom$GT$$GT$17h9d4ce6845e87eaceE', symObjAddr: 0x2A04, symBinAddr: 0x4E1C0, symSize: 0x60 }
  - { offset: 0x161B51, size: 0x8, addend: 0x0, symName: '__ZN4core3ptr71drop_in_place$LT$parking_lot_core..thread_parker..imp..ThreadParker$GT$17ha8442abf243d54ddE', symObjAddr: 0x2A64, symBinAddr: 0x4E220, symSize: 0x24 }
  - { offset: 0x161B85, size: 0x8, addend: 0x0, symName: __ZN4core3ptr7replace18precondition_check17hb1c2b3bf22a0cdd3E, symObjAddr: 0x2A88, symBinAddr: 0x4E244, symSize: 0x16C }
  - { offset: 0x161CD4, size: 0x8, addend: 0x0, symName: '__ZN4core3ptr81drop_in_place$LT$alloc..vec..Vec$LT$parking_lot_core..parking_lot..Bucket$GT$$GT$17hea3035435f9f00edE', symObjAddr: 0x2BF4, symBinAddr: 0x4E3B0, symSize: 0x5C }
  - { offset: 0x161D03, size: 0x8, addend: 0x0, symName: '__ZN4core3ptr81drop_in_place$LT$core..result..Result$LT$$LP$$RP$$C$std..io..error..Error$GT$$GT$17h6f35c618c89857b7E', symObjAddr: 0x2C50, symBinAddr: 0x4E40C, symSize: 0x44 }
  - { offset: 0x161D32, size: 0x8, addend: 0x0, symName: '__ZN4core3ptr82drop_in_place$LT$std..sys..thread_local..abort_on_dtor_unwind..DtorUnwindGuard$GT$17h2c89feafc77e060cE', symObjAddr: 0x2C94, symBinAddr: 0x4E450, symSize: 0x24 }
  - { offset: 0x161D61, size: 0x8, addend: 0x0, symName: '__ZN4core3ptr86drop_in_place$LT$alloc..boxed..Box$LT$parking_lot_core..parking_lot..HashTable$GT$$GT$17h47d2cc8b5fbca376E', symObjAddr: 0x2CB8, symBinAddr: 0x4E474, symSize: 0x60 }
  - { offset: 0x161D90, size: 0x8, addend: 0x0, symName: '__ZN4core3ptr88drop_in_place$LT$alloc..raw_vec..RawVec$LT$parking_lot_core..parking_lot..Bucket$GT$$GT$17h5b3c32973c88611fE', symObjAddr: 0x2D18, symBinAddr: 0x4E4D4, symSize: 0x24 }
  - { offset: 0x161DBF, size: 0x8, addend: 0x0, symName: '__ZN4core3ptr88drop_in_place$LT$core..option..Option$LT$parking_lot_core..word_lock..ThreadData$GT$$GT$17hae91d48ea465861bE', symObjAddr: 0x2D3C, symBinAddr: 0x4E4F8, symSize: 0x40 }
  - { offset: 0x161DEE, size: 0x8, addend: 0x0, symName: '__ZN4core3ptr93drop_in_place$LT$alloc..boxed..Box$LT$$u5b$parking_lot_core..parking_lot..Bucket$u5d$$GT$$GT$17h125eeb09724447afE', symObjAddr: 0x2E20, symBinAddr: 0x4E5DC, symSize: 0x2C }
  - { offset: 0x161E1D, size: 0x8, addend: 0x0, symName: '__ZN4core3ptr93drop_in_place$LT$std..io..default_write_fmt..Adapter$LT$std..sys..stdio..unix..Stderr$GT$$GT$17h6146f3dc103ab727E', symObjAddr: 0x2E94, symBinAddr: 0x4E608, symSize: 0x24 }
  - { offset: 0x162209, size: 0x8, addend: 0x0, symName: __ZN4core4sync6atomic11atomic_load17h2cb89959e1469a4bE, symObjAddr: 0x338C, symBinAddr: 0x4EB00, symSize: 0x150 }
  - { offset: 0x16227B, size: 0x8, addend: 0x0, symName: __ZN4core4sync6atomic11atomic_load17ha58f1126f61b656bE, symObjAddr: 0x34DC, symBinAddr: 0x4EC50, symSize: 0x150 }
  - { offset: 0x1622ED, size: 0x8, addend: 0x0, symName: __ZN4core4sync6atomic12atomic_store17h4551b26b31c25399E, symObjAddr: 0x362C, symBinAddr: 0x4EDA0, symSize: 0x154 }
  - { offset: 0x162404, size: 0x8, addend: 0x0, symName: __ZN4core4sync6atomic23atomic_compare_exchange17h0301d5e4846c8ce5E, symObjAddr: 0x382C, symBinAddr: 0x4EFA0, symSize: 0x514 }
  - { offset: 0x1624CB, size: 0x8, addend: 0x0, symName: __ZN4core4sync6atomic28atomic_compare_exchange_weak17hd73fd08b6a00576cE, symObjAddr: 0x3D40, symBinAddr: 0x4F4B4, symSize: 0x514 }
  - { offset: 0x162592, size: 0x8, addend: 0x0, symName: __ZN4core4sync6atomic5fence17h9b78ebccd668a2a3E, symObjAddr: 0x4254, symBinAddr: 0x4F9C8, symSize: 0xDC }
  - { offset: 0x1627DB, size: 0x8, addend: 0x0, symName: __ZN4core3fmt5Write10write_char17hcce856c2190d40a1E, symObjAddr: 0x2404, symBinAddr: 0x4DBC0, symSize: 0x70 }
  - { offset: 0x162843, size: 0x8, addend: 0x0, symName: __ZN4core3fmt5Write9write_fmt17hcc245c36abf4e721E, symObjAddr: 0x2474, symBinAddr: 0x4DC30, symSize: 0x24 }
  - { offset: 0x162891, size: 0x8, addend: 0x0, symName: '__ZN75_$LT$$RF$mut$u20$W$u20$as$u20$core..fmt..Write..write_fmt..SpecWriteFmt$GT$14spec_write_fmt17hbad0affebb6df8faE', symObjAddr: 0x4F84, symBinAddr: 0x506F8, symSize: 0x160 }
  - { offset: 0x162E2B, size: 0x8, addend: 0x0, symName: '__ZN106_$LT$core..ops..range..Range$LT$usize$GT$$u20$as$u20$core..slice..index..SliceIndex$LT$$u5b$T$u5d$$GT$$GT$13get_unchecked18precondition_check17hcdb135518e730092E', symObjAddr: 0x0, symBinAddr: 0x4BFB8, symSize: 0xCC }
  - { offset: 0x162F1F, size: 0x8, addend: 0x0, symName: '__ZN110_$LT$core..ops..range..RangeFrom$LT$usize$GT$$u20$as$u20$core..slice..index..SliceIndex$LT$$u5b$T$u5d$$GT$$GT$5index17h6dc5d538ca2a2521E', symObjAddr: 0xCC, symBinAddr: 0x4C084, symSize: 0x94 }
  - { offset: 0x16306F, size: 0x8, addend: 0x0, symName: '__ZN97_$LT$core..ops..range..RangeFull$u20$as$u20$core..slice..index..SliceIndex$LT$$u5b$T$u5d$$GT$$GT$5index17h07f29617db08d31dE', symObjAddr: 0x5448, symBinAddr: 0x50BBC, symSize: 0x18 }
  - { offset: 0x1630BD, size: 0x8, addend: 0x0, symName: __ZN4core5slice3raw18from_raw_parts_mut18precondition_check17h5fa5134988d8dcc2E, symObjAddr: 0x43EC, symBinAddr: 0x4FB60, symSize: 0x1D8 }
  - { offset: 0x16330A, size: 0x8, addend: 0x0, symName: __ZN4core3ops8function6FnOnce9call_once17h1ce1026967b3cbcdE, symObjAddr: 0x2498, symBinAddr: 0x4DC54, symSize: 0x1C }
  - { offset: 0x16334E, size: 0x8, addend: 0x0, symName: __ZN4core3ops8function6FnOnce9call_once17h5023a35f5b9fa410E, symObjAddr: 0x24B4, symBinAddr: 0x4DC70, symSize: 0x4C }
  - { offset: 0x163392, size: 0x8, addend: 0x0, symName: __ZN4core3ops8function6FnOnce9call_once17h9d83b1739a9a8f5bE, symObjAddr: 0x2500, symBinAddr: 0x4DCBC, symSize: 0x1C }
  - { offset: 0x163722, size: 0x8, addend: 0x0, symName: __ZN4core4hint16assert_unchecked18precondition_check17h5f13d7746ffc3adcE, symObjAddr: 0x2ED0, symBinAddr: 0x4E644, symSize: 0xA4 }
  - { offset: 0x163782, size: 0x8, addend: 0x0, symName: __ZN4core4hint21unreachable_unchecked18precondition_check17h48ce076c2120823fE, symObjAddr: 0x2F74, symBinAddr: 0x4E6E8, symSize: 0x84 }
  - { offset: 0x163A68, size: 0x8, addend: 0x0, symName: __ZN4core9ub_checks23maybe_is_nonoverlapping7runtime17h462695457001eccfE, symObjAddr: 0x4724, symBinAddr: 0x4FE98, symSize: 0xD8 }
  - { offset: 0x163C24, size: 0x8, addend: 0x0, symName: '__ZN4core4iter5range101_$LT$impl$u20$core..iter..traits..iterator..Iterator$u20$for$u20$core..ops..range..Range$LT$A$GT$$GT$4next17h7a8dfc562df736b4E', symObjAddr: 0x2FF8, symBinAddr: 0x4E76C, symSize: 0x24 }
  - { offset: 0x163C5B, size: 0x8, addend: 0x0, symName: '__ZN4core4iter5range101_$LT$impl$u20$core..iter..traits..iterator..Iterator$u20$for$u20$core..ops..range..Range$LT$A$GT$$GT$4next17h7e056598ed132db3E', symObjAddr: 0x301C, symBinAddr: 0x4E790, symSize: 0x24 }
  - { offset: 0x163C98, size: 0x8, addend: 0x0, symName: '__ZN89_$LT$core..ops..range..Range$LT$T$GT$$u20$as$u20$core..iter..range..RangeIteratorImpl$GT$9spec_next17hb7773299c70c5eabE', symObjAddr: 0x5270, symBinAddr: 0x509E4, symSize: 0x90 }
  - { offset: 0x163D13, size: 0x8, addend: 0x0, symName: '__ZN89_$LT$core..ops..range..Range$LT$T$GT$$u20$as$u20$core..iter..range..RangeIteratorImpl$GT$9spec_next17hdb732013e604b3a7E', symObjAddr: 0x5300, symBinAddr: 0x50A74, symSize: 0x94 }
  - { offset: 0x163D9F, size: 0x8, addend: 0x0, symName: '__ZN63_$LT$I$u20$as$u20$core..iter..traits..collect..IntoIterator$GT$9into_iter17h39cfb4d858f2622cE', symObjAddr: 0x4EFC, symBinAddr: 0x50670, symSize: 0x14 }
  - { offset: 0x163DD6, size: 0x8, addend: 0x0, symName: '__ZN63_$LT$I$u20$as$u20$core..iter..traits..collect..IntoIterator$GT$9into_iter17h77188a1c6fe1ae10E', symObjAddr: 0x4F10, symBinAddr: 0x50684, symSize: 0x14 }
  - { offset: 0x163E25, size: 0x8, addend: 0x0, symName: __ZN4core5alloc6layout6Layout25from_size_align_unchecked18precondition_check17h249415f26e4e7459E, symObjAddr: 0x4330, symBinAddr: 0x4FAA4, symSize: 0xBC }
  - { offset: 0x1642A4, size: 0x8, addend: 0x0, symName: __ZN16parking_lot_core13thread_parker3imp12ThreadParker4init17h58bf90e34ccff8beE, symObjAddr: 0x6C0, symBinAddr: 0x4C678, symSize: 0x10 }
  - { offset: 0x1642C6, size: 0x8, addend: 0x0, symName: __ZN16parking_lot_core9word_lock10ThreadData3new17h16c410d2b4156c06E, symObjAddr: 0x6E4, symBinAddr: 0x4C69C, symSize: 0xE0 }
  - { offset: 0x164323, size: 0x8, addend: 0x0, symName: __ZN16parking_lot_core9word_lock8WordLock11unlock_slow17h2b40a702be1abf54E, symObjAddr: 0x9CC, symBinAddr: 0xB7644, symSize: 0x4A0 }
  - { offset: 0x16441F, size: 0x8, addend: 0x0, symName: __ZN16parking_lot_core9word_lock8WordLock3new17h126710719c0dd49cE, symObjAddr: 0xE6C, symBinAddr: 0x4C984, symSize: 0x38 }
  - { offset: 0x164432, size: 0x8, addend: 0x0, symName: __ZN16parking_lot_core9word_lock8WordLock4lock17h6cf43a98f41bf75aE, symObjAddr: 0xEA4, symBinAddr: 0x4C9BC, symSize: 0x64 }
  - { offset: 0x164454, size: 0x8, addend: 0x0, symName: __ZN16parking_lot_core9word_lock8WordLock6unlock17h002987517e0dfc5eE, symObjAddr: 0xF08, symBinAddr: 0x4CA20, symSize: 0x68 }
  - { offset: 0x16448B, size: 0x8, addend: 0x0, symName: __ZN16parking_lot_core9word_lock8WordLock9lock_slow17h1bb0f65f386f70fbE, symObjAddr: 0xF70, symBinAddr: 0xB7AE4, symSize: 0xF4 }
  - { offset: 0x164860, size: 0x8, addend: 0x0, symName: '__ZN3std3sys12thread_local6native4lazy20Storage$LT$T$C$D$GT$11get_or_init17h100934e345fd4d22E', symObjAddr: 0x2058, symBinAddr: 0x4DA7C, symSize: 0xA0 }
  - { offset: 0x164A79, size: 0x8, addend: 0x0, symName: '__ZN3std3sys12thread_local6native4lazy20Storage$LT$T$C$D$GT$16get_or_init_slow17h8a49553654a5aac2E', symObjAddr: 0x20F8, symBinAddr: 0xB7BD8, symSize: 0x264 }
  - { offset: 0x164E9D, size: 0x8, addend: 0x0, symName: __ZN4core4sync6atomic11AtomicUsize21compare_exchange_weak17h0edc640f99fcfc88E, symObjAddr: 0x3040, symBinAddr: 0x4E7B4, symSize: 0x3C }
  - { offset: 0x164EFC, size: 0x8, addend: 0x0, symName: __ZN4core4sync6atomic11AtomicUsize3new17h2b644d839f068809E, symObjAddr: 0x307C, symBinAddr: 0x4E7F0, symSize: 0x18 }
  - { offset: 0x164F1F, size: 0x8, addend: 0x0, symName: __ZN4core4sync6atomic11AtomicUsize4load17h4ec12d249613b5c0E, symObjAddr: 0x3094, symBinAddr: 0x4E808, symSize: 0x30 }
  - { offset: 0x164F87, size: 0x8, addend: 0x0, symName: __ZN4core4sync6atomic11AtomicUsize9fetch_add17h81682bd95f7087fdE, symObjAddr: 0x30C4, symBinAddr: 0x4E838, symSize: 0xE0 }
  - { offset: 0x165032, size: 0x8, addend: 0x0, symName: __ZN4core4sync6atomic11AtomicUsize9fetch_and17hc09810c79dad52d5E, symObjAddr: 0x31A4, symBinAddr: 0x4E918, symSize: 0xF4 }
  - { offset: 0x1650DD, size: 0x8, addend: 0x0, symName: __ZN4core4sync6atomic11AtomicUsize9fetch_sub17h5d03e280ce348b11E, symObjAddr: 0x3298, symBinAddr: 0x4EA0C, symSize: 0xF4 }
  - { offset: 0x165200, size: 0x8, addend: 0x0, symName: '__ZN4core4sync6atomic18AtomicPtr$LT$T$GT$16compare_exchange17h92947a5cf4bbf197E', symObjAddr: 0x3780, symBinAddr: 0x4EEF4, symSize: 0x44 }
  - { offset: 0x165268, size: 0x8, addend: 0x0, symName: '__ZN4core4sync6atomic18AtomicPtr$LT$T$GT$4load17ha2774e76928df8efE', symObjAddr: 0x37C4, symBinAddr: 0x4EF38, symSize: 0x30 }
  - { offset: 0x1652A3, size: 0x8, addend: 0x0, symName: '__ZN4core4sync6atomic18AtomicPtr$LT$T$GT$5store17hb004439aff3dab0fE', symObjAddr: 0x37F4, symBinAddr: 0x4EF68, symSize: 0x38 }
  - { offset: 0x1653B9, size: 0x8, addend: 0x0, symName: '__ZN4core6option15Option$LT$T$GT$18get_or_insert_with17h18a4a70dfdc91bd1E', symObjAddr: 0x45C4, symBinAddr: 0x4FD38, symSize: 0x140 }
  - { offset: 0x165466, size: 0x8, addend: 0x0, symName: '__ZN4core6result19Result$LT$T$C$E$GT$5is_ok17h91328380d7a3f352E', symObjAddr: 0x4704, symBinAddr: 0x4FE78, symSize: 0x20 }
  - { offset: 0x165785, size: 0x8, addend: 0x0, symName: '__ZN77_$LT$alloc..raw_vec..RawVec$LT$T$C$A$GT$$u20$as$u20$core..ops..drop..Drop$GT$4drop17h3157f1ffb82f4556E', symObjAddr: 0x50E4, symBinAddr: 0x50858, symSize: 0x30 }
  - { offset: 0x165991, size: 0x8, addend: 0x0, symName: '__ZN5alloc7raw_vec19RawVec$LT$T$C$A$GT$8grow_one17ha3f588edb76f3986E', symObjAddr: 0x47FC, symBinAddr: 0x4FF70, symSize: 0x8C }
  - { offset: 0x165B6A, size: 0x8, addend: 0x0, symName: '__ZN5alloc7raw_vec19RawVec$LT$T$C$A$GT$8into_box17h4a0d7b9809769c95E', symObjAddr: 0x4888, symBinAddr: 0x4FFFC, symSize: 0x98 }
  - { offset: 0x165DA4, size: 0x8, addend: 0x0, symName: '__ZN5alloc7raw_vec20RawVecInner$LT$A$GT$14current_memory17hc90be42e43b7473aE', symObjAddr: 0x4920, symBinAddr: 0x50094, symSize: 0x124 }
  - { offset: 0x165FE4, size: 0x8, addend: 0x0, symName: '__ZN5alloc7raw_vec20RawVecInner$LT$A$GT$16shrink_unchecked17h9b324dd5993d0d15E', symObjAddr: 0x4A44, symBinAddr: 0x501B8, symSize: 0x2C0 }
  - { offset: 0x1663BD, size: 0x8, addend: 0x0, symName: '__ZN5alloc7raw_vec20RawVecInner$LT$A$GT$16with_capacity_in17h91d090373904dc9eE', symObjAddr: 0x4D04, symBinAddr: 0x50478, symSize: 0x110 }
  - { offset: 0x16656E, size: 0x8, addend: 0x0, symName: '__ZN5alloc7raw_vec20RawVecInner$LT$A$GT$6shrink17hec144e1c4c191997E', symObjAddr: 0x4E14, symBinAddr: 0x50588, symSize: 0xE8 }
  - { offset: 0x1668A6, size: 0x8, addend: 0x0, symName: '__ZN103_$LT$std..sys..thread_local..abort_on_dtor_unwind..DtorUnwindGuard$u20$as$u20$core..ops..drop..Drop$GT$4drop17h4b7aaa7ac75e33aaE', symObjAddr: 0x0, symBinAddr: 0x50BD4, symSize: 0x7C }
  - { offset: 0x1668CA, size: 0x8, addend: 0x0, symName: __ZN16parking_lot_core11parking_lot11NUM_THREADS17h399f00d9885cd3f0E, symObjAddr: 0x1AF10, symBinAddr: 0x11F460, symSize: 0x0 }
  - { offset: 0x1668F8, size: 0x8, addend: 0x0, symName: '__ZN16parking_lot_core11parking_lot16with_thread_data11THREAD_DATA29_$u7b$$u7b$constant$u7d$$u7d$28_$u7b$$u7b$closure$u7d$$u7d$3VAL17he68b6ae196102b23E', symObjAddr: 0x34FB, symBinAddr: 0x11CF88, symSize: 0x0 }
  - { offset: 0x1669A1, size: 0x8, addend: 0x0, symName: __ZN16parking_lot_core11parking_lot9HASHTABLE17h3cbd2cef6d0268e9E, symObjAddr: 0x1B068, symBinAddr: 0x11F400, symSize: 0x0 }
  - { offset: 0x166A98, size: 0x8, addend: 0x0, symName: __ZN16parking_lot_core11parking_lot13get_hashtable17h455e1d253d12db69E, symObjAddr: 0x220, symBinAddr: 0x50DF4, symSize: 0xA0 }
  - { offset: 0x166AD3, size: 0x8, addend: 0x0, symName: __ZN16parking_lot_core11parking_lot14grow_hashtable17h9ffdd79842ffe8ffE, symObjAddr: 0x2C0, symBinAddr: 0x50E94, symSize: 0x3D4 }
  - { offset: 0x166C84, size: 0x8, addend: 0x0, symName: __ZN16parking_lot_core11parking_lot16create_hashtable17h50d32341940f7b45E, symObjAddr: 0x694, symBinAddr: 0xB7E3C, symSize: 0xF8 }
  - { offset: 0x166CE9, size: 0x8, addend: 0x0, symName: __ZN16parking_lot_core11parking_lot18rehash_bucket_into17hcd0a6d1aa9bf7310E, symObjAddr: 0x78C, symBinAddr: 0x51268, symSize: 0x3E8 }
  - { offset: 0x166D64, size: 0x8, addend: 0x0, symName: __ZN16parking_lot_core11parking_lot4hash17h2d49c351af729343E, symObjAddr: 0xB74, symBinAddr: 0x51650, symSize: 0x90 }
  - { offset: 0x166DCC, size: 0x8, addend: 0x0, symName: '__ZN83_$LT$parking_lot_core..parking_lot..ThreadData$u20$as$u20$core..ops..drop..Drop$GT$4drop17h77f11ea27c7863feE', symObjAddr: 0x2800, symBinAddr: 0x532DC, symSize: 0x34 }
  - { offset: 0x166EEB, size: 0x8, addend: 0x0, symName: __ZN16parking_lot_core8spinwait9cpu_relax17h884a2d316fc59cb1E, symObjAddr: 0x10C8, symBinAddr: 0x51BA4, symSize: 0x54 }
  - { offset: 0x166F85, size: 0x8, addend: 0x0, symName: '__ZN79_$LT$parking_lot_core..spinwait..SpinWait$u20$as$u20$core..default..Default$GT$7default17h82b739ae73a58f20E', symObjAddr: 0x27F8, symBinAddr: 0x532D4, symSize: 0x8 }
  - { offset: 0x1677B5, size: 0x8, addend: 0x0, symName: '__ZN4core3num23_$LT$impl$u20$usize$GT$13unchecked_add18precondition_check17h664754802a90bb7fE', symObjAddr: 0x13A0, symBinAddr: 0x51E7C, symSize: 0xB0 }
  - { offset: 0x167873, size: 0x8, addend: 0x0, symName: '__ZN4core3num23_$LT$impl$u20$usize$GT$13unchecked_mul18precondition_check17h205fcf2b80a4cba8E', symObjAddr: 0x1450, symBinAddr: 0x51F2C, symSize: 0xAC }
  - { offset: 0x16793E, size: 0x8, addend: 0x0, symName: '__ZN4core3num23_$LT$impl$u20$usize$GT$17next_power_of_two17h42bbc5ad27171826E', symObjAddr: 0x14FC, symBinAddr: 0x51FD8, symSize: 0x8C }
  - { offset: 0x167A48, size: 0x8, addend: 0x0, symName: '__ZN4core3num21_$LT$impl$u20$u32$GT$13unchecked_add18precondition_check17h9a491562ced8aaadE', symObjAddr: 0x12F0, symBinAddr: 0x51DCC, symSize: 0xB0 }
  - { offset: 0x16820E, size: 0x8, addend: 0x0, symName: '__ZN4core3ptr9const_ptr33_$LT$impl$u20$$BP$const$u20$T$GT$7is_null17hcd27143445e069a0E', symObjAddr: 0x15A0, symBinAddr: 0x5207C, symSize: 0x18 }
  - { offset: 0x168298, size: 0x8, addend: 0x0, symName: '__ZN4core3ptr7mut_ptr31_$LT$impl$u20$$BP$mut$u20$T$GT$7is_null17h94107ec96ffc801fE', symObjAddr: 0x1588, symBinAddr: 0x52064, symSize: 0x18 }
  - { offset: 0x16931F, size: 0x8, addend: 0x0, symName: '__ZN4core5slice4iter87_$LT$impl$u20$core..iter..traits..collect..IntoIterator$u20$for$u20$$RF$$u5b$T$u5d$$GT$9into_iter17h26f0a16f4d4ed986E', symObjAddr: 0x1950, symBinAddr: 0x5242C, symSize: 0x50 }
  - { offset: 0x169462, size: 0x8, addend: 0x0, symName: '__ZN91_$LT$core..slice..iter..Iter$LT$T$GT$$u20$as$u20$core..iter..traits..iterator..Iterator$GT$4next17hf603d00be0e92905E', symObjAddr: 0x2834, symBinAddr: 0x53310, symSize: 0xA8 }
  - { offset: 0x169833, size: 0x8, addend: 0x0, symName: '__ZN47_$LT$u32$u20$as$u20$core..iter..range..Step$GT$17forward_unchecked17h5591615421cc42fcE', symObjAddr: 0x1244, symBinAddr: 0x51D20, symSize: 0x5C }
  - { offset: 0x169898, size: 0x8, addend: 0x0, symName: '__ZN49_$LT$usize$u20$as$u20$core..iter..range..Step$GT$17forward_unchecked17h9dc30aa90116fb3eE', symObjAddr: 0x12A0, symBinAddr: 0x51D7C, symSize: 0x50 }
  - { offset: 0x169956, size: 0x8, addend: 0x0, symName: __ZN4core4char7methods15encode_utf8_raw17h16fcfc6424578570E, symObjAddr: 0x16B8, symBinAddr: 0x52194, symSize: 0x110 }
  - { offset: 0x169A56, size: 0x8, addend: 0x0, symName: __ZN4core4char7methods25encode_utf8_raw_unchecked17h234d72230fc7c9a7E, symObjAddr: 0x17C8, symBinAddr: 0x522A4, symSize: 0x188 }
  - { offset: 0x169E4D, size: 0x8, addend: 0x0, symName: '__ZN103_$LT$std..sys..thread_local..abort_on_dtor_unwind..DtorUnwindGuard$u20$as$u20$core..ops..drop..Drop$GT$4drop17h4b7aaa7ac75e33aaE', symObjAddr: 0x0, symBinAddr: 0x50BD4, symSize: 0x7C }
  - { offset: 0x169EC1, size: 0x8, addend: 0x0, symName: __ZN3std3sys12thread_local20abort_on_dtor_unwind17h9d27490f6e1de9f3E, symObjAddr: 0x111C, symBinAddr: 0x51BF8, symSize: 0x50 }
  - { offset: 0x16A3B4, size: 0x8, addend: 0x0, symName: __ZN16parking_lot_core11parking_lot10ThreadData3new17h05beaaee0448ddc1E, symObjAddr: 0x7C, symBinAddr: 0x50C50, symSize: 0x138 }
  - { offset: 0x16A3F1, size: 0x8, addend: 0x0, symName: __ZN16parking_lot_core11parking_lot11FairTimeout3new17hab9562050b8248c2E, symObjAddr: 0x1B4, symBinAddr: 0x50D88, symSize: 0x24 }
  - { offset: 0x16A42E, size: 0x8, addend: 0x0, symName: __ZN16parking_lot_core11parking_lot11FairTimeout7gen_u3217h59330eda6c04b3c0E, symObjAddr: 0x1D8, symBinAddr: 0x50DAC, symSize: 0x48 }
  - { offset: 0x16A48A, size: 0x8, addend: 0x0, symName: __ZN16parking_lot_core11parking_lot6Bucket3new17h2ef3b5f0bde07528E, symObjAddr: 0xC04, symBinAddr: 0x516E0, symSize: 0xB8 }
  - { offset: 0x16A615, size: 0x8, addend: 0x0, symName: '__ZN5alloc5boxed12Box$LT$T$GT$8from_raw17h0097bafd348d0898E', symObjAddr: 0x1FCC, symBinAddr: 0x52AA8, symSize: 0x3C }
  - { offset: 0x16A6AD, size: 0x8, addend: 0x0, symName: '__ZN5alloc5boxed12Box$LT$T$GT$8into_raw17hcfaa5d3f469ccdf7E', symObjAddr: 0x2008, symBinAddr: 0x52AE4, symSize: 0x14 }
  - { offset: 0x16A6EA, size: 0x8, addend: 0x0, symName: '__ZN72_$LT$alloc..boxed..Box$LT$T$C$A$GT$$u20$as$u20$core..ops..drop..Drop$GT$4drop17h7d108216cc4ab570E', symObjAddr: 0x24F8, symBinAddr: 0x52FD4, symSize: 0xB8 }
  - { offset: 0x16A825, size: 0x8, addend: 0x0, symName: '__ZN72_$LT$alloc..boxed..Box$LT$T$C$A$GT$$u20$as$u20$core..ops..drop..Drop$GT$4drop17h850cb0a0de0a33e0E', symObjAddr: 0x25B0, symBinAddr: 0x5308C, symSize: 0xB8 }
  - { offset: 0x16A960, size: 0x8, addend: 0x0, symName: '__ZN72_$LT$alloc..boxed..Box$LT$T$C$A$GT$$u20$as$u20$core..ops..drop..Drop$GT$4drop17h9fe54926916af3c2E', symObjAddr: 0x2668, symBinAddr: 0x53144, symSize: 0xCC }
  - { offset: 0x16AA9B, size: 0x8, addend: 0x0, symName: '__ZN72_$LT$alloc..boxed..Box$LT$T$C$A$GT$$u20$as$u20$core..ops..drop..Drop$GT$4drop17hb445b709a23b74aeE', symObjAddr: 0x2734, symBinAddr: 0x53210, symSize: 0xC4 }
  - { offset: 0x16ADEE, size: 0x8, addend: 0x0, symName: '__ZN63_$LT$alloc..alloc..Global$u20$as$u20$core..alloc..Allocator$GT$10deallocate17hf433422a35a78cb5E', symObjAddr: 0x201C, symBinAddr: 0x52AF8, symSize: 0x80 }
  - { offset: 0x16AF0E, size: 0x8, addend: 0x0, symName: '__ZN63_$LT$alloc..alloc..Global$u20$as$u20$core..alloc..Allocator$GT$6shrink17h2a4a4d40fccb81cdE', symObjAddr: 0x209C, symBinAddr: 0x52B78, symSize: 0x438 }
  - { offset: 0x16B61B, size: 0x8, addend: 0x0, symName: __ZN5alloc5alloc15exchange_malloc17h4588368422fe83e3E, symObjAddr: 0x1D24, symBinAddr: 0x52800, symSize: 0xAC }
  - { offset: 0x16B924, size: 0x8, addend: 0x0, symName: '__ZN70_$LT$alloc..vec..Vec$LT$T$C$A$GT$$u20$as$u20$core..ops..drop..Drop$GT$4drop17h2763bbede7f566b2E', symObjAddr: 0x24D4, symBinAddr: 0x52FB0, symSize: 0x24 }
  - { offset: 0x16BA59, size: 0x8, addend: 0x0, symName: __ZN16parking_lot_core11parking_lot9HashTable3new17h2591914b70a38d85E, symObjAddr: 0xCBC, symBinAddr: 0x51798, symSize: 0x308 }
  - { offset: 0x16BB69, size: 0x8, addend: 0x0, symName: __ZN16parking_lot_core8spinwait8SpinWait3new17h887338e1b389f354E, symObjAddr: 0xFC4, symBinAddr: 0x51AA0, symSize: 0x14 }
  - { offset: 0x16BB89, size: 0x8, addend: 0x0, symName: __ZN16parking_lot_core8spinwait8SpinWait4spin17h94a39530cbcbade2E, symObjAddr: 0xFD8, symBinAddr: 0x51AB4, symSize: 0xD8 }
  - { offset: 0x16BBAB, size: 0x8, addend: 0x0, symName: __ZN16parking_lot_core8spinwait8SpinWait5reset17h14f5ef57af25b715E, symObjAddr: 0x10B0, symBinAddr: 0x51B8C, symSize: 0x18 }
  - { offset: 0x16BC67, size: 0x8, addend: 0x0, symName: '__ZN3std6thread5local17LocalKey$LT$T$GT$8try_with17h6a9aa8cf4fff2e88E', symObjAddr: 0x116C, symBinAddr: 0x51C48, symSize: 0xD8 }
  - { offset: 0x16BE27, size: 0x8, addend: 0x0, symName: '__ZN4core4cell13Cell$LT$T$GT$3get17h81205850dcccdcd6E', symObjAddr: 0x15B8, symBinAddr: 0x52094, symSize: 0x18 }
  - { offset: 0x16BE60, size: 0x8, addend: 0x0, symName: '__ZN4core4cell13Cell$LT$T$GT$3get17ha190ff10c6075305E', symObjAddr: 0x15D0, symBinAddr: 0x520AC, symSize: 0x18 }
  - { offset: 0x16BE99, size: 0x8, addend: 0x0, symName: '__ZN4core4cell13Cell$LT$T$GT$3get17ha5bff6ed45a18a6bE', symObjAddr: 0x15E8, symBinAddr: 0x520C4, symSize: 0x1C }
  - { offset: 0x16BEC5, size: 0x8, addend: 0x0, symName: '__ZN4core4cell13Cell$LT$T$GT$3new17h28f7819d0ed0c408E', symObjAddr: 0x1604, symBinAddr: 0x520E0, symSize: 0x10 }
  - { offset: 0x16BEF1, size: 0x8, addend: 0x0, symName: '__ZN4core4cell13Cell$LT$T$GT$3new17h5022da4165fe8006E', symObjAddr: 0x1614, symBinAddr: 0x520F0, symSize: 0x14 }
  - { offset: 0x16BF1D, size: 0x8, addend: 0x0, symName: '__ZN4core4cell13Cell$LT$T$GT$3new17h647ce075ba65c719E', symObjAddr: 0x1628, symBinAddr: 0x52104, symSize: 0x10 }
  - { offset: 0x16BF49, size: 0x8, addend: 0x0, symName: '__ZN4core4cell13Cell$LT$T$GT$3new17hce2bfbbcc05a4997E', symObjAddr: 0x1638, symBinAddr: 0x52114, symSize: 0x10 }
  - { offset: 0x16BF75, size: 0x8, addend: 0x0, symName: '__ZN4core4cell13Cell$LT$T$GT$3new17hef6ebe318f55bf3aE', symObjAddr: 0x1648, symBinAddr: 0x52124, symSize: 0x14 }
  - { offset: 0x16BFC9, size: 0x8, addend: 0x0, symName: '__ZN4core4cell13Cell$LT$T$GT$3set17h390743926efc491cE', symObjAddr: 0x165C, symBinAddr: 0x52138, symSize: 0x1C }
  - { offset: 0x16C067, size: 0x8, addend: 0x0, symName: '__ZN4core4cell13Cell$LT$T$GT$3set17h61f4ed52e0665e1aE', symObjAddr: 0x1678, symBinAddr: 0x52154, symSize: 0x20 }
  - { offset: 0x16C105, size: 0x8, addend: 0x0, symName: '__ZN4core4cell13Cell$LT$T$GT$3set17ha43af9d0b11760f5E', symObjAddr: 0x1698, symBinAddr: 0x52174, symSize: 0x20 }
  - { offset: 0x16C328, size: 0x8, addend: 0x0, symName: '__ZN5alloc3vec12Vec$LT$T$GT$13with_capacity17h65e8da3adcd3dc6dE', symObjAddr: 0x19A0, symBinAddr: 0x5247C, symSize: 0x44 }
  - { offset: 0x16C4E7, size: 0x8, addend: 0x0, symName: '__ZN5alloc3vec16Vec$LT$T$C$A$GT$13shrink_to_fit17h935c185a80ad63e7E', symObjAddr: 0x19E4, symBinAddr: 0x524C0, symSize: 0xE0 }
  - { offset: 0x16C719, size: 0x8, addend: 0x0, symName: '__ZN5alloc3vec16Vec$LT$T$C$A$GT$16into_boxed_slice17hd57f86e394010d00E', symObjAddr: 0x1AC4, symBinAddr: 0x525A0, symSize: 0x12C }
  - { offset: 0x16C8E9, size: 0x8, addend: 0x0, symName: '__ZN5alloc3vec16Vec$LT$T$C$A$GT$4push17h5650b43463b3b0cbE', symObjAddr: 0x1BF0, symBinAddr: 0x526CC, symSize: 0x24 }
  - { offset: 0x16CA1A, size: 0x8, addend: 0x0, symName: '__ZN5alloc3vec16Vec$LT$T$C$A$GT$8push_mut17hb10aca18605164b0E', symObjAddr: 0x1C14, symBinAddr: 0x526F0, symSize: 0x110 }
  - { offset: 0x16CD73, size: 0x8, addend: 0x0, symName: __ZN5alloc5alloc6Global10alloc_impl17h8aa5ac7a69e0460cE, symObjAddr: 0x1DD0, symBinAddr: 0x528AC, symSize: 0x1FC }
  - { offset: 0x16DA63, size: 0x8, addend: 0x0, symName: '__ZN64_$LT$core..alloc..layout..Layout$u20$as$u20$core..fmt..Debug$GT$3fmt17h3b7a8a6fba85ac52E', symObjAddr: 0x340, symBinAddr: 0x534F8, symSize: 0x88 }
  - { offset: 0x16DAAA, size: 0x8, addend: 0x0, symName: '__ZN42_$LT$$RF$T$u20$as$u20$core..fmt..Debug$GT$3fmt17h290862eb21fba920E', symObjAddr: 0x10, symBinAddr: 0x533B8, symSize: 0x30 }
  - { offset: 0x16DAF0, size: 0x8, addend: 0x0, symName: '__ZN42_$LT$$RF$T$u20$as$u20$core..fmt..Debug$GT$3fmt17h65c9cf1f833bb6d2E', symObjAddr: 0x70, symBinAddr: 0x533E8, symSize: 0x30 }
  - { offset: 0x16DDA8, size: 0x8, addend: 0x0, symName: '__ZN4core3fmt3num52_$LT$impl$u20$core..fmt..Debug$u20$for$u20$usize$GT$3fmt17h0fa1e6523205a2a1E', symObjAddr: 0x134, symBinAddr: 0x53468, symSize: 0x90 }
  - { offset: 0x16E159, size: 0x8, addend: 0x0, symName: '__ZN4core3fmt2rt38_$LT$impl$u20$core..fmt..Arguments$GT$6new_v117hed42b721c26f4027E', symObjAddr: 0xB8, symBinAddr: 0x53418, symSize: 0x50 }
  - { offset: 0x16E28B, size: 0x8, addend: 0x0, symName: '__ZN45_$LT$T$u20$as$u20$alloc..string..ToString$GT$9to_string17hd3e372c4c8c52bd7E', symObjAddr: 0x6158, symBinAddr: 0x54C94, symSize: 0x24 }
  - { offset: 0x16E2C8, size: 0x8, addend: 0x0, symName: '__ZN49_$LT$T$u20$as$u20$alloc..string..SpecToString$GT$14spec_to_string17h773e36699f1ab978E', symObjAddr: 0x617C, symBinAddr: 0x54CB8, symSize: 0xF4 }
  - { offset: 0x16E843, size: 0x8, addend: 0x0, symName: '__ZN42_$LT$$RF$T$u20$as$u20$core..fmt..Debug$GT$3fmt17h5a11ec785c734adaE', symObjAddr: 0x6038, symBinAddr: 0x54C04, symSize: 0x30 }
  - { offset: 0x16E88F, size: 0x8, addend: 0x0, symName: '__ZN44_$LT$$RF$T$u20$as$u20$core..fmt..Display$GT$3fmt17h089d1f4742c1ffccE', symObjAddr: 0x6068, symBinAddr: 0x54C34, symSize: 0x30 }
  - { offset: 0x16E8D5, size: 0x8, addend: 0x0, symName: '__ZN44_$LT$$RF$T$u20$as$u20$core..fmt..Display$GT$3fmt17he178c64209155a28E', symObjAddr: 0x6098, symBinAddr: 0x54C64, symSize: 0x30 }
  - { offset: 0x16EA8E, size: 0x8, addend: 0x0, symName: '__ZN4core5array4iter94_$LT$impl$u20$core..iter..traits..collect..IntoIterator$u20$for$u20$$u5b$T$u3b$$u20$N$u5d$$GT$9into_iter17h4d10c1a9c20435adE', symObjAddr: 0x6270, symBinAddr: 0x54DAC, symSize: 0x48 }
  - { offset: 0x170471, size: 0x8, addend: 0x0, symName: '__ZN50_$LT$T$u20$as$u20$core..convert..Into$LT$U$GT$$GT$4into17h0eba1565afd66c6bE', symObjAddr: 0xC61C, symBinAddr: 0x572A8, symSize: 0x24 }
  - { offset: 0x1704B1, size: 0x8, addend: 0x0, symName: '__ZN50_$LT$T$u20$as$u20$core..convert..Into$LT$U$GT$$GT$4into17h4a67077e77452d9eE', symObjAddr: 0xC6AC, symBinAddr: 0x572CC, symSize: 0x24 }
  - { offset: 0x1704F1, size: 0x8, addend: 0x0, symName: '__ZN50_$LT$T$u20$as$u20$core..convert..Into$LT$U$GT$$GT$4into17h55593dec6c378437E', symObjAddr: 0xC6F4, symBinAddr: 0x572F0, symSize: 0x24 }
  - { offset: 0x170531, size: 0x8, addend: 0x0, symName: '__ZN50_$LT$T$u20$as$u20$core..convert..Into$LT$U$GT$$GT$4into17h64a08884a4549643E', symObjAddr: 0xC718, symBinAddr: 0x57314, symSize: 0x24 }
  - { offset: 0x170571, size: 0x8, addend: 0x0, symName: '__ZN50_$LT$T$u20$as$u20$core..convert..Into$LT$U$GT$$GT$4into17h8b49523b0d2883a3E', symObjAddr: 0xC73C, symBinAddr: 0x57338, symSize: 0x24 }
  - { offset: 0x1705B1, size: 0x8, addend: 0x0, symName: '__ZN50_$LT$T$u20$as$u20$core..convert..Into$LT$U$GT$$GT$4into17h97d2eb66d6a37910E', symObjAddr: 0xC784, symBinAddr: 0x5735C, symSize: 0x24 }
  - { offset: 0x1705F1, size: 0x8, addend: 0x0, symName: '__ZN50_$LT$T$u20$as$u20$core..convert..Into$LT$U$GT$$GT$4into17ha3b17ea343ca6309E', symObjAddr: 0xC7A8, symBinAddr: 0x57380, symSize: 0x24 }
  - { offset: 0x170E7E, size: 0x8, addend: 0x0, symName: '__ZN103_$LT$pyo3..instance..Bound$LT$pyo3..types..any..PyAny$GT$$u20$as$u20$pyo3..types..any..PyAnyMethods$GT$13downcast_into17h144787b3647b3a53E', symObjAddr: 0x398, symBinAddr: 0x53580, symSize: 0xE8 }
  - { offset: 0x170EB5, size: 0x8, addend: 0x0, symName: '__ZN103_$LT$pyo3..instance..Bound$LT$pyo3..types..any..PyAny$GT$$u20$as$u20$pyo3..types..any..PyAnyMethods$GT$13downcast_into17haa62e84686f542e5E', symObjAddr: 0x738, symBinAddr: 0x53668, symSize: 0xE8 }
  - { offset: 0x170EEC, size: 0x8, addend: 0x0, symName: '__ZN103_$LT$pyo3..instance..Bound$LT$pyo3..types..any..PyAny$GT$$u20$as$u20$pyo3..types..any..PyAnyMethods$GT$13downcast_into17hb1201b42e1679441E', symObjAddr: 0x820, symBinAddr: 0x53750, symSize: 0xE8 }
  - { offset: 0x170F23, size: 0x8, addend: 0x0, symName: '__ZN103_$LT$pyo3..instance..Bound$LT$pyo3..types..any..PyAny$GT$$u20$as$u20$pyo3..types..any..PyAnyMethods$GT$18downcast_unchecked17h1e26e7d5cee4ace1E', symObjAddr: 0xC44, symBinAddr: 0x53838, symSize: 0x74 }
  - { offset: 0x170F5A, size: 0x8, addend: 0x0, symName: '__ZN103_$LT$pyo3..instance..Bound$LT$pyo3..types..any..PyAny$GT$$u20$as$u20$pyo3..types..any..PyAnyMethods$GT$18downcast_unchecked17h7f59cf39979f17bfE', symObjAddr: 0xD2C, symBinAddr: 0x538AC, symSize: 0x74 }
  - { offset: 0x170F91, size: 0x8, addend: 0x0, symName: '__ZN103_$LT$pyo3..instance..Bound$LT$pyo3..types..any..PyAny$GT$$u20$as$u20$pyo3..types..any..PyAnyMethods$GT$23downcast_into_unchecked17h1a4900538a73e17fE', symObjAddr: 0xFA8, symBinAddr: 0x53920, symSize: 0x14 }
  - { offset: 0x170FC8, size: 0x8, addend: 0x0, symName: '__ZN103_$LT$pyo3..instance..Bound$LT$pyo3..types..any..PyAny$GT$$u20$as$u20$pyo3..types..any..PyAnyMethods$GT$23downcast_into_unchecked17h4f3083cf2e9eead9E', symObjAddr: 0x1020, symBinAddr: 0x53934, symSize: 0x14 }
  - { offset: 0x170FFF, size: 0x8, addend: 0x0, symName: '__ZN103_$LT$pyo3..instance..Bound$LT$pyo3..types..any..PyAny$GT$$u20$as$u20$pyo3..types..any..PyAnyMethods$GT$23downcast_into_unchecked17h57b7371d0500ed7fE', symObjAddr: 0x1048, symBinAddr: 0x53948, symSize: 0x14 }
  - { offset: 0x171036, size: 0x8, addend: 0x0, symName: '__ZN103_$LT$pyo3..instance..Bound$LT$pyo3..types..any..PyAny$GT$$u20$as$u20$pyo3..types..any..PyAnyMethods$GT$23downcast_into_unchecked17h93abe35bf9277c2aE', symObjAddr: 0x10AC, symBinAddr: 0x5395C, symSize: 0x14 }
  - { offset: 0x17106D, size: 0x8, addend: 0x0, symName: '__ZN103_$LT$pyo3..instance..Bound$LT$pyo3..types..any..PyAny$GT$$u20$as$u20$pyo3..types..any..PyAnyMethods$GT$23downcast_into_unchecked17ha43689de57cbac1aE', symObjAddr: 0x10FC, symBinAddr: 0x53970, symSize: 0x14 }
  - { offset: 0x1710A4, size: 0x8, addend: 0x0, symName: '__ZN103_$LT$pyo3..instance..Bound$LT$pyo3..types..any..PyAny$GT$$u20$as$u20$pyo3..types..any..PyAnyMethods$GT$23downcast_into_unchecked17hcbd44f9193120d50E', symObjAddr: 0x1188, symBinAddr: 0x53984, symSize: 0x14 }
  - { offset: 0x1710DB, size: 0x8, addend: 0x0, symName: '__ZN103_$LT$pyo3..instance..Bound$LT$pyo3..types..any..PyAny$GT$$u20$as$u20$pyo3..types..any..PyAnyMethods$GT$23downcast_into_unchecked17hd41078c05feaf0f5E', symObjAddr: 0x119C, symBinAddr: 0x53998, symSize: 0x14 }
  - { offset: 0x171112, size: 0x8, addend: 0x0, symName: '__ZN103_$LT$pyo3..instance..Bound$LT$pyo3..types..any..PyAny$GT$$u20$as$u20$pyo3..types..any..PyAnyMethods$GT$23downcast_into_unchecked17hf3af7ea869f83f1aE', symObjAddr: 0x11C4, symBinAddr: 0x539AC, symSize: 0x14 }
  - { offset: 0x171149, size: 0x8, addend: 0x0, symName: '__ZN103_$LT$pyo3..instance..Bound$LT$pyo3..types..any..PyAny$GT$$u20$as$u20$pyo3..types..any..PyAnyMethods$GT$2is17h427b335c704bebc0E', symObjAddr: 0x11EC, symBinAddr: 0x539C0, symSize: 0x4C }
  - { offset: 0x17118F, size: 0x8, addend: 0x0, symName: '__ZN103_$LT$pyo3..instance..Bound$LT$pyo3..types..any..PyAny$GT$$u20$as$u20$pyo3..types..any..PyAnyMethods$GT$3str17h511ffc51da5d1609E', symObjAddr: 0x166C, symBinAddr: 0x53A0C, symSize: 0x5C }
  - { offset: 0x1711BD, size: 0x8, addend: 0x0, symName: '__ZN103_$LT$pyo3..instance..Bound$LT$pyo3..types..any..PyAny$GT$$u20$as$u20$pyo3..types..any..PyAnyMethods$GT$4repr17he3fdef20aee3ca96E', symObjAddr: 0x1818, symBinAddr: 0x53A68, symSize: 0x5C }
  - { offset: 0x1711EB, size: 0x8, addend: 0x0, symName: '__ZN103_$LT$pyo3..instance..Bound$LT$pyo3..types..any..PyAny$GT$$u20$as$u20$pyo3..types..any..PyAnyMethods$GT$7extract17h7e317f54953bce49E', symObjAddr: 0x1BE8, symBinAddr: 0x53AC4, symSize: 0x30 }
  - { offset: 0x171222, size: 0x8, addend: 0x0, symName: '__ZN103_$LT$pyo3..instance..Bound$LT$pyo3..types..any..PyAny$GT$$u20$as$u20$pyo3..types..any..PyAnyMethods$GT$7extract17h9c795d4a5e3906eeE', symObjAddr: 0x1C48, symBinAddr: 0x53AF4, symSize: 0x30 }
  - { offset: 0x171259, size: 0x8, addend: 0x0, symName: '__ZN103_$LT$pyo3..instance..Bound$LT$pyo3..types..any..PyAny$GT$$u20$as$u20$pyo3..types..any..PyAnyMethods$GT$7getattr17h3979873dd013bae5E', symObjAddr: 0x1DF8, symBinAddr: 0x53B24, symSize: 0xE4 }
  - { offset: 0x1712B5, size: 0x8, addend: 0x0, symName: '__ZN103_$LT$pyo3..instance..Bound$LT$pyo3..types..any..PyAny$GT$$u20$as$u20$pyo3..types..any..PyAnyMethods$GT$7setattr17h870c338aaa10ef30E', symObjAddr: 0x2010, symBinAddr: 0x53C08, symSize: 0x11C }
  - { offset: 0x17132A, size: 0x8, addend: 0x0, symName: '__ZN103_$LT$pyo3..instance..Bound$LT$pyo3..types..any..PyAny$GT$$u20$as$u20$pyo3..types..any..PyAnyMethods$GT$7setattr17h8fe58fbf84f97ebcE', symObjAddr: 0x212C, symBinAddr: 0x53D24, symSize: 0x140 }
  - { offset: 0x17139E, size: 0x8, addend: 0x0, symName: '__ZN103_$LT$pyo3..instance..Bound$LT$pyo3..types..any..PyAny$GT$$u20$as$u20$pyo3..types..any..PyAnyMethods$GT$8downcast17h4820f22e70230becE', symObjAddr: 0x22F0, symBinAddr: 0x53E64, symSize: 0x84 }
  - { offset: 0x1713D5, size: 0x8, addend: 0x0, symName: '__ZN103_$LT$pyo3..instance..Bound$LT$pyo3..types..any..PyAny$GT$$u20$as$u20$pyo3..types..any..PyAnyMethods$GT$8downcast17he071e903935841a2E', symObjAddr: 0x2500, symBinAddr: 0x53EE8, symSize: 0x84 }
  - { offset: 0x17140C, size: 0x8, addend: 0x0, symName: '__ZN103_$LT$pyo3..instance..Bound$LT$pyo3..types..any..PyAny$GT$$u20$as$u20$pyo3..types..any..PyAnyMethods$GT$8get_type17hd0663ec3ce5a8511E', symObjAddr: 0x2604, symBinAddr: 0x53F6C, symSize: 0x38 }
  - { offset: 0x1714A9, size: 0x8, addend: 0x0, symName: '__ZN107_$LT$pyo3..instance..Bound$LT$pyo3..types..list..PyList$GT$$u20$as$u20$pyo3..types..list..PyListMethods$GT$6append17hf36f7abe73194176E', symObjAddr: 0x2D38, symBinAddr: 0x54010, symSize: 0x80 }
  - { offset: 0x17152E, size: 0x8, addend: 0x0, symName: '__ZN111_$LT$pyo3..instance..Bound$LT$pyo3..types..bytes..PyBytes$GT$$u20$as$u20$pyo3..types..bytes..PyBytesMethods$GT$8as_bytes17he3a9b89ccf95d4e5E', symObjAddr: 0x2F58, symBinAddr: 0x54090, symSize: 0x28 }
  - { offset: 0x171596, size: 0x8, addend: 0x0, symName: '__ZN111_$LT$pyo3..instance..Bound$LT$pyo3..types..tuple..PyTuple$GT$$u20$as$u20$pyo3..types..tuple..PyTupleMethods$GT$3len17h8e7f08279351ba04E', symObjAddr: 0x31C0, symBinAddr: 0x540B8, symSize: 0x2C }
  - { offset: 0x171612, size: 0x8, addend: 0x0, symName: '__ZN115_$LT$pyo3..instance..Bound$LT$pyo3..types..module..PyModule$GT$$u20$as$u20$pyo3..types..module..PyModuleMethods$GT$12add_function17hae2e3b7284cea78bE', symObjAddr: 0x3588, symBinAddr: 0x540E4, symSize: 0x1E0 }
  - { offset: 0x1716C1, size: 0x8, addend: 0x0, symName: '__ZN115_$LT$pyo3..instance..Bound$LT$pyo3..types..module..PyModule$GT$$u20$as$u20$pyo3..types..module..PyModuleMethods$GT$3add17h27b6c63876eceb38E', symObjAddr: 0x3864, symBinAddr: 0x542C4, symSize: 0x13C }
  - { offset: 0x171735, size: 0x8, addend: 0x0, symName: '__ZN115_$LT$pyo3..instance..Bound$LT$pyo3..types..module..PyModule$GT$$u20$as$u20$pyo3..types..module..PyModuleMethods$GT$4name17hb193f04dca832706E', symObjAddr: 0x3C68, symBinAddr: 0x54400, symSize: 0x5C }
  - { offset: 0x171763, size: 0x8, addend: 0x0, symName: '__ZN115_$LT$pyo3..instance..Bound$LT$pyo3..types..module..PyModule$GT$$u20$as$u20$pyo3..types..module..PyModuleMethods$GT$5index17ha8c4ab8759ecdecdE', symObjAddr: 0x3CC4, symBinAddr: 0x5445C, symSize: 0x238 }
  - { offset: 0x171833, size: 0x8, addend: 0x0, symName: '__ZN115_$LT$pyo3..instance..Bound$LT$pyo3..types..string..PyString$GT$$u20$as$u20$pyo3..types..string..PyStringMethods$GT$15to_string_lossy17h3603d74a4abb407bE', symObjAddr: 0x3FB4, symBinAddr: 0x54694, symSize: 0x30 }
  - { offset: 0x171861, size: 0x8, addend: 0x0, symName: '__ZN115_$LT$pyo3..instance..Bound$LT$pyo3..types..string..PyString$GT$$u20$as$u20$pyo3..types..string..PyStringMethods$GT$6to_cow17h98ae8c4973b878aeE', symObjAddr: 0x4014, symBinAddr: 0x546C4, symSize: 0x30 }
  - { offset: 0x171895, size: 0x8, addend: 0x0, symName: '__ZN4pyo35types6string176_$LT$impl$u20$pyo3..conversion..IntoPy$LT$pyo3..instance..Py$LT$pyo3..types..string..PyString$GT$$GT$$u20$for$u20$pyo3..instance..Bound$LT$pyo3..types..string..PyString$GT$$GT$7into_py17heb91f2782dd63f7dE', symObjAddr: 0x6FC0, symBinAddr: 0x54F3C, symSize: 0x24 }
  - { offset: 0x1718E4, size: 0x8, addend: 0x0, symName: '__ZN4pyo35types6string180_$LT$impl$u20$pyo3..conversion..IntoPy$LT$pyo3..instance..Py$LT$pyo3..types..string..PyString$GT$$GT$$u20$for$u20$$RF$pyo3..instance..Bound$LT$pyo3..types..string..PyString$GT$$GT$7into_py17he5f4fedbcb44cd95E', symObjAddr: 0x7008, symBinAddr: 0x54F60, symSize: 0x28 }
  - { offset: 0x1719E8, size: 0x8, addend: 0x0, symName: '__ZN119_$LT$pyo3..instance..Bound$LT$pyo3..types..typeobject..PyType$GT$$u20$as$u20$pyo3..types..typeobject..PyTypeMethods$GT$11as_type_ptr17h64be975132c72d2bE', symObjAddr: 0x47AC, symBinAddr: 0x546F4, symSize: 0x24 }
  - { offset: 0x171A14, size: 0x8, addend: 0x0, symName: '__ZN119_$LT$pyo3..instance..Bound$LT$pyo3..types..typeobject..PyType$GT$$u20$as$u20$pyo3..types..typeobject..PyTypeMethods$GT$4name17h4716264663b35ebaE', symObjAddr: 0x4A04, symBinAddr: 0x54718, symSize: 0xB8 }
  - { offset: 0x171A7A, size: 0x8, addend: 0x0, symName: '__ZN119_$LT$pyo3..instance..Bound$LT$pyo3..types..typeobject..PyType$GT$$u20$as$u20$pyo3..types..typeobject..PyTypeMethods$GT$8qualname17h62a3339c4cdbf689E', symObjAddr: 0x4C74, symBinAddr: 0x547D0, symSize: 0xB8 }
  - { offset: 0x171B89, size: 0x8, addend: 0x0, symName: '__ZN105_$LT$pyo3..instance..Py$LT$T$GT$$u20$as$u20$core..convert..From$LT$pyo3..instance..Bound$LT$T$GT$$GT$$GT$4from17h5664fbd0c969b03fE', symObjAddr: 0x287C, symBinAddr: 0x53FA4, symSize: 0x24 }
  - { offset: 0x171BC0, size: 0x8, addend: 0x0, symName: '__ZN105_$LT$pyo3..instance..Py$LT$T$GT$$u20$as$u20$core..convert..From$LT$pyo3..instance..Bound$LT$T$GT$$GT$$GT$4from17h75318efe9bde55f5E', symObjAddr: 0x28A0, symBinAddr: 0x53FC8, symSize: 0x24 }
  - { offset: 0x171BF7, size: 0x8, addend: 0x0, symName: '__ZN105_$LT$pyo3..instance..Py$LT$T$GT$$u20$as$u20$core..convert..From$LT$pyo3..instance..Bound$LT$T$GT$$GT$$GT$4from17hb2c987294f2d816eE', symObjAddr: 0x28C4, symBinAddr: 0x53FEC, symSize: 0x24 }
  - { offset: 0x171C34, size: 0x8, addend: 0x0, symName: '__ZN124_$LT$pyo3..instance..Py$LT$pyo3..types..any..PyAny$GT$$u20$as$u20$core..convert..From$LT$pyo3..instance..Py$LT$T$GT$$GT$$GT$4from17h3353a900cf84565cE', symObjAddr: 0x4EC4, symBinAddr: 0x54888, symSize: 0x24 }
  - { offset: 0x171C71, size: 0x8, addend: 0x0, symName: '__ZN127_$LT$pyo3..instance..Py$LT$pyo3..types..any..PyAny$GT$$u20$as$u20$core..convert..From$LT$pyo3..instance..Bound$LT$T$GT$$GT$$GT$4from17h35f49cbb7a535a0bE', symObjAddr: 0x569C, symBinAddr: 0x548AC, symSize: 0x84 }
  - { offset: 0x171CC6, size: 0x8, addend: 0x0, symName: '__ZN127_$LT$pyo3..instance..Py$LT$pyo3..types..any..PyAny$GT$$u20$as$u20$core..convert..From$LT$pyo3..instance..Bound$LT$T$GT$$GT$$GT$4from17hab8e80e6c090bc98E', symObjAddr: 0x5930, symBinAddr: 0x54930, symSize: 0x84 }
  - { offset: 0x171D1B, size: 0x8, addend: 0x0, symName: '__ZN127_$LT$pyo3..instance..Py$LT$pyo3..types..any..PyAny$GT$$u20$as$u20$core..convert..From$LT$pyo3..instance..Bound$LT$T$GT$$GT$$GT$4from17hfb2a4358f766e566E', symObjAddr: 0x59B4, symBinAddr: 0x549B4, symSize: 0x84 }
  - { offset: 0x171D76, size: 0x8, addend: 0x0, symName: '__ZN129_$LT$pyo3..instance..Py$LT$T$GT$$u20$as$u20$pyo3..conversion..IntoPy$LT$pyo3..instance..Py$LT$pyo3..types..any..PyAny$GT$$GT$$GT$7into_py17hd433cd96b665255fE', symObjAddr: 0x5A38, symBinAddr: 0x54A38, symSize: 0x24 }
  - { offset: 0x171DCE, size: 0x8, addend: 0x0, symName: '__ZN132_$LT$pyo3..instance..Bound$LT$T$GT$$u20$as$u20$pyo3..conversion..IntoPy$LT$pyo3..instance..Py$LT$pyo3..types..any..PyAny$GT$$GT$$GT$7into_py17h01d4eb2adb722193E', symObjAddr: 0x5A5C, symBinAddr: 0x54A5C, symSize: 0x28 }
  - { offset: 0x171E20, size: 0x8, addend: 0x0, symName: '__ZN132_$LT$pyo3..instance..Bound$LT$T$GT$$u20$as$u20$pyo3..conversion..IntoPy$LT$pyo3..instance..Py$LT$pyo3..types..any..PyAny$GT$$GT$$GT$7into_py17h3c4d6bc638fc4235E', symObjAddr: 0x5A84, symBinAddr: 0x54A84, symSize: 0x28 }
  - { offset: 0x171E72, size: 0x8, addend: 0x0, symName: '__ZN132_$LT$pyo3..instance..Bound$LT$T$GT$$u20$as$u20$pyo3..conversion..IntoPy$LT$pyo3..instance..Py$LT$pyo3..types..any..PyAny$GT$$GT$$GT$7into_py17h493501de20640624E', symObjAddr: 0x5AD4, symBinAddr: 0x54AAC, symSize: 0x28 }
  - { offset: 0x171EC4, size: 0x8, addend: 0x0, symName: '__ZN132_$LT$pyo3..instance..Bound$LT$T$GT$$u20$as$u20$pyo3..conversion..IntoPy$LT$pyo3..instance..Py$LT$pyo3..types..any..PyAny$GT$$GT$$GT$7into_py17h92b84271c3247a15E', symObjAddr: 0x5AFC, symBinAddr: 0x54AD4, symSize: 0x28 }
  - { offset: 0x171F16, size: 0x8, addend: 0x0, symName: '__ZN132_$LT$pyo3..instance..Bound$LT$T$GT$$u20$as$u20$pyo3..conversion..IntoPy$LT$pyo3..instance..Py$LT$pyo3..types..any..PyAny$GT$$GT$$GT$7into_py17had6687f2a17450fdE', symObjAddr: 0x5B4C, symBinAddr: 0x54AFC, symSize: 0x28 }
  - { offset: 0x171F68, size: 0x8, addend: 0x0, symName: '__ZN132_$LT$pyo3..instance..Bound$LT$T$GT$$u20$as$u20$pyo3..conversion..IntoPy$LT$pyo3..instance..Py$LT$pyo3..types..any..PyAny$GT$$GT$$GT$7into_py17hc82fdd8bce8c3673E', symObjAddr: 0x5BC4, symBinAddr: 0x54B24, symSize: 0x28 }
  - { offset: 0x171FBA, size: 0x8, addend: 0x0, symName: '__ZN132_$LT$pyo3..instance..Bound$LT$T$GT$$u20$as$u20$pyo3..conversion..IntoPy$LT$pyo3..instance..Py$LT$pyo3..types..any..PyAny$GT$$GT$$GT$7into_py17hf1c2fa8b00149853E', symObjAddr: 0x5C14, symBinAddr: 0x54B4C, symSize: 0x28 }
  - { offset: 0x172012, size: 0x8, addend: 0x0, symName: '__ZN135_$LT$pyo3..instance..Borrowed$LT$T$GT$$u20$as$u20$pyo3..conversion..IntoPy$LT$pyo3..instance..Py$LT$pyo3..types..any..PyAny$GT$$GT$$GT$7into_py17h98039ad3c9039d89E', symObjAddr: 0x5CD8, symBinAddr: 0x54B74, symSize: 0x28 }
  - { offset: 0x17206A, size: 0x8, addend: 0x0, symName: '__ZN136_$LT$$RF$pyo3..instance..Bound$LT$T$GT$$u20$as$u20$pyo3..conversion..IntoPy$LT$pyo3..instance..Py$LT$pyo3..types..any..PyAny$GT$$GT$$GT$7into_py17h87a9224ebfe4f7c1E', symObjAddr: 0x5EB0, symBinAddr: 0x54B9C, symSize: 0x24 }
  - { offset: 0x173397, size: 0x8, addend: 0x0, symName: '__ZN4pyo38instance11Py$LT$T$GT$21from_owned_ptr_or_opt28_$u7b$$u7b$closure$u7d$$u7d$17h3b924f70b7e7c4a3E', symObjAddr: 0x8ADC, symBinAddr: 0x5557C, symSize: 0x14 }
  - { offset: 0x1733D9, size: 0x8, addend: 0x0, symName: '__ZN4pyo38instance11Py$LT$T$GT$21from_owned_ptr_or_opt28_$u7b$$u7b$closure$u7d$$u7d$17h5dd5eb44c336db56E', symObjAddr: 0x8AF0, symBinAddr: 0x55590, symSize: 0x14 }
  - { offset: 0x173743, size: 0x8, addend: 0x0, symName: __ZN4pyo38instance13python_format17he8305fa7a0e3e66bE, symObjAddr: 0xA560, symBinAddr: 0x56258, symSize: 0x2D8 }
  - { offset: 0x173D98, size: 0x8, addend: 0x0, symName: '__ZN4pyo38instance36Bound$LT$pyo3..types..any..PyAny$GT$21from_owned_ptr_or_err28_$u7b$$u7b$closure$u7d$$u7d$17h2495d4d2ea2abf25E', symObjAddr: 0xC1E0, symBinAddr: 0x570F4, symSize: 0x28 }
  - { offset: 0x173DF6, size: 0x8, addend: 0x0, symName: '__ZN4pyo38instance36Bound$LT$pyo3..types..any..PyAny$GT$21from_owned_ptr_or_opt28_$u7b$$u7b$closure$u7d$$u7d$17h50da894aaafb0997E', symObjAddr: 0xC234, symBinAddr: 0x57148, symSize: 0x28 }
  - { offset: 0x173E5A, size: 0x8, addend: 0x0, symName: '__ZN4pyo38instance39Borrowed$LT$pyo3..types..any..PyAny$GT$8from_ptr28_$u7b$$u7b$closure$u7d$$u7d$17h9832980420f22bf8E', symObjAddr: 0xC55C, symBinAddr: 0x5720C, symSize: 0x1C }
  - { offset: 0x173EAE, size: 0x8, addend: 0x0, symName: '__ZN67_$LT$pyo3..instance..Bound$LT$T$GT$$u20$as$u20$core..fmt..Debug$GT$3fmt17h40dc75e6083b7be2E', symObjAddr: 0xC88C, symBinAddr: 0x57418, symSize: 0x54 }
  - { offset: 0x173F12, size: 0x8, addend: 0x0, symName: '__ZN67_$LT$pyo3..instance..Bound$LT$T$GT$$u20$as$u20$core..fmt..Debug$GT$3fmt17h5fe03caa8692c4d9E', symObjAddr: 0xC8E0, symBinAddr: 0x5746C, symSize: 0x54 }
  - { offset: 0x173F76, size: 0x8, addend: 0x0, symName: '__ZN67_$LT$pyo3..instance..Bound$LT$T$GT$$u20$as$u20$core..fmt..Debug$GT$3fmt17h8c24ed6a73391d6dE', symObjAddr: 0xC934, symBinAddr: 0x574C0, symSize: 0x54 }
  - { offset: 0x173FE0, size: 0x8, addend: 0x0, symName: '__ZN69_$LT$pyo3..instance..Bound$LT$T$GT$$u20$as$u20$core..clone..Clone$GT$5clone17h0d4bc7a2b7bd7cbaE', symObjAddr: 0xC9F0, symBinAddr: 0x57514, symSize: 0x34 }
  - { offset: 0x174017, size: 0x8, addend: 0x0, symName: '__ZN69_$LT$pyo3..instance..Bound$LT$T$GT$$u20$as$u20$core..clone..Clone$GT$5clone17h719a5830d3537bb4E', symObjAddr: 0xCAF4, symBinAddr: 0x57548, symSize: 0x34 }
  - { offset: 0x17404E, size: 0x8, addend: 0x0, symName: '__ZN69_$LT$pyo3..instance..Bound$LT$T$GT$$u20$as$u20$core..clone..Clone$GT$5clone17hb417043d671f9ad9E', symObjAddr: 0xCB90, symBinAddr: 0x5757C, symSize: 0x34 }
  - { offset: 0x174085, size: 0x8, addend: 0x0, symName: '__ZN69_$LT$pyo3..instance..Bound$LT$T$GT$$u20$as$u20$core..clone..Clone$GT$5clone17hd7edfdba1c555a38E', symObjAddr: 0xCBF8, symBinAddr: 0x575B0, symSize: 0x34 }
  - { offset: 0x1740BC, size: 0x8, addend: 0x0, symName: '__ZN69_$LT$pyo3..instance..Bound$LT$T$GT$$u20$as$u20$core..clone..Clone$GT$5clone17hdcdcc266cba06b52E', symObjAddr: 0xCC2C, symBinAddr: 0x575E4, symSize: 0x34 }
  - { offset: 0x1740F9, size: 0x8, addend: 0x0, symName: '__ZN69_$LT$pyo3..instance..Bound$LT$T$GT$$u20$as$u20$core..fmt..Display$GT$3fmt17h3db4a52776321d93E', symObjAddr: 0xCCE8, symBinAddr: 0x57618, symSize: 0x54 }
  - { offset: 0x17415D, size: 0x8, addend: 0x0, symName: '__ZN69_$LT$pyo3..instance..Bound$LT$T$GT$$u20$as$u20$core..fmt..Display$GT$3fmt17h5bc9d1f0b9a774a5E', symObjAddr: 0xCD3C, symBinAddr: 0x5766C, symSize: 0x54 }
  - { offset: 0x1741C1, size: 0x8, addend: 0x0, symName: '__ZN69_$LT$pyo3..instance..Bound$LT$T$GT$$u20$as$u20$core..fmt..Display$GT$3fmt17hc868413343ddc418E', symObjAddr: 0xCD90, symBinAddr: 0x576C0, symSize: 0x54 }
  - { offset: 0x17422B, size: 0x8, addend: 0x0, symName: '__ZN69_$LT$pyo3..instance..Py$LT$T$GT$$u20$as$u20$core..ops..drop..Drop$GT$4drop17h06954e191a314ae4E', symObjAddr: 0xCDE4, symBinAddr: 0x57714, symSize: 0x28 }
  - { offset: 0x17425E, size: 0x8, addend: 0x0, symName: '__ZN69_$LT$pyo3..instance..Py$LT$T$GT$$u20$as$u20$core..ops..drop..Drop$GT$4drop17h26939c6354a08d43E', symObjAddr: 0xCE0C, symBinAddr: 0x5773C, symSize: 0x28 }
  - { offset: 0x174291, size: 0x8, addend: 0x0, symName: '__ZN69_$LT$pyo3..instance..Py$LT$T$GT$$u20$as$u20$core..ops..drop..Drop$GT$4drop17h66b876930251cb62E', symObjAddr: 0xCE34, symBinAddr: 0x57764, symSize: 0x28 }
  - { offset: 0x1742C4, size: 0x8, addend: 0x0, symName: '__ZN69_$LT$pyo3..instance..Py$LT$T$GT$$u20$as$u20$core..ops..drop..Drop$GT$4drop17h7709dde7d28a8425E', symObjAddr: 0xCE84, symBinAddr: 0x5778C, symSize: 0x28 }
  - { offset: 0x1742F7, size: 0x8, addend: 0x0, symName: '__ZN69_$LT$pyo3..instance..Py$LT$T$GT$$u20$as$u20$core..ops..drop..Drop$GT$4drop17hb476b28a160cc25aE', symObjAddr: 0xCEAC, symBinAddr: 0x577B4, symSize: 0x28 }
  - { offset: 0x17432A, size: 0x8, addend: 0x0, symName: '__ZN69_$LT$pyo3..instance..Py$LT$T$GT$$u20$as$u20$core..ops..drop..Drop$GT$4drop17hcdaecd1d8503279fE', symObjAddr: 0xCED4, symBinAddr: 0x577DC, symSize: 0x28 }
  - { offset: 0x174363, size: 0x8, addend: 0x0, symName: '__ZN72_$LT$pyo3..instance..Bound$LT$T$GT$$u20$as$u20$core..ops..drop..Drop$GT$4drop17h069cc7d2378e8287E', symObjAddr: 0xCEFC, symBinAddr: 0x57804, symSize: 0x1A8 }
  - { offset: 0x1743D2, size: 0x8, addend: 0x0, symName: '__ZN72_$LT$pyo3..instance..Bound$LT$T$GT$$u20$as$u20$core..ops..drop..Drop$GT$4drop17h0decffbd519f9b0bE', symObjAddr: 0xD0A4, symBinAddr: 0x579AC, symSize: 0x1A8 }
  - { offset: 0x174441, size: 0x8, addend: 0x0, symName: '__ZN72_$LT$pyo3..instance..Bound$LT$T$GT$$u20$as$u20$core..ops..drop..Drop$GT$4drop17h18e1d9f674498a1dE', symObjAddr: 0xD24C, symBinAddr: 0x57B54, symSize: 0x1A8 }
  - { offset: 0x1744B0, size: 0x8, addend: 0x0, symName: '__ZN72_$LT$pyo3..instance..Bound$LT$T$GT$$u20$as$u20$core..ops..drop..Drop$GT$4drop17h5ce5e4262f14f79bE', symObjAddr: 0xDA94, symBinAddr: 0x57CFC, symSize: 0x1A8 }
  - { offset: 0x17451F, size: 0x8, addend: 0x0, symName: '__ZN72_$LT$pyo3..instance..Bound$LT$T$GT$$u20$as$u20$core..ops..drop..Drop$GT$4drop17h94afa1cdd102484bE', symObjAddr: 0xE134, symBinAddr: 0x57EA4, symSize: 0x1A8 }
  - { offset: 0x17458E, size: 0x8, addend: 0x0, symName: '__ZN72_$LT$pyo3..instance..Bound$LT$T$GT$$u20$as$u20$core..ops..drop..Drop$GT$4drop17hab7d5397cd28beb7E', symObjAddr: 0xE484, symBinAddr: 0x5804C, symSize: 0x1A8 }
  - { offset: 0x1745FD, size: 0x8, addend: 0x0, symName: '__ZN72_$LT$pyo3..instance..Bound$LT$T$GT$$u20$as$u20$core..ops..drop..Drop$GT$4drop17hae5449859a357d4aE', symObjAddr: 0xE62C, symBinAddr: 0x581F4, symSize: 0x1A8 }
  - { offset: 0x17466C, size: 0x8, addend: 0x0, symName: '__ZN72_$LT$pyo3..instance..Bound$LT$T$GT$$u20$as$u20$core..ops..drop..Drop$GT$4drop17hbae22b9e86db310bE', symObjAddr: 0xE7D4, symBinAddr: 0x5839C, symSize: 0x1A8 }
  - { offset: 0x1746DB, size: 0x8, addend: 0x0, symName: '__ZN72_$LT$pyo3..instance..Bound$LT$T$GT$$u20$as$u20$core..ops..drop..Drop$GT$4drop17hfe175ea3306fc9e2E', symObjAddr: 0xF01C, symBinAddr: 0x58544, symSize: 0x1A8 }
  - { offset: 0x174750, size: 0x8, addend: 0x0, symName: '__ZN74_$LT$pyo3..instance..Bound$LT$T$GT$$u20$as$u20$core..ops..deref..Deref$GT$5deref17h655a5751e62c6711E', symObjAddr: 0xF1E8, symBinAddr: 0x586EC, symSize: 0x24 }
  - { offset: 0x174787, size: 0x8, addend: 0x0, symName: '__ZN74_$LT$pyo3..instance..Bound$LT$T$GT$$u20$as$u20$core..ops..deref..Deref$GT$5deref17h9919c56ae6b5a5adE', symObjAddr: 0xF254, symBinAddr: 0x58710, symSize: 0x24 }
  - { offset: 0x1747BE, size: 0x8, addend: 0x0, symName: '__ZN74_$LT$pyo3..instance..Bound$LT$T$GT$$u20$as$u20$core..ops..deref..Deref$GT$5deref17h99e4975915a8cb8cE', symObjAddr: 0xF278, symBinAddr: 0x58734, symSize: 0x24 }
  - { offset: 0x1747F5, size: 0x8, addend: 0x0, symName: '__ZN74_$LT$pyo3..instance..Bound$LT$T$GT$$u20$as$u20$core..ops..deref..Deref$GT$5deref17hfaca68cac273c368E', symObjAddr: 0xF308, symBinAddr: 0x58758, symSize: 0x24 }
  - { offset: 0x174832, size: 0x8, addend: 0x0, symName: '__ZN76_$LT$pyo3..instance..Py$LT$T$GT$$u20$as$u20$pyo3..conversion..ToPyObject$GT$9to_object17h62979427cff243caE', symObjAddr: 0xF354, symBinAddr: 0x5877C, symSize: 0x28 }
  - { offset: 0x17488A, size: 0x8, addend: 0x0, symName: '__ZN77_$LT$pyo3..instance..Borrowed$LT$T$GT$$u20$as$u20$core..ops..deref..Deref$GT$5deref17h47ae0cc2ddbf7da8E', symObjAddr: 0xF464, symBinAddr: 0x587A4, symSize: 0x74 }
  - { offset: 0x1748C1, size: 0x8, addend: 0x0, symName: '__ZN77_$LT$pyo3..instance..Borrowed$LT$T$GT$$u20$as$u20$core..ops..deref..Deref$GT$5deref17h93d24916ff639ba0E', symObjAddr: 0xF54C, symBinAddr: 0x58818, symSize: 0x74 }
  - { offset: 0x1748F8, size: 0x8, addend: 0x0, symName: '__ZN77_$LT$pyo3..instance..Borrowed$LT$T$GT$$u20$as$u20$core..ops..deref..Deref$GT$5deref17ha83d12f36d527ddbE', symObjAddr: 0xF5C0, symBinAddr: 0x5888C, symSize: 0x74 }
  - { offset: 0x17492F, size: 0x8, addend: 0x0, symName: '__ZN77_$LT$pyo3..instance..Borrowed$LT$T$GT$$u20$as$u20$core..ops..deref..Deref$GT$5deref17hac96b01c12612193E', symObjAddr: 0xF634, symBinAddr: 0x58900, symSize: 0x74 }
  - { offset: 0x174966, size: 0x8, addend: 0x0, symName: '__ZN77_$LT$pyo3..instance..Borrowed$LT$T$GT$$u20$as$u20$core..ops..deref..Deref$GT$5deref17hb2ed1a54849257f1E', symObjAddr: 0xF6A8, symBinAddr: 0x58974, symSize: 0x74 }
  - { offset: 0x17499D, size: 0x8, addend: 0x0, symName: '__ZN77_$LT$pyo3..instance..Borrowed$LT$T$GT$$u20$as$u20$core..ops..deref..Deref$GT$5deref17he1b4065028ba5e71E', symObjAddr: 0xF790, symBinAddr: 0x589E8, symSize: 0x74 }
  - { offset: 0x1749D4, size: 0x8, addend: 0x0, symName: '__ZN77_$LT$pyo3..instance..Borrowed$LT$T$GT$$u20$as$u20$core..ops..deref..Deref$GT$5deref17heacad6bc87e076b9E', symObjAddr: 0xF804, symBinAddr: 0x58A5C, symSize: 0x74 }
  - { offset: 0x174A11, size: 0x8, addend: 0x0, symName: '__ZN79_$LT$pyo3..instance..Bound$LT$T$GT$$u20$as$u20$pyo3..conversion..ToPyObject$GT$9to_object17h810f5e89079b0c01E', symObjAddr: 0xF8F0, symBinAddr: 0x58AD0, symSize: 0x28 }
  - { offset: 0x174A63, size: 0x8, addend: 0x0, symName: '__ZN79_$LT$pyo3..instance..Bound$LT$T$GT$$u20$as$u20$pyo3..conversion..ToPyObject$GT$9to_object17ha61cc9e7ebf1c8b8E', symObjAddr: 0xF940, symBinAddr: 0x58AF8, symSize: 0x28 }
  - { offset: 0x174AB5, size: 0x8, addend: 0x0, symName: '__ZN79_$LT$pyo3..instance..Bound$LT$T$GT$$u20$as$u20$pyo3..conversion..ToPyObject$GT$9to_object17hb3ed863c20c94f82E', symObjAddr: 0xF968, symBinAddr: 0x58B20, symSize: 0x28 }
  - { offset: 0x174B0D, size: 0x8, addend: 0x0, symName: '__ZN80_$LT$pyo3..instance..Bound$LT$T$GT$$u20$as$u20$pyo3..conversion..AsPyPointer$GT$6as_ptr17hb06106560f52e9a2E', symObjAddr: 0xF990, symBinAddr: 0x58B48, symSize: 0x2C }
  - { offset: 0x174B55, size: 0x8, addend: 0x0, symName: '__ZN196_$LT$$RF$pyo3..instance..Bound$LT$pyo3..types..module..PyModule$GT$$u20$as$u20$pyo3..impl_..pyfunction..WrapPyFunctionArg$LT$pyo3..instance..Bound$LT$pyo3..types..function..PyCFunction$GT$$GT$$GT$15wrap_pyfunction17h2282c6bc773c3ad5E', symObjAddr: 0x5FA4, symBinAddr: 0x54BC0, symSize: 0x44 }
  - { offset: 0x174D6E, size: 0x8, addend: 0x0, symName: '__ZN58_$LT$T$u20$as$u20$pyo3..err..err_state..PyErrArguments$GT$9arguments17he34bfd1e018895a5E', symObjAddr: 0xC868, symBinAddr: 0x573F4, symSize: 0x24 }
  - { offset: 0x174E4A, size: 0x8, addend: 0x0, symName: '__ZN54_$LT$$RF$T$u20$as$u20$pyo3..conversion..ToPyObject$GT$9to_object17h25be5da37853e2b6E', symObjAddr: 0xC7F0, symBinAddr: 0x573A4, symSize: 0x28 }
  - { offset: 0x174E9C, size: 0x8, addend: 0x0, symName: '__ZN54_$LT$$RF$T$u20$as$u20$pyo3..conversion..ToPyObject$GT$9to_object17he01d73ee7fe03299E', symObjAddr: 0xC840, symBinAddr: 0x573CC, symSize: 0x28 }
  - { offset: 0x17542D, size: 0x8, addend: 0x0, symName: '__ZN4pyo35types4dict75_$LT$impl$u20$pyo3..instance..Borrowed$LT$pyo3..types..dict..PyDict$GT$$GT$13iter_borrowed17h389d1283f06d5bbbE', symObjAddr: 0x63A4, symBinAddr: 0x54DF4, symSize: 0x24 }
  - { offset: 0x175484, size: 0x8, addend: 0x0, symName: '__ZN4pyo35types5bytes77_$LT$impl$u20$pyo3..instance..Borrowed$LT$pyo3..types..bytes..PyBytes$GT$$GT$8as_bytes17h357eb72abb3f78d3E', symObjAddr: 0x6438, symBinAddr: 0x54E18, symSize: 0x9C }
  - { offset: 0x1754DD, size: 0x8, addend: 0x0, symName: '__ZN4pyo35types5tuple77_$LT$impl$u20$pyo3..instance..Borrowed$LT$pyo3..types..tuple..PyTuple$GT$$GT$13iter_borrowed17h54f5258a7476bc0aE', symObjAddr: 0x6E14, symBinAddr: 0x54EB4, symSize: 0x24 }
  - { offset: 0x175555, size: 0x8, addend: 0x0, symName: '__ZN4pyo35types5tuple77_$LT$impl$u20$pyo3..instance..Borrowed$LT$pyo3..types..tuple..PyTuple$GT$$GT$27get_borrowed_item_unchecked17hff16f208bdaa7174E', symObjAddr: 0x6E9C, symBinAddr: 0x54ED8, symSize: 0x64 }
  - { offset: 0x1755B2, size: 0x8, addend: 0x0, symName: '__ZN4pyo35types6string79_$LT$impl$u20$pyo3..instance..Borrowed$LT$pyo3..types..string..PyString$GT$$GT$15to_string_lossy17h7a5be615022dc692E', symObjAddr: 0x70C0, symBinAddr: 0x54F88, symSize: 0x178 }
  - { offset: 0x17567C, size: 0x8, addend: 0x0, symName: '__ZN4pyo35types6string79_$LT$impl$u20$pyo3..instance..Borrowed$LT$pyo3..types..string..PyString$GT$$GT$6to_cow17hb8feff9f6cd76337E', symObjAddr: 0x73AC, symBinAddr: 0x55100, symSize: 0x3C }
  - { offset: 0x17569F, size: 0x8, addend: 0x0, symName: '__ZN4pyo35types6string79_$LT$impl$u20$pyo3..instance..Borrowed$LT$pyo3..types..string..PyString$GT$$GT$6to_str17h54ca03cc0060990cE', symObjAddr: 0x73E8, symBinAddr: 0x5513C, symSize: 0xCC }
  - { offset: 0x175743, size: 0x8, addend: 0x0, symName: '__ZN4pyo38instance11Py$LT$T$GT$10into_bound17h089dd90600fa752aE', symObjAddr: 0x84F4, symBinAddr: 0x55208, symSize: 0x1C }
  - { offset: 0x17578A, size: 0x8, addend: 0x0, symName: '__ZN4pyo38instance11Py$LT$T$GT$10into_bound17h3a65821ea32a4522E', symObjAddr: 0x852C, symBinAddr: 0x55224, symSize: 0x1C }
  - { offset: 0x1757F1, size: 0x8, addend: 0x0, symName: '__ZN4pyo38instance11Py$LT$T$GT$13from_non_null17h3ab3edd0a4fda6afE', symObjAddr: 0x869C, symBinAddr: 0x55240, symSize: 0x14 }
  - { offset: 0x17581D, size: 0x8, addend: 0x0, symName: '__ZN4pyo38instance11Py$LT$T$GT$13from_non_null17h4ac58e959874b82aE', symObjAddr: 0x86B0, symBinAddr: 0x55254, symSize: 0x14 }
  - { offset: 0x175849, size: 0x8, addend: 0x0, symName: '__ZN4pyo38instance11Py$LT$T$GT$13from_non_null17h4e728fb97910280aE', symObjAddr: 0x86C4, symBinAddr: 0x55268, symSize: 0x14 }
  - { offset: 0x175875, size: 0x8, addend: 0x0, symName: '__ZN4pyo38instance11Py$LT$T$GT$13from_non_null17h793e697d867c4a85E', symObjAddr: 0x8714, symBinAddr: 0x5527C, symSize: 0x14 }
  - { offset: 0x1758A1, size: 0x8, addend: 0x0, symName: '__ZN4pyo38instance11Py$LT$T$GT$13from_non_null17h8d8488e24edf1659E', symObjAddr: 0x8728, symBinAddr: 0x55290, symSize: 0x14 }
  - { offset: 0x1758CD, size: 0x8, addend: 0x0, symName: '__ZN4pyo38instance11Py$LT$T$GT$13from_non_null17hb12056b7377af019E', symObjAddr: 0x8778, symBinAddr: 0x552A4, symSize: 0x14 }
  - { offset: 0x1758F9, size: 0x8, addend: 0x0, symName: '__ZN4pyo38instance11Py$LT$T$GT$13from_non_null17hb30b415aed3704d5E', symObjAddr: 0x878C, symBinAddr: 0x552B8, symSize: 0x14 }
  - { offset: 0x175925, size: 0x8, addend: 0x0, symName: '__ZN4pyo38instance11Py$LT$T$GT$13from_non_null17hd81a81e5e53b6584E', symObjAddr: 0x87DC, symBinAddr: 0x552CC, symSize: 0x14 }
  - { offset: 0x175951, size: 0x8, addend: 0x0, symName: '__ZN4pyo38instance11Py$LT$T$GT$13from_non_null17hfdf46f69e7ed2f8bE', symObjAddr: 0x87F0, symBinAddr: 0x552E0, symSize: 0x14 }
  - { offset: 0x1759A8, size: 0x8, addend: 0x0, symName: '__ZN4pyo38instance11Py$LT$T$GT$14from_owned_ptr17h16a94553d708b7b7E', symObjAddr: 0x8804, symBinAddr: 0x552F4, symSize: 0x50 }
  - { offset: 0x1759EF, size: 0x8, addend: 0x0, symName: '__ZN4pyo38instance11Py$LT$T$GT$14from_owned_ptr17he2d5eea2137f1bc8E', symObjAddr: 0x88A4, symBinAddr: 0x55344, symSize: 0x50 }
  - { offset: 0x175A36, size: 0x8, addend: 0x0, symName: '__ZN4pyo38instance11Py$LT$T$GT$21from_owned_ptr_or_err17h096b120c4e1d2306E', symObjAddr: 0x88F4, symBinAddr: 0x55394, symSize: 0x88 }
  - { offset: 0x175A9B, size: 0x8, addend: 0x0, symName: '__ZN4pyo38instance11Py$LT$T$GT$21from_owned_ptr_or_err17h9e2bc7826bee3e7eE', symObjAddr: 0x897C, symBinAddr: 0x5541C, symSize: 0x88 }
  - { offset: 0x175B00, size: 0x8, addend: 0x0, symName: '__ZN4pyo38instance11Py$LT$T$GT$21from_owned_ptr_or_err17hb33a52f4b64d3b6eE', symObjAddr: 0x8A04, symBinAddr: 0x554A4, symSize: 0x88 }
  - { offset: 0x175B65, size: 0x8, addend: 0x0, symName: '__ZN4pyo38instance11Py$LT$T$GT$21from_owned_ptr_or_opt17h6e645defa5a8a90eE', symObjAddr: 0x8A8C, symBinAddr: 0x5552C, symSize: 0x28 }
  - { offset: 0x175BAC, size: 0x8, addend: 0x0, symName: '__ZN4pyo38instance11Py$LT$T$GT$21from_owned_ptr_or_opt17h9a894ae1f1099baeE', symObjAddr: 0x8AB4, symBinAddr: 0x55554, symSize: 0x28 }
  - { offset: 0x175C0D, size: 0x8, addend: 0x0, symName: '__ZN4pyo38instance11Py$LT$T$GT$4bind17h2803cc119e75b150E', symObjAddr: 0x8B04, symBinAddr: 0x555A4, symSize: 0x74 }
